 main

 Timestamp is 685b42f1 (Wed Jun 25 02:29:37 2025)

 Preferred load address is 0000000140000000

 Start         Length     Name                   Class
 0001:00000000 0004f420H .text$mn                CODE
 0001:0004f420 00000040H .text$mn$00             CODE
 0001:0004f460 00000a70H .text$mn$21             CODE
 0001:0004fed0 0000083dH .text$x                 CODE
 0002:00000000 00000410H .idata$5                DATA
 0002:00000410 00000038H .00cfg                  DATA
 0002:00000448 00000008H .CRT$XCA                DATA
 0002:00000450 00000008H .CRT$XCAA               DATA
 0002:00000458 00000008H .CRT$XCZ                DATA
 0002:00000460 00000008H .CRT$XIA                DATA
 0002:00000468 00000008H .CRT$XIAA               DATA
 0002:00000470 00000008H .CRT$XIAC               DATA
 0002:00000478 00000020H .CRT$XIC                DATA
 0002:00000498 00000008H .CRT$XIZ                DATA
 0002:000004a0 00000008H .CRT$XLA                DATA
 0002:000004a8 00000008H .CRT$XLZ                DATA
 0002:000004b0 00000008H .CRT$XPA                DATA
 0002:000004b8 00000010H .CRT$XPX                DATA
 0002:000004c8 00000008H .CRT$XPXA               DATA
 0002:000004d0 00000008H .CRT$XPZ                DATA
 0002:000004d8 00000008H .CRT$XTA                DATA
 0002:000004e0 00000010H .CRT$XTZ                DATA
 0002:000004e8 00000000H .gehcont$y              DATA
 0002:000004e8 00000000H .gfids$y                DATA
 0002:000004f0 00012010H .rdata                  DATA
 0002:00012500 00000180H .rdata$00               DATA
 0002:00012680 00000000H .rdata$CastGuardVftablesA DATA
 0002:00012680 00000000H .rdata$CastGuardVftablesC DATA
 0002:00012680 00000028H .rdata$T                DATA
 0002:000126a8 0000016cH .rdata$r                DATA
 0002:00012814 000001f4H .rdata$voltmd           DATA
 0002:00012a08 000003f8H .rdata$zzzdbg           DATA
 0002:00012e00 00000008H .rtc$IAA                DATA
 0002:00012e08 00000008H .rtc$IZZ                DATA
 0002:00012e10 00000008H .rtc$TAA                DATA
 0002:00012e18 00000008H .rtc$TZZ                DATA
 0002:00012e20 00000004H .tls                    DATA
 0002:00012e24 00000004H .tls$                   DATA
 0002:00012e28 00000008H .tls$ZZZ                DATA
 0002:00012e30 000016d0H .xdata                  DATA
 0002:00014500 00000084H .xdata$x                DATA
 0002:00014584 00000000H .edata                  DATA
 0002:00014584 00000050H .idata$2                DATA
 0002:000145d4 00000014H .idata$3                DATA
 0002:000145e8 00000410H .idata$4                DATA
 0002:000149f8 00000916H .idata$6                DATA
 0003:00000000 00000ac0H .data                   DATA
 0003:00000ac0 00000050H .data$r                 DATA
 0003:00000b10 00000020H .data$rs                DATA
 0003:00000b30 00001978H .bss                    DATA
 0004:00000000 00003b04H .pdata                  DATA

  Address         Publics by Value              Rva+Base               Lib:Object

 0000:00000000       __AbsoluteZero             0000000000000000     <absolute>
 0000:00000000       ___safe_se_handler_count   0000000000000000     <absolute>
 0000:00000000       ___safe_se_handler_table   0000000000000000     <absolute>
 0000:00000000       __arm64x_extra_rfe_table   0000000000000000     <absolute>
 0000:00000000       __arm64x_extra_rfe_table_size 0000000000000000     <absolute>
 0000:00000000       __arm64x_native_entrypoint 0000000000000000     <absolute>
 0000:00000000       __arm64x_redirection_metadata 0000000000000000     <absolute>
 0000:00000000       __arm64x_redirection_metadata_count 0000000000000000     <absolute>
 0000:00000000       __dynamic_value_reloc_table 0000000000000000     <absolute>
 0000:00000000       __enclave_config           0000000000000000     <absolute>
 0000:00000000       __guard_check_icall_a64n_fptr 0000000000000000     <absolute>
 0000:00000000       __guard_eh_cont_count      0000000000000000     <absolute>
 0000:00000000       __guard_eh_cont_table      0000000000000000     <absolute>
 0000:00000000       __guard_fids_count         0000000000000000     <absolute>
 0000:00000000       __guard_fids_table         0000000000000000     <absolute>
 0000:00000000       __guard_iat_count          0000000000000000     <absolute>
 0000:00000000       __guard_iat_table          0000000000000000     <absolute>
 0000:00000000       __guard_longjmp_count      0000000000000000     <absolute>
 0000:00000000       __guard_longjmp_table      0000000000000000     <absolute>
 0000:00000000       __hybrid_auxiliary_delayload_iat 0000000000000000     <absolute>
 0000:00000000       __hybrid_auxiliary_delayload_iat_copy 0000000000000000     <absolute>
 0000:00000000       __hybrid_auxiliary_iat     0000000000000000     <absolute>
 0000:00000000       __hybrid_auxiliary_iat_copy 0000000000000000     <absolute>
 0000:00000000       __hybrid_code_map          0000000000000000     <absolute>
 0000:00000000       __hybrid_code_map_count    0000000000000000     <absolute>
 0000:00000000       __hybrid_image_info_bitfield 0000000000000000     <absolute>
 0000:00000000       __x64_code_ranges_to_entry_points 0000000000000000     <absolute>
 0000:00000000       __x64_code_ranges_to_entry_points_count 0000000000000000     <absolute>
 0000:00000100       __guard_flags              0000000000000100     <absolute>
 0000:00000000       __ImageBase                0000000140000000     <linker-defined>
 0001:00000000       WinMain                    0000000140001000 f   main.obj
 0001:00000b60       ?arena_make@@YAXPEAUArena@@_K@Z 0000000140001b60 f   main.obj
 0001:00000c40       ?arena_push_size@@YAPEAXPEAUArena@@AEB_K1@Z 0000000140001c40 f   main.obj
 0001:00000d40       ?insertion_sort@@YAXPEAHH@Z 0000000140001d40 f   main.obj
 0001:00000df0       ?insertion_sort@@YAXPEAMH@Z 0000000140001df0 f   main.obj
 0001:00000eb0       ?insertion_sort@@YAXPEAEH@Z 0000000140001eb0 f   main.obj
 0001:00000f60       ?quicksort@@YAXPEAHHH@Z    0000000140001f60 f   main.obj
 0001:00001120       ?quicksort@@YAXPEAMHH@Z    0000000140002120 f   main.obj
 0001:00001300       ?quicksort@@YAXPEAEHH@Z    0000000140002300 f   main.obj
 0001:000014c0       ??$empty_key@E@@YAEXZ      00000001400024c0 f   main.obj
 0001:000014d0       ??$empty_key@G@@YAGXZ      00000001400024d0 f   main.obj
 0001:000014e0       ??$empty_key@I@@YAIXZ      00000001400024e0 f   main.obj
 0001:000014f0       ??$empty_key@_K@@YA_KXZ    00000001400024f0 f   main.obj
 0001:00001500       ??$empty_key@C@@YACXZ      0000000140002500 f   main.obj
 0001:00001510       ??$empty_key@F@@YAFXZ      0000000140002510 f   main.obj
 0001:00001520       ??$empty_key@H@@YAHXZ      0000000140002520 f   main.obj
 0001:00001530       ??$empty_key@_J@@YA_JXZ    0000000140002530 f   main.obj
 0001:00001550       ??$empty_key@PEAX@@YAPEAXXZ 0000000140002550 f   main.obj
 0001:00001560       ??$empty_key@UString@@@@YA?AUString@@XZ 0000000140002560 f   main.obj
 0001:00001590       ??$tombstone_key@E@@YAEXZ  0000000140002590 f   main.obj
 0001:000015a0       ??$tombstone_key@G@@YAGXZ  00000001400025a0 f   main.obj
 0001:000015b0       ??$tombstone_key@I@@YAIXZ  00000001400025b0 f   main.obj
 0001:000015c0       ??$tombstone_key@_K@@YA_KXZ 00000001400025c0 f   main.obj
 0001:000015d0       ??$tombstone_key@C@@YACXZ  00000001400025d0 f   main.obj
 0001:000015e0       ??$tombstone_key@F@@YAFXZ  00000001400025e0 f   main.obj
 0001:000015f0       ??$tombstone_key@H@@YAHXZ  00000001400025f0 f   main.obj
 0001:00001600       ??$tombstone_key@_J@@YA_JXZ 0000000140002600 f   main.obj
 0001:00001620       ??$tombstone_key@PEAX@@YAPEAXXZ 0000000140002620 f   main.obj
 0001:00001630       ??$tombstone_key@UString@@@@YA?AUString@@XZ 0000000140002630 f   main.obj
 0001:00001660       ?register_profiler@@YAHUString@@@Z 0000000140002660 f   main.obj
 0001:000017e0       ?push_profiler_index@@YAXH@Z 00000001400027e0 f   main.obj
 0001:000018b0       ?pop_profiler_index@@YAHXZ 00000001400028b0 f   main.obj
 0001:00001960       ?profiler_push@@YAXH@Z     0000000140002960 f   main.obj
 0001:000019c0       ?profiler_pop@@YAXXZ       00000001400029c0 f   main.obj
 0001:00001b00       ?matrix_mul_vector@@YA?ATVector3@@PEATMatrix4@@T1@@Z 0000000140002b00 f   main.obj
 0001:00001d40       ?matrix_mul_vector4@@YA?ATVector4@@PEATMatrix4@@AEBT1@@Z 0000000140002d40 f   main.obj
 0001:00002040       ?matrix_mul@@YAXPEATMatrix4@@00@Z 0000000140003040 f   main.obj
 0001:00002170       ?matrix_transpose@@YAXPEATMatrix4@@@Z 0000000140003170 f   main.obj
 0001:000024f0       ?matrix_compose@@YAXHZZ    00000001400034f0 f   main.obj
 0001:00002800       ?model_matrix_for_transform@@YAXPEATMatrix4@@PEAUTransform@@@Z 0000000140003800 f   main.obj
 0001:00002920       ?view_matrix_for_camera@@YAXPEATMatrix4@@PEAUCamera@@@Z 0000000140003920 f   main.obj
 0001:00002a80       ?perspective_matrix_for_camera@@YAXPEATMatrix4@@PEAUCamera@@@Z 0000000140003a80 f   main.obj
 0001:00002c90       ?mvp_matrix_for_transform@@YAXPEATMatrix4@@PEAUTransform@@00@Z 0000000140003c90 f   main.obj
 0001:00002d10       ?tmatrix_compose@@YAPEATMatrix4@@HZZ 0000000140003d10 f   main.obj
 0001:00002ff0       ?quaternion_from_euler@@YA?AUQuaternion@@MMM@Z 0000000140003ff0 f   main.obj
 0001:00003190       ?quaternion_chain@@YA?AUQuaternion@@AEBU1@0@Z 0000000140004190 f   main.obj
 0001:00003340       ?quaternion_normalize@@YA?AUQuaternion@@U1@@Z 0000000140004340 f   main.obj
 0001:00003460       ?quaternion_rot_vector@@YA?ATVector3@@AEBT1@AEBUQuaternion@@@Z 0000000140004460 f   main.obj
 0001:00003650       ?quaternion_to_matrix@@YAXAEBUQuaternion@@PEATMatrix4@@@Z 0000000140004650 f   main.obj
 0001:00003a70       ?quaternion_to_tmatrix@@YAPEATMatrix4@@UQuaternion@@@Z 0000000140004a70 f   main.obj
 0001:00003ac0       ?draw_string@@YAXAEBUString@@PEAUFont@@AEBTVector2@@2AEBUColor@@AEBTRect@@@Z 0000000140004ac0 f   main.obj
 0001:00003f50       ?draw_string_wrapped@@YAXAEBUString@@PEAUFont@@AEBTVector2@@2AEBUColor@@AEBMAEBTRect@@@Z 0000000140004f50 f   main.obj
 0001:000044e0       ?load_font_metadata@@YAXUString@@PEAUFont@@@Z 00000001400054e0 f   main.obj
 0001:00004680       ?fill_background@@YAXXZ    0000000140005680 f   main.obj
 0001:00004720       ?triangulate_fan@@YAHPEATVector4@@HPEATTriangle4@@@Z 0000000140005720 f   main.obj
 0001:00004810       ?clip_triangle@@YAHPEATTriangle4@@0@Z 0000000140005810 f   main.obj
 0001:00005670       ?rasterize_triangle@@YAXPEATTriangle@@UColor@@H@Z 0000000140006670 f   main.obj
 0001:00005ad0       ?triangle_clip_to_raster_space@@YAXPEATTriangle4@@@Z 0000000140006ad0 f   main.obj
 0001:00005d80       ?render_mesh@@YAXUMesh@@PEATMatrix4@@PEAUColor@@@Z 0000000140006d80 f   main.obj
 0001:00006110       update_and_render          0000000140007110 f   main.obj
 0001:00006d10       ?init_memory@@YAXXZ        0000000140007d10 f   main.obj
 0001:00006ec0       ?init_engine_state@@YAXXZ  0000000140007ec0 f   main.obj
 0001:00007240       platform_init_engine       0000000140008240 f   main.obj
 0001:00007400       ?bilinear_sample_premultiplied@@YA?AUColor@@PEAEHHHMM@Z 0000000140008400 f   main.obj
 0001:000076e0       ?load_font_permanently@@YAXUString@@W4MYFONT@@@Z 00000001400086e0 f   main.obj
 0001:00007800       ?model_matrix_test@@YAXPEATMatrix4@@0@Z 0000000140008800 f   main.obj
 0001:000081d0       ?none_test@@YAXXZ          00000001400091d0 f   main.obj
 0001:000081f0       ?test@@YAXXZ               00000001400091f0 f   main.obj
 0001:00008210       ?init_keymap@@YAXXZ        0000000140009210 f   main.obj
 0001:00008360       ?make_font_bmp@@YAXXZ      0000000140009360 f   main.obj
 0001:000089e0       ?window_procedure@@YA_JPEAUHWND__@@I_K_J@Z 00000001400099e0 f   main.obj
 0001:00008ea0       ??$Max@H@@YAHHH@Z          0000000140009ea0 f i main.obj
 0001:00008ed0       ??$Max@K@@YAKKK@Z          0000000140009ed0 f i main.obj
 0001:00008f00       ??$Max@M@@YAMMM@Z          0000000140009f00 f i main.obj
 0001:00008f40       ??$Max@N@@YANNN@Z          0000000140009f40 f i main.obj
 0001:00008f80       ??$Max@_K@@YA_K_K0@Z       0000000140009f80 f i main.obj
 0001:00008fc0       ??$Min@M@@YAMMM@Z          0000000140009fc0 f i main.obj
 0001:00009000       ??$Min@N@@YANNN@Z          000000014000a000 f i main.obj
 0001:00009040       ??$Min@_K@@YA_K_K0@Z       000000014000a040 f i main.obj
 0001:00009080       ??$abs@M@@YAMM@Z           000000014000a080 f i main.obj
 0001:000090c0       ??$align_up@_K@@YA_K_K0@Z  000000014000a0c0 f i main.obj
 0001:00009110       ??$arena_push@E@@YAPEAEPEAUArena@@_K@Z 000000014000a110 f i main.obj
 0001:00009150       ??$arena_push@M@@YAPEAMPEAUArena@@_K@Z 000000014000a150 f i main.obj
 0001:00009190       ??$arena_push@TMatrix4@@@@YAPEATMatrix4@@PEAUArena@@_K@Z 000000014000a190 f i main.obj
 0001:000091d0       ??$arena_push@TTriangle4@@@@YAPEATTriangle4@@PEAUArena@@_K@Z 000000014000a1d0 f i main.obj
 0001:00009210       ??$arena_push@TVector4@@@@YAPEATVector4@@PEAUArena@@_K@Z 000000014000a210 f i main.obj
 0001:00009250       ??$arena_push@UEngine_state@@@@YAPEAUEngine_state@@PEAUArena@@_K@Z 000000014000a250 f i main.obj
 0001:00009290       ??$arena_push@UTransform@@@@YAPEAUTransform@@PEAUArena@@_K@Z 000000014000a290 f i main.obj
 0001:000092d0       ??$arena_push@_K@@YAPEA_KPEAUArena@@_K@Z 000000014000a2d0 f i main.obj
 0001:00009310       ??$clamp@H@@YAHHHH@Z       000000014000a310 f i main.obj
 0001:00009350       ??$clamp@M@@YAMMMM@Z       000000014000a350 f i main.obj
 0001:000093a0       ??$is_pow2@_K@@YAH_K@Z     000000014000a3a0 f i main.obj
 0001:000093c0       ??$scratch_push@E@@YAPEAEPEAUScratch@@I@Z 000000014000a3c0 f i main.obj
 0001:000093f0       ??$scratch_push@H@@YAPEAHPEAUScratch@@I@Z 000000014000a3f0 f i main.obj
 0001:000093f0       ??$scratch_push@M@@YAPEAMPEAUScratch@@I@Z 000000014000a3f0 f i main.obj
 0001:00009420       ??$scratch_push@TMatrix4@@@@YAPEATMatrix4@@PEAUScratch@@I@Z 000000014000a420 f i main.obj
 0001:00009450       ??$scratch_push@TVector4@@@@YAPEATVector4@@PEAUScratch@@I@Z 000000014000a450 f i main.obj
 0001:00009480       ??$sqr@M@@YAMM@Z           000000014000a480 f i main.obj
 0001:000094a0       ??$swap@E@@YAXAEAE0@Z      000000014000a4a0 f i main.obj
 0001:000094e0       ??$swap@H@@YAXAEAH0@Z      000000014000a4e0 f i main.obj
 0001:00009520       ??$swap@M@@YAXAEAM0@Z      000000014000a520 f i main.obj
 0001:00009570       ??$swap@PEATVector4@@@@YAXAEAPEATVector4@@0@Z 000000014000a570 f i main.obj
 0001:000095b0       ?Floor@@YAMM@Z             000000014000a5b0 f i main.obj
 0001:000095d0       ?arena_reset@@YAXPEAUArena@@@Z 000000014000a5d0 f i main.obj
 0001:000095f0       ?arena_set_size@@YAXPEAUArena@@_K@Z 000000014000a5f0 f i main.obj
 0001:00009650       ?bit_array_get@@YAHUBit_array@@I@Z 000000014000a650 f i main.obj
 0001:000096b0       ?bit_array_make@@YA?AUBit_array@@PEA_KI@Z 000000014000a6b0 f i main.obj
 0001:00009700       ?bit_array_set@@YAXUBit_array@@I@Z 000000014000a700 f i main.obj
 0001:00009780       ?bit_array_unset@@YAXUBit_array@@I@Z 000000014000a780 f i main.obj
 0001:00009800       ?bit_array_unset_all@@YAXUBit_array@@@Z 000000014000a800 f i main.obj
 0001:00009850       ?ceili@@YAHM@Z             000000014000a850 f i main.obj
 0001:00009870       ?color_blend_premultiplied@@YA?AUColor@@AEBU1@0@Z 000000014000a870 f i main.obj
 0001:00009980       ?color_clamp@@YA?AUColor@@U1@@Z 000000014000a980 f i main.obj
 0001:00009a30       ?color_lerp@@YA?AUColor@@AEBU1@0M@Z 000000014000aa30 f i main.obj
 0001:00009a30       ?vec_lerp@@YA?ATVector4@@AEBT1@0M@Z 000000014000aa30 f i main.obj
 0001:00009b00       ?color_make@@YA?AUColor@@MMMM@Z 000000014000ab00 f i main.obj
 0001:00009b60       ?color_premultiply@@YA?AUColor@@U1@@Z 000000014000ab60 f i main.obj
 0001:00009be0       ?color_tint@@YA?AUColor@@U1@0@Z 000000014000abe0 f i main.obj
 0001:00009ce0       ?color_to_u32@@YAIUColor@@@Z 000000014000ace0 f i main.obj
 0001:00009e20       ?concat@@YA?AUString@@AEBU1@0PEAUArena@@@Z 000000014000ae20 f i main.obj
 0001:00009ed0       ??C__crt_stdio_stream@@QEBAPEAU__crt_stdio_stream_data@@XZ 000000014000aed0 f i libucrtd:output.obj
 0001:00009ed0       ?cstr@@YAPEBEUString@@@Z   000000014000aed0 f i main.obj
 0001:00009ed0       ?get@?$__crt_scoped_stack_ptr@_W@@QEBAPEA_WXZ 000000014000aed0 f i libucrtd:getstringtypea.obj
 0001:00009ed0       ?get@?$__crt_unique_handle_t@U__crt_findfile_traits@@@@QEBAPEAXXZ 000000014000aed0 f i libucrtd:argv_wildcards.obj
 0001:00009ed0       ?get@?$__crt_unique_handle_t@U__crt_hmodule_traits@@@@QEBAPEAUHINSTANCE__@@XZ 000000014000aed0 f i libucrtd:exit.obj
 0001:00009ed0       ?get@?$__crt_unique_heap_ptr@DU__crt_internal_free_policy@@@@QEBAPEADXZ 000000014000aed0 f i libvcruntimed:std_type_info.obj
 0001:00009ed0       ?get@?$__crt_unique_heap_ptr@DU__crt_public_free_policy@@@@QEBAPEADXZ 000000014000aed0 f i libvcruntimed:std_exception.obj
 0001:00009ed0       ?get@?$__crt_unique_heap_ptr@EU__crt_internal_free_policy@@@@QEBAPEAEXZ 000000014000aed0 f i libucrtd:argv_parsing.obj
 0001:00009ed0       ?get@?$__crt_unique_heap_ptr@PEADU__crt_internal_free_policy@@@@QEBAPEAPEADXZ 000000014000aed0 f i libucrtd:argv_parsing.obj
 0001:00009ed0       ?get@?$__crt_unique_heap_ptr@U__acrt_ptd@@U__crt_internal_free_policy@@@@QEBAPEAU__acrt_ptd@@XZ 000000014000aed0 f i libucrtd:per_thread_data.obj
 0001:00009ed0       ?get@?$__crt_unique_heap_ptr@U__crt_lowio_handle_data@@U__crt_internal_free_policy@@@@QEBAPEAU__crt_lowio_handle_data@@XZ 000000014000aed0 f i libucrtd:osfinfo.obj
 0001:00009ed0       ?get@?$__crt_unique_heap_ptr@U__crt_multibyte_data@@U__crt_internal_free_policy@@@@QEBAPEAU__crt_multibyte_data@@XZ 000000014000aed0 f i libucrtd:wsetlocale.obj
 0001:00009ed0       ?get@?$__crt_unique_heap_ptr@U__vcrt_ptd@@U__crt_internal_free_policy@@@@QEBAPEAU__vcrt_ptd@@XZ 000000014000aed0 f i libvcruntimed:per_thread_data.obj
 0001:00009ed0       ?public_stream@__crt_stdio_stream@@QEBAPEAU_iobuf@@XZ 000000014000aed0 f i libucrtd:output.obj
 0001:00009ed0       ?save_state@?$c_string_character_source@D@__crt_strtox@@QEBAPEBDXZ 000000014000aed0 f i libucrtd:output.obj
 0001:00009ed0       ?save_state@?$c_string_character_source@_W@__crt_strtox@@QEBAPEB_WXZ 000000014000aed0 f i libucrtd:output.obj
 0001:00009ee0       ?decimal@@YAMM@Z           000000014000aee0 f i main.obj
 0001:00009f00       ?dword_count_for_bit_count@@YAII@Z 000000014000af00 f i main.obj
 0001:00009f20       ?dword_for_bit@@YAII@Z     000000014000af20 f i main.obj
 0001:00009f40       ?dword_mask_for_bit@@YA_KI@Z 000000014000af40 f i main.obj
 0001:00009f70       ?edge_function@@YAMAEBTVector3@@00@Z 000000014000af70 f i main.obj
 0001:00009fe0       ?fix_alpha_for_font_bmp@@YAXPEAUFont@@@Z 000000014000afe0 f i main.obj
 0001:0000a0e0       ?float_compare@@YAHMM@Z    000000014000b0e0 f i main.obj
 0001:0000a130       ?floori@@YAHM@Z            000000014000b130 f i main.obj
 0001:0000a140       ?font_bmp_bytesize@@YAIPEAUFont@@@Z 000000014000b140 f i main.obj
 0001:0000a180       ?framebuffer_access@@YAPEAIHHPEAEH@Z 000000014000b180 f i main.obj
 0001:0000a1c0       ?get_flags@@YAEEE@Z        000000014000b1c0 f i main.obj
 0001:0000a1e0       ?get_font@@YAPEAUFont@@W4MYFONT@@@Z 000000014000b1e0 f i main.obj
 0001:0000a240       ?get_glyph_bmp@@YAPEAEPEAUFont@@E@Z 000000014000b240 f i main.obj
 0001:0000a320       ?get_scratch@@YAPEAUScratch@@XZ 000000014000b320 f i main.obj
 0001:0000a3d0       ?inside_bot@@YAHTVector4@@@Z 000000014000b3d0 f i main.obj
 0001:0000a420       ?inside_far@@YAHTVector4@@@Z 000000014000b420 f i main.obj
 0001:0000a460       ?inside_left@@YAHTVector4@@@Z 000000014000b460 f i main.obj
 0001:0000a4a0       ?inside_near@@YAHTVector4@@@Z 000000014000b4a0 f i main.obj
 0001:0000a4f0       ?inside_right@@YAHTVector4@@@Z 000000014000b4f0 f i main.obj
 0001:0000a530       ?inside_top@@YAHTVector4@@@Z 000000014000b530 f i main.obj
 0001:0000a570       ?intersect_bot@@YA?ATVector4@@AEBT1@0@Z 000000014000b570 f i main.obj
 0001:0000a630       ?intersect_far@@YA?ATVector4@@AEBT1@0@Z 000000014000b630 f i main.obj
 0001:0000a6f0       ?intersect_left@@YA?ATVector4@@AEBT1@0@Z 000000014000b6f0 f i main.obj
 0001:0000a7a0       ?intersect_near@@YA?ATVector4@@AEBT1@0@Z 000000014000b7a0 f i main.obj
 0001:0000a860       ?intersect_right@@YA?ATVector4@@AEBT1@0@Z 000000014000b860 f i main.obj
 0001:0000a910       ?intersect_top@@YA?ATVector4@@AEBT1@0@Z 000000014000b910 f i main.obj
 0001:0000a9d0       ?key_down@@YAHW4KEYCODE@@@Z 000000014000b9d0 f i main.obj
 0001:0000aa10       ?key_pressed@@YAHW4KEYCODE@@@Z 000000014000ba10 f i main.obj
 0001:0000aa50       ?key_released@@YAHW4KEYCODE@@@Z 000000014000ba50 f i main.obj
 0001:0000aa90       ?last_dword_bits@@YAEI@Z   000000014000ba90 f i main.obj
 0001:0000aab0       ?len_of_c_string@@YAHPEBD@Z 000000014000bab0 f i main.obj
 0001:0000ab10       ?lerp@@YAMMMM@Z            000000014000bb10 f i main.obj
 0001:0000ab50       ?load_font_bmp@@YAXUString@@PEAUFont@@@Z 000000014000bb50 f i main.obj
 0001:0000aca0       ?matrix_scale@@YAXPEATMatrix4@@TVector3@@@Z 000000014000bca0 f i main.obj
 0001:0000ada0       ?matrix_translate@@YAXPEATMatrix4@@TVector3@@@Z 000000014000bda0 f i main.obj
 0001:0000aea0       ?matrix_unit@@YAXPEATMatrix4@@@Z 000000014000bea0 f i main.obj
 0001:0000afd0       ?memcmp@@YAHPEAX0I@Z       000000014000bfd0 f i main.obj
 0001:0000b030       ?memcpy@@YAXPEAX0I@Z       000000014000c030 f i main.obj
 0001:0000b080       ?mvp_tmatrix_for_transform@@YAPEATMatrix4@@PEAUTransform@@PEAT1@1@Z 000000014000c080 f i main.obj
 0001:0000b0e0       ?open_existing_file_for_reading@@YAHPEBEPEAPEAX@Z 000000014000c0e0 f i main.obj
 0001:0000b170       ?perspective_tmatrix_for_camera@@YAPEATMatrix4@@PEAUCamera@@@Z 000000014000c170 f i main.obj
 0001:0000b1b0       ?premul_alpha_for_font_bmp@@YAXPEAUFont@@@Z 000000014000c1b0 f i main.obj
 0001:0000b2d0       ?quaternion_conjugate@@YA?AUQuaternion@@U1@@Z 000000014000c2d0 f i main.obj
 0001:0000b350       ?quaternion_from_axis@@YA?AUQuaternion@@TVector3@@M@Z 000000014000c350 f i main.obj
 0001:0000b400       ?quaternion_identity@@YA?AUQuaternion@@XZ 000000014000c400 f i main.obj
 0001:0000b450       ?quaternion_len@@YAMUQuaternion@@@Z 000000014000c450 f i main.obj
 0001:0000b4e0       ?quicksort_partition@@YAHPEAEHH@Z 000000014000c4e0 f i main.obj
 0001:0000b5c0       ?quicksort_partition@@YAHPEAHHH@Z 000000014000c5c0 f i main.obj
 0001:0000b690       ?quicksort_partition@@YAHPEAMHH@Z 000000014000c690 f i main.obj
 0001:0000b760       ?read_cycle_counter@@YA_KXZ 000000014000c760 f i main.obj
 0001:0000b770       ?read_entire_file@@YAHPEBEPEAXI@Z 000000014000c770 f i main.obj
 0001:0000b810       ?read_time_counter@@YANXZ  000000014000c810 f i main.obj
 0001:0000b850       ?rect_width@@YAMTRect@@@Z  000000014000c850 f i main.obj
 0001:0000b870       ?release_scratch@@YAXPEAUScratch@@@Z 000000014000c870 f i main.obj
 0001:0000b8a0       ?scratch_push_size@@YAPEAXPEAUScratch@@HH@Z 000000014000c8a0 f i main.obj
 0001:0000b980       ?set_flags@@YAEEE@Z        000000014000c980 f i main.obj
 0001:0000b9a0       ?str@@YA?AUString@@PEBD@Z  000000014000c9a0 f i main.obj
 0001:0000b9e0       ?string_compare@@YAHUString@@0@Z 000000014000c9e0 f i main.obj
 0001:0000ba30       ?temp_reset@@YAXXZ         000000014000ca30 f i main.obj
 0001:0000ba50       ?temp_set_size@@YAX_K@Z    000000014000ca50 f i main.obj
 0001:0000ba80       ?triangle_4to3@@YAXPEATTriangle4@@PEATTriangle@@@Z 000000014000ca80 f i main.obj
 0001:0000bbd0       ?triangle_bounding_box@@YA?ATRect@@AEBTVector3@@00@Z 000000014000cbd0 f i main.obj
 0001:0000bd20       ?u32_to_color@@YA?AUColor@@I@Z 000000014000cd20 f i main.obj
 0001:0000bde0       ?unset_all_flags@@YAEXZ    000000014000cde0 f i main.obj
 0001:0000bdf0       ?unset_flags@@YAEEE@Z      000000014000cdf0 f i main.obj
 0001:0000be10       ?vec_3to4@@YA?ATVector4@@TVector3@@M@Z 000000014000ce10 f i main.obj
 0001:0000be70       ?vec_4to3@@YA?ATVector3@@TVector4@@@Z 000000014000ce70 f i main.obj
 0001:0000bec0       ?vec_add@@YA?ATVector2@@T1@0@Z 000000014000cec0 f i main.obj
 0001:0000bf20       ?vec_add@@YA?ATVector3@@AEBT1@0@Z 000000014000cf20 f i main.obj
 0001:0000bf90       ?vec_cross@@YA?ATVector3@@AEBT1@0@Z 000000014000cf90 f i main.obj
 0001:0000c050       ?vec_make@@YA?ATVector2@@MM@Z 000000014000d050 f i main.obj
 0001:0000c0a0       ?vec_make@@YA?ATVector3@@MMM@Z 000000014000d0a0 f i main.obj
 0001:0000c0f0       ?vec_negate@@YA?ATVector3@@T1@@Z 000000014000d0f0 f i main.obj
 0001:0000c160       ?vec_right@@YA?ATVector3@@XZ 000000014000d160 f i main.obj
 0001:0000c1a0       ?vec_scale@@YA?ATVector3@@T1@M@Z 000000014000d1a0 f i main.obj
 0001:0000c210       ?vec_scale@@YA?ATVector4@@AEBT1@M@Z 000000014000d210 f i main.obj
 0001:0000c290       ?vec_up@@YA?ATVector3@@XZ  000000014000d290 f i main.obj
 0001:0000c2d0       ?vec_zero3@@YA?ATVector3@@XZ 000000014000d2d0 f i main.obj
 0001:0000c310       ?view_tmatrix_for_camera@@YAPEATMatrix4@@PEAUCamera@@@Z 000000014000d310 f i main.obj
 0001:0000c350       ?zbuffer_access@@YAPEAMHHPEAMH@Z 000000014000d350 f i main.obj
 0001:0000c390       ?zbuffer_reset@@YAXPEAMHH@Z 000000014000d390 f i main.obj
 0001:0000c410       __local_stdio_printf_options 000000014000d410 f i main.obj
 0001:0000c420       _vsnprintf_l               000000014000d420 f i main.obj
 0001:0000c4a0       _vsprintf_l                000000014000d4a0 f i main.obj
 0001:0000c4f0       sprintf                    000000014000d4f0 f i main.obj
 0001:0000c540       _Init_thread_abort         000000014000d540 f   LIBCMTD:thread_safe_statics.obj
 0001:0000c570       _Init_thread_footer        000000014000d570 f   LIBCMTD:thread_safe_statics.obj
 0001:0000c5d0       _Init_thread_header        000000014000d5d0 f   LIBCMTD:thread_safe_statics.obj
 0001:0000c660       _Init_thread_lock          000000014000d660 f   LIBCMTD:thread_safe_statics.obj
 0001:0000c680       _Init_thread_notify        000000014000d680 f   LIBCMTD:thread_safe_statics.obj
 0001:0000c6a0       _Init_thread_unlock        000000014000d6a0 f   LIBCMTD:thread_safe_statics.obj
 0001:0000c6c0       _Init_thread_wait_v2       000000014000d6c0 f   LIBCMTD:thread_safe_statics.obj
 0001:0000c6f0       __GSHandlerCheck           000000014000d6f0 f   LIBCMTD:gshandler.obj
 0001:0000c730       __GSHandlerCheckCommon     000000014000d730 f   LIBCMTD:gshandler.obj
 0001:0000c830       __GSHandlerCheck_EH4       000000014000d830 f   LIBCMTD:gshandlereh4.obj
 0001:0000c8f0       __security_check_cookie    000000014000d8f0 f   LIBCMTD:amdsecgs.obj
 0001:0000cbd0       ?configure_argv@__scrt_narrow_argv_policy@@SAHXZ 000000014000dbd0 f i LIBCMTD:exe_winmain.obj
 0001:0000cbf0       ?initialize_environment@__scrt_narrow_environment_policy@@SAHXZ 000000014000dbf0 f i LIBCMTD:exe_winmain.obj
 0001:0000cc40       ?set_app_type@__scrt_winmain_policy@@SAXXZ 000000014000dc40 f i LIBCMTD:exe_winmain.obj
 0001:0000cc60       ?set_commode@__scrt_file_policy@@SAXXZ 000000014000dc60 f i LIBCMTD:exe_winmain.obj
 0001:0000cc80       ?set_fmode@__scrt_file_policy@@SAXXZ 000000014000dc80 f i LIBCMTD:exe_winmain.obj
 0001:0000cca0       WinMainCRTStartup          000000014000dca0 f   LIBCMTD:exe_winmain.obj
 0001:0000ccc0       __raise_securityfailure    000000014000dcc0 f   LIBCMTD:gs_report.obj
 0001:0000cd00       __report_gsfailure         000000014000dd00 f   LIBCMTD:gs_report.obj
 0001:0000cde0       __report_rangecheckfailure 000000014000dde0 f   LIBCMTD:gs_report.obj
 0001:0000ce00       __report_securityfailure   000000014000de00 f   LIBCMTD:gs_report.obj
 0001:0000d160       NtCurrentTeb               000000014000e160 f i LIBCMTD:utility.obj
 0001:0000d170       __scrt_acquire_startup_lock 000000014000e170 f   LIBCMTD:utility.obj
 0001:0000d1e0       __scrt_initialize_crt      000000014000e1e0 f   LIBCMTD:utility.obj
 0001:0000d230       __scrt_initialize_onexit_tables 000000014000e230 f   LIBCMTD:utility.obj
 0001:0000d340       __scrt_is_nonwritable_in_current_image 000000014000e340 f   LIBCMTD:utility.obj
 0001:0000d3d0       __scrt_release_startup_lock 000000014000e3d0 f   LIBCMTD:utility.obj
 0001:0000d400       __scrt_uninitialize_crt    000000014000e400 f   LIBCMTD:utility.obj
 0001:0000d440       _onexit                    000000014000e440 f   LIBCMTD:utility.obj
 0001:0000d4c0       atexit                     000000014000e4c0 f   LIBCMTD:utility.obj
 0001:0000d5c0       __security_init_cookie     000000014000e5c0 f   LIBCMTD:gs_support.obj
 0001:0000d640       ?getESTypes@__FrameHandler4@@SAPEBU_s_ESTypeList@@PEAUFuncInfo4@FH4@@@Z 000000014000e640 f   libvcruntimed:frame.obj
 0001:0000d640       ?get_current_state_index@__crt_state_management@@YA_KAEBV__crt_scoped_get_last_error_reset@@@Z 000000014000e640 f   libucrtd:output.obj
 0001:0000d640       _matherr                   000000014000e640 f   LIBCMTD:matherr.obj
 0001:0000d650       _get_startup_argv_mode     000000014000e650 f   LIBCMTD:argv_mode.obj
 0001:0000d660       ?get_current_state_index@__crt_state_management@@YA_KXZ 000000014000e660 f   libucrtd:matherr.obj
 0001:0000d660       ?get_invalid_value@__crt_hmodule_traits@@SAPEAUHINSTANCE__@@XZ 000000014000e660 f   libucrtd:exit.obj
 0001:0000d660       __scrt_exe_initialize_mta  000000014000e660 f   LIBCMTD:utility_desktop.obj
 0001:0000d660       __scrt_initialize_winrt    000000014000e660 f   LIBCMTD:utility_desktop.obj
 0001:0000d660       __scrt_stub_for_initialize_mta 000000014000e660 f   LIBCMTD:utility_desktop.obj
 0001:0000d660       _get_startup_commit_mode   000000014000e660 f   LIBCMTD:commit_mode.obj
 0001:0000d660       _get_startup_new_mode      000000014000e660 f   LIBCMTD:new_mode.obj
 0001:0000d660       _get_startup_thread_locale_mode 000000014000e660 f   LIBCMTD:thread_locale.obj
 0001:0000d670       _get_startup_file_mode     000000014000e670 f   LIBCMTD:file_mode.obj
 0001:0000d680       ?__scrt_initialize_type_info@@YAXXZ 000000014000e680 f   LIBCMTD:tncleanup.obj
 0001:0000d6a0       _should_initialize_environment 000000014000e6a0 f   LIBCMTD:env_mode.obj
 0001:0000d6b0       _initialize_denormal_control 000000014000e6b0 f   LIBCMTD:denormal_control.obj
 0001:0000d6b0       _initialize_invalid_parameter_handler 000000014000e6b0 f   LIBCMTD:invalid_parameter_handler.obj
 0001:0000d6c0       __local_stdio_scanf_options 000000014000e6c0 f i LIBCMTD:default_local_stdio_options.obj
 0001:0000d6d0       __scrt_initialize_default_local_stdio_options 000000014000e6d0 f   LIBCMTD:default_local_stdio_options.obj
 0001:0000d720       __scrt_is_user_matherr_present 000000014000e720 f   LIBCMTD:matherr_detection.obj
 0001:0000d750       __scrt_get_dyn_tls_init_callback 000000014000e750 f   LIBCMTD:dyn_tls_init.obj
 0001:0000d760       __scrt_get_dyn_tls_dtor_callback 000000014000e760 f   LIBCMTD:dyn_tls_dtor.obj
 0001:0000d770       __crt_debugger_hook        000000014000e770 f   LIBCMTD:utility_desktop.obj
 0001:0000d780       __scrt_fastfail            000000014000e780 f   LIBCMTD:utility_desktop.obj
 0001:0000d920       __scrt_get_show_window_mode 000000014000e920 f   LIBCMTD:utility_desktop.obj
 0001:0000d980       __scrt_initialize_mta      000000014000e980 f   LIBCMTD:utility_desktop.obj
 0001:0000d990       __scrt_is_managed_app      000000014000e990 f   LIBCMTD:utility_desktop.obj
 0001:0000da40       __scrt_set_unhandled_exception_filter 000000014000ea40 f   LIBCMTD:utility_desktop.obj
 0001:0000da60       __scrt_unhandled_exception_filter 000000014000ea60 f   LIBCMTD:utility_desktop.obj
 0001:0000db00       _RTC_Initialize            000000014000eb00 f   LIBCMTD:initsect.obj
 0001:0000db50       _RTC_Terminate             000000014000eb50 f   LIBCMTD:initsect.obj
 0001:0000dba0       ??1?$__crt_simd_cleanup_guard@$0A@@@QEAA@XZ 000000014000eba0 f i libucrtd:strnlen.obj
 0001:0000dba0       ??1scoped_global_state_reset@__crt_state_management@@QEAA@XZ 000000014000eba0 f i libucrtd:onexit.obj
 0001:0000dba0       _guard_check_icall_nop     000000014000eba0 f i LIBCMTD:guard_support.obj
 0001:0000dbb0       ReadNoFence64              000000014000ebb0 f i LIBCMTD:guard_support.obj
 0001:0000dbd0       ReadPointerNoFence         000000014000ebd0 f i LIBCMTD:guard_support.obj
 0001:0000dbf0       _guard_icall_checks_enforced 000000014000ebf0 f i LIBCMTD:guard_support.obj
 0001:0000dc30       __isa_available_init       000000014000ec30 f   LIBCMTD:cpu_disp.obj
 0001:0000e120       __scrt_is_ucrt_dll_in_use  000000014000f120 f   LIBCMTD:ucrt_detection.obj
 0001:0000e150       ??$?0AEAViterator@TryBlockMap4@FH4@@AEAV012@$0A@@?$pair@Viterator@TryBlockMap4@FH4@@V123@@std@@QEAA@AEAViterator@TryBlockMap4@FH4@@0@Z 000000014000f150 f i libvcruntimed:risctrnsctrl.obj
 0001:0000e150       ??$?0AEAViterator@TryBlockMap@__FrameHandler3@@AEAV012@$0A@@?$pair@Viterator@TryBlockMap@__FrameHandler3@@V123@@std@@QEAA@AEAViterator@TryBlockMap@__FrameHandler3@@0@Z 000000014000f150 f i libvcruntimed:risctrnsctrl.obj
 0001:0000e340       ??$_CallSETranslator@V__FrameHandler3@@@@YAHPEAUEHExceptionRecord@@PEA_KPEAU_CONTEXT@@PEAU_xDISPATCHER_CONTEXT@@PEBU_s_FuncInfo@@K1H@Z 000000014000f340 f i libvcruntimed:risctrnsctrl.obj
 0001:0000e3d0       ??$_CallSETranslator@V__FrameHandler4@@@@YAHPEAUEHExceptionRecord@@PEA_KPEAU_CONTEXT@@PEAU_xDISPATCHER_CONTEXT@@PEAUFuncInfo4@FH4@@K1H@Z 000000014000f3d0 f i libvcruntimed:risctrnsctrl.obj
 0001:0000e460       ??0FuncInfo4@FH4@@QEAA@XZ  000000014000f460 f i libvcruntimed:risctrnsctrl.obj
 0001:0000e4d0       ??0FuncInfoHeader@FH4@@QEAA@XZ 000000014000f4d0 f i libvcruntimed:risctrnsctrl.obj
 0001:0000e4f0       ??0iterator@HandlerMap4@FH4@@QEAA@AEAV12@I@Z 000000014000f4f0 f i libvcruntimed:frame.obj
 0001:0000e4f0       ??0iterator@HandlerMap@__FrameHandler3@@QEAA@AEAV12@I@Z 000000014000f4f0 f i libvcruntimed:frame.obj
 0001:0000e4f0       ??0iterator@TryBlockMap4@FH4@@QEAA@AEAV12@I@Z 000000014000f4f0 f i libvcruntimed:risctrnsctrl.obj
 0001:0000e4f0       ??0iterator@TryBlockMap@__FrameHandler3@@QEAA@AEAV12@I@Z 000000014000f4f0 f i libvcruntimed:risctrnsctrl.obj
 0001:0000e520       ??4iterator@TryBlockMap4@FH4@@QEAAAEAV012@AEBV012@@Z 000000014000f520 f i libvcruntimed:risctrnsctrl.obj
 0001:0000e540       ??9iterator@TryBlockMap4@FH4@@QEBA_NAEBV012@@Z 000000014000f540 f i libvcruntimed:risctrnsctrl.obj
 0001:0000e580       ??Diterator@TryBlockMap4@FH4@@QEAA?AUTryBlockMapEntry4@2@XZ 000000014000f580 f i libvcruntimed:risctrnsctrl.obj
 0001:0000e5b0       ??Eiterator@TryBlockMap4@FH4@@QEAAAEAV012@XZ 000000014000f5b0 f i libvcruntimed:risctrnsctrl.obj
 0001:0000e5f0       ?CatchTryBlock@__FrameHandler3@@SAPEBU_s_TryBlockMapEntry@@PEBU_s_FuncInfo@@H@Z 000000014000f5f0 f   libvcruntimed:risctrnsctrl.obj
 0001:0000e680       ?DecompFuncInfo@FH4@@YA_JPEAEAEAUFuncInfo4@1@_KH@Z 000000014000f680 f i libvcruntimed:risctrnsctrl.obj
 0001:0000e6c0       ?DecompFuncInfo@FH4@@YA_JPEAEAEAUFuncInfo4@1@_KH_N@Z 000000014000f6c0 f i libvcruntimed:risctrnsctrl.obj
 0001:0000e8a0       ?DecompTryBlock@TryBlockMap4@FH4@@AEAAXXZ 000000014000f8a0 f i libvcruntimed:risctrnsctrl.obj
 0001:0000e920       ?ExecutionInCatch@__FrameHandler3@@SA_NPEAU_xDISPATCHER_CONTEXT@@PEBU_s_FuncInfo@@@Z 000000014000f920 f   libvcruntimed:risctrnsctrl.obj
 0001:0000e970       ?ExecutionInCatch@__FrameHandler4@@SA_NPEAU_xDISPATCHER_CONTEXT@@PEAUFuncInfo4@FH4@@@Z 000000014000f970 f   libvcruntimed:risctrnsctrl.obj
 0001:0000e990       ?FrameUnwindToEmptyState@__FrameHandler3@@SAXPEA_KPEAU_xDISPATCHER_CONTEXT@@PEBU_s_FuncInfo@@@Z 000000014000f990 f   libvcruntimed:risctrnsctrl.obj
 0001:0000ea30       ?FrameUnwindToEmptyState@__FrameHandler4@@SAXPEA_KPEAU_xDISPATCHER_CONTEXT@@PEAUFuncInfo4@FH4@@@Z 000000014000fa30 f   libvcruntimed:risctrnsctrl.obj
 0001:0000ea90       ?GetEstablisherFrame@__FrameHandler3@@SAPEA_KPEA_KPEAU_xDISPATCHER_CONTEXT@@PEBU_s_FuncInfo@@0@Z 000000014000fa90 f   libvcruntimed:risctrnsctrl.obj
 0001:0000ec00       ?GetEstablisherFrame@__FrameHandler4@@SAPEA_KPEA_KPEAU_xDISPATCHER_CONTEXT@@PEAUFuncInfo4@FH4@@0@Z 000000014000fc00 f   libvcruntimed:risctrnsctrl.obj
 0001:0000ec70       ?GetRangeOfTrysToCheck@__FrameHandler3@@SA?AU?$pair@Viterator@TryBlockMap@__FrameHandler3@@V123@@std@@AEAVTryBlockMap@1@HPEAU_xDISPATCHER_CONTEXT@@PEBU_s_FuncInfo@@H@Z 000000014000fc70 f   libvcruntimed:risctrnsctrl.obj
 0001:0000eeb0       ?GetRangeOfTrysToCheck@__FrameHandler4@@SA?AU?$pair@Viterator@TryBlockMap4@FH4@@V123@@std@@AEAVTryBlockMap4@FH4@@HPEAU_xDISPATCHER_CONTEXT@@PEAUFuncInfo4@5@H@Z 000000014000feb0 f   libvcruntimed:risctrnsctrl.obj
 0001:0000f070       ?ReadInt@FH4@@YAHPEAPEAE@Z 0000000140010070 f i libvcruntimed:risctrnsctrl.obj
 0001:0000f0b0       ?ReadUnsigned@FH4@@YAIPEAPEAE@Z 00000001400100b0 f i libvcruntimed:risctrnsctrl.obj
 0001:0000f140       ?UnwindNestedFrames@__FrameHandler3@@SAXPEA_KPEAUEHExceptionRecord@@PEAU_CONTEXT@@0PEAXPEBU_s_FuncInfo@@HHPEBU_s_HandlerType@@PEAU_xDISPATCHER_CONTEXT@@E@Z 0000000140010140 f   libvcruntimed:risctrnsctrl.obj
 0001:0000f2b0       ?UnwindNestedFrames@__FrameHandler4@@SAXPEA_KPEAUEHExceptionRecord@@PEAU_CONTEXT@@0PEAXPEAUFuncInfo4@FH4@@HHPEAUHandlerType4@5@PEAU_xDISPATCHER_CONTEXT@@E@Z 00000001400102b0 f   libvcruntimed:risctrnsctrl.obj
 0001:0000f480       ?begin@HandlerMap4@FH4@@QEAA?AViterator@12@XZ 0000000140010480 f i libvcruntimed:frame.obj
 0001:0000f480       ?begin@HandlerMap@__FrameHandler3@@QEAA?AViterator@12@XZ 0000000140010480 f i libvcruntimed:frame.obj
 0001:0000f480       ?begin@TryBlockMap4@FH4@@QEAA?AViterator@12@XZ 0000000140010480 f i libvcruntimed:risctrnsctrl.obj
 0001:0000f4b0       ?end@HandlerMap4@FH4@@QEAA?AViterator@12@XZ 00000001400104b0 f i libvcruntimed:frame.obj
 0001:0000f4b0       ?end@HandlerMap@__FrameHandler3@@QEAA?AViterator@12@XZ 00000001400104b0 f i libvcruntimed:frame.obj
 0001:0000f4b0       ?end@TryBlockMap4@FH4@@QEAA?AViterator@12@XZ 00000001400104b0 f i libvcruntimed:risctrnsctrl.obj
 0001:0000f4e0       ?imageRelToByteBuffer@FH4@@YAPEAE_KH@Z 00000001400104e0 f i libvcruntimed:risctrnsctrl.obj
 0001:0000f500       ?incrementToSentinel@iterator@TryBlockMap4@FH4@@QEAAXXZ 0000000140010500 f i libvcruntimed:risctrnsctrl.obj
 0001:0000f520       ?setBuffer@TryBlockMap4@FH4@@QEAAXViterator@12@@Z 0000000140010520 f i libvcruntimed:risctrnsctrl.obj
 0001:0000f590       _CreateFrameInfo           0000000140010590 f   libvcruntimed:risctrnsctrl.obj
 0001:0000f600       _FindAndUnlinkFrame        0000000140010600 f   libvcruntimed:risctrnsctrl.obj
 0001:0000f680       _GetImageBase              0000000140010680 f   libvcruntimed:risctrnsctrl.obj
 0001:0000f6a0       _GetThrowImageBase         00000001400106a0 f   libvcruntimed:risctrnsctrl.obj
 0001:0000f6c0       _SetImageBase              00000001400106c0 f   libvcruntimed:risctrnsctrl.obj
 0001:0000f6e0       _SetThrowImageBase         00000001400106e0 f   libvcruntimed:risctrnsctrl.obj
 0001:0000f700       __CxxFrameHandler3         0000000140010700 f   libvcruntimed:risctrnsctrl.obj
 0001:0000f7e0       __CxxFrameHandler4         00000001400107e0 f   libvcruntimed:risctrnsctrl.obj
 0001:0000f8f0       __C_specific_handler       00000001400108f0 f   libvcruntimed:riscchandler.obj
 0001:0000fd60       __vcrt_initialize          0000000140010d60 f   libvcruntimed:initialization.obj
 0001:0000fda0       __vcrt_uninitialize        0000000140010da0 f   libvcruntimed:initialization.obj
 0001:0000fdc0       ??$?RD@__crt_internal_free_policy@@QEBAXQEBD@Z 0000000140010dc0 f i libvcruntimed:std_type_info.obj
 0001:0000fdc0       ??$?RU__vcrt_ptd@@@__crt_internal_free_policy@@QEBAXQEBU__vcrt_ptd@@@Z 0000000140010dc0 f i libvcruntimed:per_thread_data.obj
 0001:0000fdf0       ??0?$__crt_scoped_stack_ptr@_W@@QEAA@U?$__crt_scoped_stack_ptr_tag@_W@@@Z 0000000140010df0 f i libucrtd:getstringtypea.obj
 0001:0000fdf0       ??0?$__crt_scoped_stack_ptr_tag@_W@@QEAA@QEA_W@Z 0000000140010df0 f i libucrtd:getstringtypea.obj
 0001:0000fdf0       ??0?$__crt_unique_handle_t@U__crt_findfile_traits@@@@QEAA@QEAX@Z 0000000140010df0 f i libucrtd:argv_wildcards.obj
 0001:0000fdf0       ??0?$__crt_unique_handle_t@U__crt_hmodule_traits@@@@QEAA@QEAUHINSTANCE__@@@Z 0000000140010df0 f i libucrtd:exit.obj
 0001:0000fdf0       ??0?$__crt_unique_heap_ptr@DU__crt_internal_free_policy@@@@QEAA@QEAD@Z 0000000140010df0 f i libvcruntimed:std_type_info.obj
 0001:0000fdf0       ??0?$__crt_unique_heap_ptr@DU__crt_public_free_policy@@@@QEAA@QEAD@Z 0000000140010df0 f i libvcruntimed:std_exception.obj
 0001:0000fdf0       ??0?$__crt_unique_heap_ptr@EU__crt_internal_free_policy@@@@QEAA@QEAE@Z 0000000140010df0 f i libucrtd:argv_parsing.obj
 0001:0000fdf0       ??0?$__crt_unique_heap_ptr@P6AXXZU__crt_internal_free_policy@@@@QEAA@QEAP6AXXZ@Z 0000000140010df0 f i libucrtd:onexit.obj
 0001:0000fdf0       ??0?$__crt_unique_heap_ptr@PEADU__crt_internal_free_policy@@@@QEAA@QEAPEAD@Z 0000000140010df0 f i libucrtd:argv_parsing.obj
 0001:0000fdf0       ??0?$__crt_unique_heap_ptr@PEAU__crt_stdio_stream_data@@U__crt_internal_free_policy@@@@QEAA@QEAPEAU__crt_stdio_stream_data@@@Z 0000000140010df0 f i libucrtd:_file.obj
 0001:0000fdf0       ??0?$__crt_unique_heap_ptr@U__acrt_ptd@@U__crt_internal_free_policy@@@@QEAA@QEAU__acrt_ptd@@@Z 0000000140010df0 f i libucrtd:per_thread_data.obj
 0001:0000fdf0       ??0?$__crt_unique_heap_ptr@U__crt_lowio_handle_data@@U__crt_internal_free_policy@@@@QEAA@QEAU__crt_lowio_handle_data@@@Z 0000000140010df0 f i libucrtd:osfinfo.obj
 0001:0000fdf0       ??0?$__crt_unique_heap_ptr@U__crt_multibyte_data@@U__crt_internal_free_policy@@@@QEAA@QEAU__crt_multibyte_data@@@Z 0000000140010df0 f i libucrtd:wsetlocale.obj
 0001:0000fdf0       ??0?$__crt_unique_heap_ptr@U__vcrt_ptd@@U__crt_internal_free_policy@@@@QEAA@QEAU__vcrt_ptd@@@Z 0000000140010df0 f i libvcruntimed:per_thread_data.obj
 0001:0000fdf0       ??0?$string_output_adapter@D@__crt_stdio_output@@QEAA@QEAU?$string_output_adapter_context@D@1@@Z 0000000140010df0 f i libucrtd:output.obj
 0001:0000fdf0       ??0?$string_output_adapter@_W@__crt_stdio_output@@QEAA@QEAU?$string_output_adapter_context@_W@1@@Z 0000000140010df0 f i libucrtd:output.obj
 0001:0000fdf0       ??0__crt_stdio_stream@@QEAA@QEAU__crt_stdio_stream_data@@@Z 0000000140010df0 f i libucrtd:closeall.obj
 0001:0000fdf0       ??0__crt_stdio_stream@@QEAA@QEAU_iobuf@@@Z 0000000140010df0 f i libucrtd:output.obj
 0001:0000fe10       ??1?$__crt_unique_heap_ptr@DU__crt_internal_free_policy@@@@QEAA@XZ 0000000140010e10 f i libvcruntimed:std_type_info.obj
 0001:0000fe10       ??1?$__crt_unique_heap_ptr@U__vcrt_ptd@@U__crt_internal_free_policy@@@@QEAA@XZ 0000000140010e10 f i libvcruntimed:per_thread_data.obj
 0001:0000fe30       ??B?$__crt_unique_heap_ptr@DU__crt_internal_free_policy@@@@QEBA_NXZ 0000000140010e30 f i libvcruntimed:std_type_info.obj
 0001:0000fe30       ??B?$__crt_unique_heap_ptr@DU__crt_public_free_policy@@@@QEBA_NXZ 0000000140010e30 f i libvcruntimed:std_exception.obj
 0001:0000fe30       ??B?$__crt_unique_heap_ptr@EU__crt_internal_free_policy@@@@QEBA_NXZ 0000000140010e30 f i libucrtd:argv_parsing.obj
 0001:0000fe30       ??B?$__crt_unique_heap_ptr@PEADU__crt_internal_free_policy@@@@QEBA_NXZ 0000000140010e30 f i libucrtd:environment_initialization.obj
 0001:0000fe30       ??B?$__crt_unique_heap_ptr@U__acrt_ptd@@U__crt_internal_free_policy@@@@QEBA_NXZ 0000000140010e30 f i libucrtd:per_thread_data.obj
 0001:0000fe30       ??B?$__crt_unique_heap_ptr@U__crt_lowio_handle_data@@U__crt_internal_free_policy@@@@QEBA_NXZ 0000000140010e30 f i libucrtd:osfinfo.obj
 0001:0000fe30       ??B?$__crt_unique_heap_ptr@U__crt_multibyte_data@@U__crt_internal_free_policy@@@@QEBA_NXZ 0000000140010e30 f i libucrtd:wsetlocale.obj
 0001:0000fe30       ??B?$__crt_unique_heap_ptr@U__vcrt_ptd@@U__crt_internal_free_policy@@@@QEBA_NXZ 0000000140010e30 f i libvcruntimed:per_thread_data.obj
 0001:0000fe50       ?__crt_interlocked_read_64@@YA_JPED_J@Z 0000000140010e50 f i libvcruntimed:std_type_info.obj
 0001:0000fe70       ??B?$__crt_scoped_stack_ptr@_W@@QEBA_NXZ 0000000140010e70 f i libucrtd:lcmapstringa.obj
 0001:0000fe70       ?is_valid@?$__crt_unique_heap_ptr@DU__crt_internal_free_policy@@@@QEBA_NXZ 0000000140010e70 f i libvcruntimed:std_type_info.obj
 0001:0000fe70       ?is_valid@?$__crt_unique_heap_ptr@DU__crt_public_free_policy@@@@QEBA_NXZ 0000000140010e70 f i libvcruntimed:std_exception.obj
 0001:0000fe70       ?is_valid@?$__crt_unique_heap_ptr@EU__crt_internal_free_policy@@@@QEBA_NXZ 0000000140010e70 f i libucrtd:argv_parsing.obj
 0001:0000fe70       ?is_valid@?$__crt_unique_heap_ptr@PEADU__crt_internal_free_policy@@@@QEBA_NXZ 0000000140010e70 f i libucrtd:environment_initialization.obj
 0001:0000fe70       ?is_valid@?$__crt_unique_heap_ptr@U__acrt_ptd@@U__crt_internal_free_policy@@@@QEBA_NXZ 0000000140010e70 f i libucrtd:per_thread_data.obj
 0001:0000fe70       ?is_valid@?$__crt_unique_heap_ptr@U__crt_lowio_handle_data@@U__crt_internal_free_policy@@@@QEBA_NXZ 0000000140010e70 f i libucrtd:osfinfo.obj
 0001:0000fe70       ?is_valid@?$__crt_unique_heap_ptr@U__crt_multibyte_data@@U__crt_internal_free_policy@@@@QEBA_NXZ 0000000140010e70 f i libucrtd:wsetlocale.obj
 0001:0000fe70       ?is_valid@?$__crt_unique_heap_ptr@U__vcrt_ptd@@U__crt_internal_free_policy@@@@QEBA_NXZ 0000000140010e70 f i libvcruntimed:per_thread_data.obj
 0001:0000fe70       ?valid@__crt_stdio_stream@@QEBA_NXZ 0000000140010e70 f i libucrtd:output.obj
 0001:0000fea0       ?release@?$__crt_unique_heap_ptr@DU__crt_internal_free_policy@@@@QEAAXXZ 0000000140010ea0 f i libvcruntimed:std_type_info.obj
 0001:0000fea0       ?release@?$__crt_unique_heap_ptr@U__vcrt_ptd@@U__crt_internal_free_policy@@@@QEAAXXZ 0000000140010ea0 f i libvcruntimed:per_thread_data.obj
 0001:0000fed0       __std_type_info_compare    0000000140010ed0 f   libvcruntimed:std_type_info.obj
 0001:0000ff10       __DestructExceptionObject  0000000140010f10 f   libvcruntimed:ehhelpers.obj
 0001:00010010       ?_CallMemberFunction0@@YAXQEAX0@Z 0000000140011010 f i libvcruntimed:ehhelpers.obj
 0001:000100f0       _IsExceptionObjectToBeDestroyed 00000001400110f0 f   libvcruntimed:ehhelpers.obj
 0001:00010140       __AdjustPointer            0000000140011140 f   libvcruntimed:ehhelpers.obj
 0001:000101c0       __FrameUnwindFilter        00000001400111c0 f   libvcruntimed:ehhelpers.obj
 0001:00010270       __current_exception        0000000140011270 f   libvcruntimed:ehhelpers.obj
 0001:00010290       __current_exception_context 0000000140011290 f   libvcruntimed:ehhelpers.obj
 0001:000102f0       ?detach@?$__crt_unique_heap_ptr@DU__crt_internal_free_policy@@@@QEAAPEADXZ 00000001400112f0 f i libucrtd:environment_initialization.obj
 0001:000102f0       ?detach@?$__crt_unique_heap_ptr@DU__crt_public_free_policy@@@@QEAAPEADXZ 00000001400112f0 f i libvcruntimed:std_exception.obj
 0001:000102f0       ?detach@?$__crt_unique_heap_ptr@EU__crt_internal_free_policy@@@@QEAAPEAEXZ 00000001400112f0 f i libucrtd:argv_parsing.obj
 0001:000102f0       ?detach@?$__crt_unique_heap_ptr@P6AXXZU__crt_internal_free_policy@@@@QEAAPEAP6AXXZXZ 00000001400112f0 f i libucrtd:onexit.obj
 0001:000102f0       ?detach@?$__crt_unique_heap_ptr@PEADU__crt_internal_free_policy@@@@QEAAPEAPEADXZ 00000001400112f0 f i libucrtd:argv_parsing.obj
 0001:000102f0       ?detach@?$__crt_unique_heap_ptr@PEAU__crt_stdio_stream_data@@U__crt_internal_free_policy@@@@QEAAPEAPEAU__crt_stdio_stream_data@@XZ 00000001400112f0 f i libucrtd:_file.obj
 0001:000102f0       ?detach@?$__crt_unique_heap_ptr@U__acrt_ptd@@U__crt_internal_free_policy@@@@QEAAPEAU__acrt_ptd@@XZ 00000001400112f0 f i libucrtd:per_thread_data.obj
 0001:000102f0       ?detach@?$__crt_unique_heap_ptr@U__crt_lowio_handle_data@@U__crt_internal_free_policy@@@@QEAAPEAU__crt_lowio_handle_data@@XZ 00000001400112f0 f i libucrtd:osfinfo.obj
 0001:000102f0       ?detach@?$__crt_unique_heap_ptr@U__crt_multibyte_data@@U__crt_internal_free_policy@@@@QEAAPEAU__crt_multibyte_data@@XZ 00000001400112f0 f i libucrtd:wsetlocale.obj
 0001:000102f0       ?detach@?$__crt_unique_heap_ptr@U__vcrt_ptd@@U__crt_internal_free_policy@@@@QEAAPEAU__vcrt_ptd@@XZ 00000001400112f0 f i libvcruntimed:per_thread_data.obj
 0001:00010360       __vcrt_freefls             0000000140011360 f   libvcruntimed:per_thread_data.obj
 0001:000103a0       __vcrt_getptd              00000001400113a0 f   libvcruntimed:per_thread_data.obj
 0001:000103d0       __vcrt_getptd_noexit       00000001400113d0 f   libvcruntimed:per_thread_data.obj
 0001:00010570       __vcrt_initialize_ptd      0000000140011570 f   libvcruntimed:per_thread_data.obj
 0001:000105c0       __vcrt_uninitialize_ptd    00000001400115c0 f   libvcruntimed:per_thread_data.obj
 0001:000105f0       ?GetCurrentState@__FrameHandler3@@SAHPEA_KPEAU_xDISPATCHER_CONTEXT@@PEBU_s_FuncInfo@@@Z 00000001400115f0 f   libvcruntimed:ehstate.obj
 0001:00010650       ?GetUnwindTryBlock@__FrameHandler3@@SAHPEA_KPEAU_xDISPATCHER_CONTEXT@@PEBU_s_FuncInfo@@@Z 0000000140011650 f   libvcruntimed:ehstate.obj
 0001:000106a0       ?SetState@__FrameHandler3@@SAXPEA_KPEBU_s_FuncInfo@@H@Z 00000001400116a0 f   libvcruntimed:ehstate.obj
 0001:000106d0       ?SetUnwindTryBlock@__FrameHandler3@@SAXPEA_KPEAU_xDISPATCHER_CONTEXT@@PEBU_s_FuncInfo@@H@Z 00000001400116d0 f   libvcruntimed:ehstate.obj
 0001:00010740       ?StateFromControlPc@__FrameHandler3@@SAHPEBU_s_FuncInfo@@PEAU_xDISPATCHER_CONTEXT@@@Z 0000000140011740 f   libvcruntimed:ehstate.obj
 0001:00010780       ?StateFromControlPc@__FrameHandler4@@SAHPEAUFuncInfo4@FH4@@PEAU_xDISPATCHER_CONTEXT@@@Z 0000000140011780 f   libvcruntimed:ehstate.obj
 0001:000107c0       ?StateFromIp@__FrameHandler3@@SAHPEBU_s_FuncInfo@@PEAU_xDISPATCHER_CONTEXT@@_K@Z 00000001400117c0 f   libvcruntimed:ehstate.obj
 0001:000108c0       ?StateFromIp@__FrameHandler4@@SAHPEAUFuncInfo4@FH4@@PEAU_xDISPATCHER_CONTEXT@@_K@Z 00000001400118c0 f   libvcruntimed:ehstate.obj
 0001:000109b0       ?__FuncRelToRealOffset@@YA_KPEAU_xDISPATCHER_CONTEXT@@I@Z 00000001400119b0 f i libvcruntimed:ehstate.obj
 0001:000109e0       ?__RVAtoRealOffset@@YA_KPEAU_xDISPATCHER_CONTEXT@@H@Z 00000001400119e0 f i libvcruntimed:ehstate.obj
 0001:00012c80       ??$TypeMatchHelper@V__FrameHandler3@@@@YAHPEBU_s_HandlerType@@PEBU_s_CatchableType@@PEBU_s_ThrowInfo@@@Z 0000000140013c80 f i libvcruntimed:frame.obj
 0001:00012e80       ??$TypeMatchHelper@V__FrameHandler4@@@@YAHPEAUHandlerType4@FH4@@PEBU_s_CatchableType@@PEBU_s_ThrowInfo@@@Z 0000000140013e80 f i libvcruntimed:frame.obj
 0001:00013090       ??$__InternalCxxFrameHandler@V__FrameHandler3@@@@YA?AW4_EXCEPTION_DISPOSITION@@PEAUEHExceptionRecord@@PEA_KPEAU_CONTEXT@@PEAU_xDISPATCHER_CONTEXT@@PEBU_s_FuncInfo@@H1E@Z 0000000140014090 f i libvcruntimed:frame.obj
 0001:00013510       ??$__InternalCxxFrameHandler@V__FrameHandler4@@@@YA?AW4_EXCEPTION_DISPOSITION@@PEAUEHExceptionRecord@@PEA_KPEAU_CONTEXT@@PEAU_xDISPATCHER_CONTEXT@@PEAUFuncInfo4@FH4@@H1E@Z 0000000140014510 f i libvcruntimed:frame.obj
 0001:000139b0       ??$__InternalCxxFrameHandlerWrapper@V__FrameHandler3@@@@YA?AW4_EXCEPTION_DISPOSITION@@PEAUEHExceptionRecord@@PEA_KPEAU_CONTEXT@@PEAU_xDISPATCHER_CONTEXT@@PEBU_s_FuncInfo@@H1E@Z 00000001400149b0 f i libvcruntimed:frame.obj
 0001:00013a20       ??$__InternalCxxFrameHandlerWrapper@V__FrameHandler4@@@@YA?AW4_EXCEPTION_DISPOSITION@@PEAUEHExceptionRecord@@PEA_KPEAU_CONTEXT@@PEAU_xDISPATCHER_CONTEXT@@PEAUFuncInfo4@FH4@@H1E@Z 0000000140014a20 f i libvcruntimed:frame.obj
 0001:00013ab0       ??0HandlerMap4@FH4@@QEAA@PEBUTryBlockMapEntry4@1@_KH@Z 0000000140014ab0 f i libvcruntimed:frame.obj
 0001:00013b90       ??0HandlerMap@__FrameHandler3@@QEAA@PEBU_s_TryBlockMapEntry@@_KI@Z 0000000140014b90 f i libvcruntimed:frame.obj
 0001:00013be0       ??0HandlerType4@FH4@@QEAA@XZ 0000000140014be0 f i libvcruntimed:frame.obj
 0001:00013c00       ??0TryBlockMap4@FH4@@QEAA@PEBUFuncInfo4@1@_K@Z 0000000140014c00 f i libvcruntimed:frame.obj
 0001:00013cc0       ??0TryBlockMap@__FrameHandler3@@QEAA@PEBU_s_FuncInfo@@_K@Z 0000000140014cc0 f i libvcruntimed:frame.obj
 0001:00013cc0       ??0iterator@UWMap4@FH4@@QEAA@AEAV12@PEAE@Z 0000000140014cc0 f i libvcruntimed:frame.obj
 0001:00013cf0       ??0UWMap4@FH4@@QEAA@PEBUFuncInfo4@1@_K@Z 0000000140014cf0 f i libvcruntimed:frame.obj
 0001:00013d80       ??0bad_exception@std@@QEAA@AEBV01@@Z 0000000140014d80 f i libvcruntimed:frame.obj
 0001:00013dc0       ??0bad_exception@std@@QEAA@XZ 0000000140014dc0 f i libvcruntimed:frame.obj
 0001:00013e00       ??0exception@std@@QEAA@AEBV01@@Z 0000000140014e00 f i libvcruntimed:frame.obj
 0001:00013e60       ??0exception@std@@QEAA@QEBDH@Z 0000000140014e60 f i libvcruntimed:frame.obj
 0001:00013eb0       ??1bad_exception@std@@UEAA@XZ 0000000140014eb0 f i libvcruntimed:frame.obj
 0001:00013ed0       ??1exception@std@@UEAA@XZ  0000000140014ed0 f i libvcruntimed:frame.obj
 0001:00013f00       ??4iterator@UWMap4@FH4@@QEAAAEAV012@AEBV012@@Z 0000000140014f00 f i libvcruntimed:frame.obj
 0001:00013f50       ??8iterator@HandlerMap4@FH4@@QEBA_NAEBV012@@Z 0000000140014f50 f i libvcruntimed:frame.obj
 0001:00013f50       ??8iterator@HandlerMap@__FrameHandler3@@QEBA_NAEBV012@@Z 0000000140014f50 f i libvcruntimed:frame.obj
 0001:00013f90       ??8type_info@@QEBA_NAEBV0@@Z 0000000140014f90 f i libvcruntimed:frame.obj
 0001:00014010       ??9iterator@HandlerMap4@FH4@@QEBA_NAEBV012@@Z 0000000140015010 f i libvcruntimed:frame.obj
 0001:00014010       ??9iterator@HandlerMap@__FrameHandler3@@QEBA_NAEBV012@@Z 0000000140015010 f i libvcruntimed:frame.obj
 0001:00014050       ??Diterator@HandlerMap4@FH4@@QEAA?AUHandlerType4@2@XZ 0000000140015050 f i libvcruntimed:frame.obj
 0001:00014080       ??Diterator@HandlerMap@__FrameHandler3@@QEAA?BU_s_HandlerType@@XZ 0000000140015080 f i libvcruntimed:frame.obj
 0001:000140c0       ??Diterator@TryBlockMap@__FrameHandler3@@QEAA?BU_s_TryBlockMapEntry@@XZ 00000001400150c0 f i libvcruntimed:frame.obj
 0001:00014110       ??Diterator@UWMap4@FH4@@QEAA?AUUnwindMapEntry4@2@XZ 0000000140015110 f i libvcruntimed:frame.obj
 0001:00014190       ??Eiterator@HandlerMap4@FH4@@QEAAAEAV012@XZ 0000000140015190 f i libvcruntimed:frame.obj
 0001:000141d0       ??Eiterator@HandlerMap@__FrameHandler3@@QEAAAEAV012@XZ 00000001400151d0 f i libvcruntimed:frame.obj
 0001:000141d0       ??Eiterator@TryBlockMap@__FrameHandler3@@QEAAAEAV012@XZ 00000001400151d0 f i libvcruntimed:frame.obj
 0001:000141f0       ??Eiterator@UWMap4@FH4@@QEAAAEAV012@XZ 00000001400151f0 f i libvcruntimed:frame.obj
 0001:00014230       ??Giterator@UWMap4@FH4@@QEBA_JAEBV012@@Z 0000000140015230 f i libvcruntimed:frame.obj
 0001:00014250       ??Miterator@TryBlockMap4@FH4@@QEBA_NAEBV012@@Z 0000000140015250 f i libvcruntimed:frame.obj
 0001:00014250       ??Miterator@TryBlockMap@__FrameHandler3@@QEBA_NAEBV012@@Z 0000000140015250 f i libvcruntimed:frame.obj
 0001:00014290       ??Oiterator@UWMap4@FH4@@QEBA_NAEBV012@@Z 0000000140015290 f i libvcruntimed:frame.obj
 0001:000142d0       ??Piterator@UWMap4@FH4@@QEBA_NAEBV012@@Z 00000001400152d0 f i libvcruntimed:frame.obj
 0001:00014310       ??_Ebad_exception@std@@UEAAPEAXI@Z 0000000140015310 f i libvcruntimed:frame.obj
 0001:00014310       ??_Gbad_exception@std@@UEAAPEAXI@Z 0000000140015310 f i libvcruntimed:frame.obj
 0001:00014350       ??_Eexception@std@@UEAAPEAXI@Z 0000000140015350 f i libvcruntimed:frame.obj
 0001:00014350       ??_Gexception@std@@UEAAPEAXI@Z 0000000140015350 f i libvcruntimed:frame.obj
 0001:00014390       ?BuildCatchObject@__FrameHandler3@@SAXPEAUEHExceptionRecord@@PEAXPEBU_s_HandlerType@@PEBU_s_CatchableType@@@Z 0000000140015390 f   libvcruntimed:frame.obj
 0001:000143d0       ?BuildCatchObject@__FrameHandler4@@SAXPEAUEHExceptionRecord@@PEAXPEAUHandlerType4@FH4@@PEBU_s_CatchableType@@@Z 00000001400153d0 f   libvcruntimed:frame.obj
 0001:00014410       ?CxxCallCatchBlock@__FrameHandler3@@SAPEAXPEAU_EXCEPTION_RECORD@@@Z 0000000140015410 f   libvcruntimed:frame.obj
 0001:00014670       ?CxxCallCatchBlock@__FrameHandler4@@SAPEAXPEAU_EXCEPTION_RECORD@@@Z 0000000140015670 f   libvcruntimed:frame.obj
 0001:000149a0       ?DecompHandler@HandlerMap4@FH4@@AEAAXXZ 00000001400159a0 f i libvcruntimed:frame.obj
 0001:00014d70       ?FrameUnwindToState@__FrameHandler3@@SAXPEA_KPEAU_xDISPATCHER_CONTEXT@@PEBU_s_FuncInfo@@H@Z 0000000140015d70 f   libvcruntimed:frame.obj
 0001:00014fc0       ?FrameUnwindToState@__FrameHandler4@@SAXPEA_KPEAU_xDISPATCHER_CONTEXT@@PEAUFuncInfo4@FH4@@H@Z 0000000140015fc0 f   libvcruntimed:frame.obj
 0001:000152e0       ?GetHandlerSearchState@__FrameHandler3@@SAHPEA_KPEAU_xDISPATCHER_CONTEXT@@PEBU_s_FuncInfo@@@Z 00000001400162e0 f i libvcruntimed:frame.obj
 0001:00015390       ?GetHandlerSearchState@__FrameHandler4@@SAHPEA_KPEAU_xDISPATCHER_CONTEXT@@PEAUFuncInfo4@FH4@@@Z 0000000140016390 f i libvcruntimed:frame.obj
 0001:00015420       ?GetMaxState@__FrameHandler3@@SAHPEAU_xDISPATCHER_CONTEXT@@PEBU_s_FuncInfo@@@Z 0000000140016420 f i libvcruntimed:frame.obj
 0001:00015440       ?GetMaxState@__FrameHandler4@@SAHPEAU_xDISPATCHER_CONTEXT@@PEAUFuncInfo4@FH4@@@Z 0000000140016440 f i libvcruntimed:frame.obj
 0001:00015670       ?ReadEntry@UWMap4@FH4@@AEAAXPEAPEAE@Z 0000000140016670 f i libvcruntimed:frame.obj
 0001:00015720       ?TypeMatch@__FrameHandler3@@SAHPEBU_s_HandlerType@@PEBU_s_CatchableType@@PEBU_s_ThrowInfo@@@Z 0000000140016720 f   libvcruntimed:frame.obj
 0001:00015720       __TypeMatch                0000000140016720 f   libvcruntimed:frame.obj
 0001:00015750       ?TypeMatch@__FrameHandler4@@SAHPEAUHandlerType4@FH4@@PEBU_s_CatchableType@@PEBU_s_ThrowInfo@@@Z 0000000140016750 f   libvcruntimed:frame.obj
 0001:00015780       ?WalkBack@UWMap4@FH4@@AEAAXPEAPEAE@Z 0000000140016780 f i libvcruntimed:frame.obj
 0001:000157d0       ?WalkBack@iterator@UWMap4@FH4@@QEAAXXZ 00000001400167d0 f i libvcruntimed:frame.obj
 0001:00015810       ?WalkForward@UWMap4@FH4@@AEAAXPEAPEAE@Z 0000000140016810 f i libvcruntimed:frame.obj
 0001:00015840       ?_CallMemberFunction1@@YAXQEAX00@Z 0000000140016840 f i libvcruntimed:frame.obj
 0001:00015880       ?_CallMemberFunction2@@YAXQEAX00H@Z 0000000140016880 f i libvcruntimed:frame.obj
 0001:00015910       ?begin@UWMap4@FH4@@QEAA?AViterator@12@XZ 0000000140016910 f i libvcruntimed:frame.obj
 0001:00015940       ?getESTypes@__FrameHandler3@@SAPEBU_s_ESTypeList@@PEBU_s_FuncInfo@@@Z 0000000140016940 f i libvcruntimed:frame.obj
 0001:00015980       ?getLastEntry@HandlerMap4@FH4@@QEAAPEAUHandlerType4@2@XZ 0000000140016980 f i libvcruntimed:frame.obj
 0001:000159c0       ?getLastEntry@HandlerMap@__FrameHandler3@@QEAAPEBU_s_HandlerType@@XZ 00000001400169c0 f i libvcruntimed:frame.obj
 0001:000159e0       ?getMagicNum@__FrameHandler3@@SAIPEBU_s_FuncInfo@@@Z 00000001400169e0 f i libvcruntimed:frame.obj
 0001:00015a00       ?getMagicNum@__FrameHandler4@@SAIPEAUFuncInfo4@FH4@@@Z 0000000140016a00 f i libvcruntimed:frame.obj
 0001:00015a10       ?getNumTryBlocks@TryBlockMap4@FH4@@QEAAIXZ 0000000140016a10 f i libvcruntimed:frame.obj
 0001:00015a10       ?unsafe_value@?$cached@H@__crt_cached_ptd_host@@QEAAHXZ 0000000140016a10 f i libucrtd:output.obj
 0001:00015a10       ?unsafe_value@?$cached@K@__crt_cached_ptd_host@@QEAAKXZ 0000000140016a10 f i libucrtd:output.obj
 0001:00015a20       ?getNumTryBlocks@TryBlockMap@__FrameHandler3@@QEAAIXZ 0000000140016a20 f i libvcruntimed:frame.obj
 0001:00015a40       ?getStartStop@UWMap4@FH4@@QEAAXHHAEAViterator@12@0@Z 0000000140016a40 f i libvcruntimed:frame.obj
 0001:00015b60       ?getStateFromIterators@UWMap4@FH4@@SAHAEBViterator@12@H0H0@Z 0000000140016b60 f i libvcruntimed:frame.obj
 0001:00015ca0       ?isEHs@__FrameHandler3@@SA_NPEBU_s_FuncInfo@@@Z 0000000140016ca0 f i libvcruntimed:frame.obj
 0001:00015ce0       ?isEHs@__FrameHandler4@@SA_NPEAUFuncInfo4@FH4@@@Z 0000000140016ce0 f i libvcruntimed:frame.obj
 0001:00015d00       ?isNoExcept@__FrameHandler3@@SA_NPEBU_s_FuncInfo@@@Z 0000000140016d00 f i libvcruntimed:frame.obj
 0001:00015d40       ?isNoExcept@__FrameHandler4@@SA_NPEAUFuncInfo4@FH4@@@Z 0000000140016d40 f i libvcruntimed:frame.obj
 0001:00015d60       ?reset@HandlerType4@FH4@@QEAAXXZ 0000000140016d60 f i libvcruntimed:frame.obj
 0001:00015dc0       ?resetBuffer@HandlerMap4@FH4@@QEAAXXZ 0000000140016dc0 f i libvcruntimed:frame.obj
 0001:00015de0       ?setBuffer@HandlerMap4@FH4@@QEAAXI@Z 0000000140016de0 f i libvcruntimed:frame.obj
 0001:00015e40       ?what@exception@std@@UEBAPEBDXZ 0000000140016e40 f i libvcruntimed:frame.obj
 0001:00015e80       __vcrt_EncodePointer       0000000140016e80 f i libvcruntimed:frame.obj
 0001:00015ed0       _NLG_Notify                0000000140016ed0 f   libvcruntimed:notify.obj
 0001:00015ef0       __NLG_Dispatch2            0000000140016ef0 f   libvcruntimed:notify.obj
 0001:00015f00       __NLG_Return2              0000000140016f00 f   libvcruntimed:notify.obj
 0001:00015f10       __except_validate_context_record 0000000140016f10 f   libvcruntimed:jbcxrval.obj
 0001:00015f70       __vcrt_initialize_locks    0000000140016f70 f   libvcruntimed:locks.obj
 0001:00015fe0       __vcrt_uninitialize_locks  0000000140016fe0 f   libvcruntimed:locks.obj
 0001:00016040       _vsprintf_s_l              0000000140017040 f i libvcruntimed:undname.obj
 0001:000160b0       sprintf_s                  00000001400170b0 f i libvcruntimed:undname.obj
 0001:00016110       ??$__crt_interlocked_exchange_pointer@UHINSTANCE__@@PEAU1@@@YAPEAUHINSTANCE__@@PEDSEAU0@QEAU0@@Z 0000000140017110 f i libvcruntimed:winapi_downlevel.obj
 0001:00016110       ??$__crt_interlocked_exchange_pointer@UHINSTANCE__@@PEAX@@YAPEAUHINSTANCE__@@PEDSEAU0@QEAX@Z 0000000140017110 f i libvcruntimed:winapi_downlevel.obj
 0001:00016110       ??$__crt_interlocked_exchange_pointer@XPEAX@@YAPEAXPEDSEAXQEAX@Z 0000000140017110 f i libvcruntimed:winapi_downlevel.obj
 0001:00016130       ??$__crt_interlocked_read_pointer@UHINSTANCE__@@@@YAPEAUHINSTANCE__@@PEDSEAU0@@Z 0000000140017130 f i libvcruntimed:winapi_downlevel.obj
 0001:00016130       ??$__crt_interlocked_read_pointer@X@@YAPEAXPEDSEAX@Z 0000000140017130 f i libvcruntimed:winapi_downlevel.obj
 0001:00016150       ?get_invalid_value@__crt_findfile_traits@@SAPEAXXZ 0000000140017150 f   libucrtd:argv_wildcards.obj
 0001:00016640       __vcrt_FlsAlloc            0000000140017640 f   libvcruntimed:winapi_downlevel.obj
 0001:00016690       __vcrt_FlsFree             0000000140017690 f   libvcruntimed:winapi_downlevel.obj
 0001:000166e0       __vcrt_FlsGetValue         00000001400176e0 f   libvcruntimed:winapi_downlevel.obj
 0001:00016730       __vcrt_FlsSetValue         0000000140017730 f   libvcruntimed:winapi_downlevel.obj
 0001:00016790       __vcrt_InitializeCriticalSectionEx 0000000140017790 f   libvcruntimed:winapi_downlevel.obj
 0001:00016840       _CallSettingFrame          0000000140017840 f   libvcruntimed:handlers.obj
 0001:00016880       _CallSettingFrame_LookupContinuationIndex 0000000140017880 f   libvcruntimed:handlers.obj
 0001:000168b0       _CallSettingFrame_NotifyContinuationAddr 00000001400178b0 f   libvcruntimed:handlers.obj
 0001:000168e0       _CallSettingFrameEncoded   00000001400178e0 f   libvcruntimed:handlers.obj
 0001:00016930       ??$?RD@__crt_public_free_policy@@QEBAXQEBD@Z 0000000140017930 f i libvcruntimed:std_exception.obj
 0001:00016950       ??1?$__crt_unique_heap_ptr@DU__crt_public_free_policy@@@@QEAA@XZ 0000000140017950 f i libvcruntimed:std_exception.obj
 0001:00016970       ?release@?$__crt_unique_heap_ptr@DU__crt_public_free_policy@@@@QEAAXXZ 0000000140017970 f i libvcruntimed:std_exception.obj
 0001:000169a0       __std_exception_copy       00000001400179a0 f   libvcruntimed:std_exception.obj
 0001:00016ae0       __std_exception_destroy    0000000140017ae0 f   libvcruntimed:std_exception.obj
 0001:00016b20       _CxxThrowException         0000000140017b20 f   libvcruntimed:throw.obj
 0001:00016c60       ??$?0AEBV?$string_output_adapter@D@__crt_stdio_output@@AEB_KAEBQEBDAEAV__crt_cached_ptd_host@@AEBQEAD@?$format_validation_base@DV?$string_output_adapter@D@__crt_stdio_output@@@__crt_stdio_output@@IEAA@AEBV?$string_output_adapter@D@1@AEB_KAEBQEBDAEAV__crt_cached_ptd_host@@AEBQEAD@Z 0000000140017c60 f i libucrtd:output.obj
 0001:00016cb0       ??$?0AEBV?$string_output_adapter@D@__crt_stdio_output@@AEB_KAEBQEBDAEAV__crt_cached_ptd_host@@AEBQEAD@?$standard_base@DV?$string_output_adapter@D@__crt_stdio_output@@@__crt_stdio_output@@IEAA@AEBV?$string_output_adapter@D@1@AEB_KAEBQEBDAEAV__crt_cached_ptd_host@@AEBQEAD@Z 0000000140017cb0 f i libucrtd:output.obj
 0001:00016d20       ??$?0AEBV?$string_output_adapter@_W@__crt_stdio_output@@AEB_KAEBQEB_WAEAV__crt_cached_ptd_host@@AEBQEAD@?$format_validation_base@_WV?$string_output_adapter@_W@__crt_stdio_output@@@__crt_stdio_output@@IEAA@AEBV?$string_output_adapter@_W@1@AEB_KAEBQEB_WAEAV__crt_cached_ptd_host@@AEBQEAD@Z 0000000140017d20 f i libucrtd:output.obj
 0001:00016d70       ??$?0AEBV?$string_output_adapter@_W@__crt_stdio_output@@AEB_KAEBQEB_WAEAV__crt_cached_ptd_host@@AEBQEAD@?$standard_base@_WV?$string_output_adapter@_W@__crt_stdio_output@@@__crt_stdio_output@@IEAA@AEBV?$string_output_adapter@_W@1@AEB_KAEBQEB_WAEAV__crt_cached_ptd_host@@AEBQEAD@Z 0000000140017d70 f i libucrtd:output.obj
 0001:00016de0       ??$__crt_interlocked_read@J@@YAJPEDJ@Z 0000000140017de0 f i libucrtd:output.obj
 0001:00016e00       ??$_tcstol_internal@DPEAPEAD$0A@@@YAJAEAV__crt_cached_ptd_host@@QEBDQEAPEADH@Z 0000000140017e00 f i libucrtd:output.obj
 0001:00016e50       ??$_tcstol_internal@_WPEAPEA_W$0A@@@YAJAEAV__crt_cached_ptd_host@@QEB_WQEAPEA_WH@Z 0000000140017e50 f i libucrtd:output.obj
 0001:00018ee0       ??$count@D@formatting_buffer@__crt_stdio_output@@QEBA_KXZ 0000000140019ee0 f i libucrtd:output.obj
 0001:00018f30       ??$count@_W@formatting_buffer@__crt_stdio_output@@QEBA_KXZ 0000000140019f30 f i libucrtd:output.obj
 0001:00018f80       ??$data@D@formatting_buffer@__crt_stdio_output@@QEAAPEADXZ 0000000140019f80 f i libucrtd:output.obj
 0001:00018f80       ??$data@_W@formatting_buffer@__crt_stdio_output@@QEAAPEA_WXZ 0000000140019f80 f i libucrtd:output.obj
 0001:00018fd0       ??$ensure_buffer_is_big_enough@D@formatting_buffer@__crt_stdio_output@@QEAA_N_KAEAV__crt_cached_ptd_host@@@Z 0000000140019fd0 f i libucrtd:output.obj
 0001:00019110       ??$ensure_buffer_is_big_enough@_W@formatting_buffer@__crt_stdio_output@@QEAA_N_KAEAV__crt_cached_ptd_host@@@Z 000000014001a110 f i libucrtd:output.obj
 0001:00019250       ??$extract_argument_from_va_list@C_J@?$standard_base@DV?$string_output_adapter@D@__crt_stdio_output@@@__crt_stdio_output@@IEAA_NAEA_J@Z 000000014001a250 f i libucrtd:output.obj
 0001:00019250       ??$extract_argument_from_va_list@C_J@?$standard_base@_WV?$string_output_adapter@_W@__crt_stdio_output@@@__crt_stdio_output@@IEAA_NAEA_J@Z 000000014001a250 f i libucrtd:output.obj
 0001:00019290       ??$extract_argument_from_va_list@E_J@?$standard_base@DV?$string_output_adapter@D@__crt_stdio_output@@@__crt_stdio_output@@IEAA_NAEA_J@Z 000000014001a290 f i libucrtd:output.obj
 0001:00019290       ??$extract_argument_from_va_list@E_J@?$standard_base@_WV?$string_output_adapter@_W@__crt_stdio_output@@@__crt_stdio_output@@IEAA_NAEA_J@Z 000000014001a290 f i libucrtd:output.obj
 0001:000192d0       ??$extract_argument_from_va_list@F_J@?$standard_base@DV?$string_output_adapter@D@__crt_stdio_output@@@__crt_stdio_output@@IEAA_NAEA_J@Z 000000014001a2d0 f i libucrtd:output.obj
 0001:000192d0       ??$extract_argument_from_va_list@F_J@?$standard_base@_WV?$string_output_adapter@_W@__crt_stdio_output@@@__crt_stdio_output@@IEAA_NAEA_J@Z 000000014001a2d0 f i libucrtd:output.obj
 0001:00019310       ??$extract_argument_from_va_list@GD@?$standard_base@DV?$string_output_adapter@D@__crt_stdio_output@@@__crt_stdio_output@@IEAA_NAEAD@Z 000000014001a310 f i libucrtd:output.obj
 0001:00019340       ??$extract_argument_from_va_list@G_J@?$standard_base@DV?$string_output_adapter@D@__crt_stdio_output@@@__crt_stdio_output@@IEAA_NAEA_J@Z 000000014001a340 f i libucrtd:output.obj
 0001:00019340       ??$extract_argument_from_va_list@G_J@?$standard_base@_WV?$string_output_adapter@_W@__crt_stdio_output@@@__crt_stdio_output@@IEAA_NAEA_J@Z 000000014001a340 f i libucrtd:output.obj
 0001:00019380       ??$extract_argument_from_va_list@H_J@?$standard_base@DV?$string_output_adapter@D@__crt_stdio_output@@@__crt_stdio_output@@IEAA_NAEA_J@Z 000000014001a380 f i libucrtd:output.obj
 0001:00019380       ??$extract_argument_from_va_list@H_J@?$standard_base@_WV?$string_output_adapter@_W@__crt_stdio_output@@@__crt_stdio_output@@IEAA_NAEA_J@Z 000000014001a380 f i libucrtd:output.obj
 0001:000193b0       ??$extract_argument_from_va_list@I_J@?$standard_base@DV?$string_output_adapter@D@__crt_stdio_output@@@__crt_stdio_output@@IEAA_NAEA_J@Z 000000014001a3b0 f i libucrtd:output.obj
 0001:000193b0       ??$extract_argument_from_va_list@I_J@?$standard_base@_WV?$string_output_adapter@_W@__crt_stdio_output@@@__crt_stdio_output@@IEAA_NAEA_J@Z 000000014001a3b0 f i libucrtd:output.obj
 0001:000193e0       ??$extract_argument_from_va_list@PEADPEAD@?$standard_base@DV?$string_output_adapter@D@__crt_stdio_output@@@__crt_stdio_output@@IEAA_NAEAPEAD@Z 000000014001a3e0 f i libucrtd:output.obj
 0001:000193e0       ??$extract_argument_from_va_list@PEADPEAD@?$standard_base@_WV?$string_output_adapter@_W@__crt_stdio_output@@@__crt_stdio_output@@IEAA_NAEAPEAD@Z 000000014001a3e0 f i libucrtd:output.obj
 0001:000193e0       ??$extract_argument_from_va_list@PEAUansi_string@?1??type_case_Z@?$output_processor@DV?$string_output_adapter@D@__crt_stdio_output@@V?$format_validation_base@DV?$string_output_adapter@D@__crt_stdio_output@@@2@@__crt_stdio_output@@AEAA_NXZ@PEAU1?1??234@AEAA_NXZ@@?$standard_base@DV?$string_output_adapter@D@__crt_stdio_output@@@__crt_stdio_output@@IEAA_NAEAPEAUansi_string@?1??type_case_Z@?$output_processor@DV?$string_output_adapter@D@__crt_stdio_output@@V?$format_validation_base@DV?$string_output_adapter@D@__crt_stdio_output@@@2@@1@AEAA_NXZ@@Z 000000014001a3e0 f i libucrtd:output.obj
 0001:000193e0       ??$extract_argument_from_va_list@PEAUansi_string@?1??type_case_Z@?$output_processor@DV?$string_output_adapter@D@__crt_stdio_output@@V?$standard_base@DV?$string_output_adapter@D@__crt_stdio_output@@@2@@__crt_stdio_output@@AEAA_NXZ@PEAU1?1??234@AEAA_NXZ@@?$standard_base@DV?$string_output_adapter@D@__crt_stdio_output@@@__crt_stdio_output@@IEAA_NAEAPEAUansi_string@?1??type_case_Z@?$output_processor@DV?$string_output_adapter@D@__crt_stdio_output@@V?$standard_base@DV?$string_output_adapter@D@__crt_stdio_output@@@2@@1@AEAA_NXZ@@Z 000000014001a3e0 f i libucrtd:output.obj
 0001:000193e0       ??$extract_argument_from_va_list@PEAUansi_string@?1??type_case_Z@?$output_processor@_WV?$string_output_adapter@_W@__crt_stdio_output@@V?$format_validation_base@_WV?$string_output_adapter@_W@__crt_stdio_output@@@2@@__crt_stdio_output@@AEAA_NXZ@PEAU1?1??234@AEAA_NXZ@@?$standard_base@_WV?$string_output_adapter@_W@__crt_stdio_output@@@__crt_stdio_output@@IEAA_NAEAPEAUansi_string@?1??type_case_Z@?$output_processor@_WV?$string_output_adapter@_W@__crt_stdio_output@@V?$format_validation_base@_WV?$string_output_adapter@_W@__crt_stdio_output@@@2@@1@AEAA_NXZ@@Z 000000014001a3e0 f i libucrtd:output.obj
 0001:000193e0       ??$extract_argument_from_va_list@PEAXPEAX@?$standard_base@DV?$string_output_adapter@D@__crt_stdio_output@@@__crt_stdio_output@@IEAA_NAEAPEAX@Z 000000014001a3e0 f i libucrtd:output.obj
 0001:000193e0       ??$extract_argument_from_va_list@PEAXPEAX@?$standard_base@_WV?$string_output_adapter@_W@__crt_stdio_output@@@__crt_stdio_output@@IEAA_NAEAPEAX@Z 000000014001a3e0 f i libucrtd:output.obj
 0001:000193e0       ??$extract_argument_from_va_list@_J_J@?$standard_base@DV?$string_output_adapter@D@__crt_stdio_output@@@__crt_stdio_output@@IEAA_NAEA_J@Z 000000014001a3e0 f i libucrtd:output.obj
 0001:000193e0       ??$extract_argument_from_va_list@_J_J@?$standard_base@_WV?$string_output_adapter@_W@__crt_stdio_output@@@__crt_stdio_output@@IEAA_NAEA_J@Z 000000014001a3e0 f i libucrtd:output.obj
 0001:000193e0       ??$extract_argument_from_va_list@_K_J@?$standard_base@DV?$string_output_adapter@D@__crt_stdio_output@@@__crt_stdio_output@@IEAA_NAEA_J@Z 000000014001a3e0 f i libucrtd:output.obj
 0001:000193e0       ??$extract_argument_from_va_list@_K_J@?$standard_base@_WV?$string_output_adapter@_W@__crt_stdio_output@@@__crt_stdio_output@@IEAA_NAEA_J@Z 000000014001a3e0 f i libucrtd:output.obj
 0001:00019410       ??$extract_argument_from_va_list@U_CRT_DOUBLE@@U1@@?$standard_base@DV?$string_output_adapter@D@__crt_stdio_output@@@__crt_stdio_output@@IEAA_NAEAU_CRT_DOUBLE@@@Z 000000014001a410 f i libucrtd:output.obj
 0001:00019410       ??$extract_argument_from_va_list@U_CRT_DOUBLE@@U1@@?$standard_base@_WV?$string_output_adapter@_W@__crt_stdio_output@@@__crt_stdio_output@@IEAA_NAEAU_CRT_DOUBLE@@@Z 000000014001a410 f i libucrtd:output.obj
 0001:00019460       ??$extract_argument_from_va_list@_W_W@?$standard_base@DV?$string_output_adapter@D@__crt_stdio_output@@@__crt_stdio_output@@IEAA_NAEA_W@Z 000000014001a460 f i libucrtd:output.obj
 0001:00019460       ??$extract_argument_from_va_list@_W_W@?$standard_base@_WV?$string_output_adapter@_W@__crt_stdio_output@@@__crt_stdio_output@@IEAA_NAEA_W@Z 000000014001a460 f i libucrtd:output.obj
 0001:00019490       ??$is_overflow_condition@K@__crt_strtox@@YA_NIK@Z 000000014001a490 f i libucrtd:output.obj
 0001:00019500       ??$is_wide_character_specifier@D@__crt_stdio_output@@YA_N_KDW4length_modifier@0@@Z 000000014001a500 f i libucrtd:output.obj
 0001:000195a0       ??$is_wide_character_specifier@_W@__crt_stdio_output@@YA_N_K_WW4length_modifier@0@@Z 000000014001a5a0 f i libucrtd:output.obj
 0001:00019670       ??$make_c_string_character_source@DPEAPEAD@__crt_strtox@@YA?AV?$c_string_character_source@D@0@QEBDQEAPEAD@Z 000000014001a670 f i libucrtd:output.obj
 0001:00019670       ??$make_c_string_character_source@_WPEAPEA_W@__crt_strtox@@YA?AV?$c_string_character_source@_W@0@QEB_WQEAPEA_W@Z 000000014001a670 f i libucrtd:output.obj
 0001:000196b0       ??$parse_integer@KV?$c_string_character_source@D@__crt_strtox@@$0A@@__crt_strtox@@YAKAEAV__crt_cached_ptd_host@@V?$c_string_character_source@D@0@H_N@Z 000000014001a6b0 f i libucrtd:output.obj
 0001:00019b30       ??$parse_integer@KV?$c_string_character_source@_W@__crt_strtox@@$0A@@__crt_strtox@@YAKAEAV__crt_cached_ptd_host@@V?$c_string_character_source@_W@0@H_N@Z 000000014001ab30 f i libucrtd:output.obj
 0001:00019fb0       ??$read_va_arg@C@__crt_stdio_output@@YACAEAPEAD@Z 000000014001afb0 f i libucrtd:output.obj
 0001:00019fb0       ??$read_va_arg@E@__crt_stdio_output@@YAEAEAPEAD@Z 000000014001afb0 f i libucrtd:output.obj
 0001:0001a020       ??$read_va_arg@F@__crt_stdio_output@@YAFAEAPEAD@Z 000000014001b020 f i libucrtd:output.obj
 0001:0001a020       ??$read_va_arg@G@__crt_stdio_output@@YAGAEAPEAD@Z 000000014001b020 f i libucrtd:output.obj
 0001:0001a020       ??$read_va_arg@_W@__crt_stdio_output@@YA_WAEAPEAD@Z 000000014001b020 f i libucrtd:output.obj
 0001:0001a090       ??$read_va_arg@H@__crt_stdio_output@@YAHAEAPEAD@Z 000000014001b090 f i libucrtd:output.obj
 0001:0001a090       ??$read_va_arg@I@__crt_stdio_output@@YAIAEAPEAD@Z 000000014001b090 f i libucrtd:output.obj
 0001:0001a0f0       ??$read_va_arg@PEAD@__crt_stdio_output@@YAPEADAEAPEAD@Z 000000014001b0f0 f i libucrtd:output.obj
 0001:0001a0f0       ??$read_va_arg@PEAUansi_string@?1??type_case_Z@?$output_processor@DV?$string_output_adapter@D@__crt_stdio_output@@V?$format_validation_base@DV?$string_output_adapter@D@__crt_stdio_output@@@2@@__crt_stdio_output@@AEAA_NXZ@@__crt_stdio_output@@YAPEAUansi_string@?1??type_case_Z@?$output_processor@DV?$string_output_adapter@D@__crt_stdio_output@@V?$format_validation_base@DV?$string_output_adapter@D@__crt_stdio_output@@@2@@0@AEAA_NXZ@AEAPEAD@Z 000000014001b0f0 f i libucrtd:output.obj
 0001:0001a0f0       ??$read_va_arg@PEAUansi_string@?1??type_case_Z@?$output_processor@DV?$string_output_adapter@D@__crt_stdio_output@@V?$standard_base@DV?$string_output_adapter@D@__crt_stdio_output@@@2@@__crt_stdio_output@@AEAA_NXZ@@__crt_stdio_output@@YAPEAUansi_string@?1??type_case_Z@?$output_processor@DV?$string_output_adapter@D@__crt_stdio_output@@V?$standard_base@DV?$string_output_adapter@D@__crt_stdio_output@@@2@@0@AEAA_NXZ@AEAPEAD@Z 000000014001b0f0 f i libucrtd:output.obj
 0001:0001a0f0       ??$read_va_arg@PEAUansi_string@?1??type_case_Z@?$output_processor@_WV?$string_output_adapter@_W@__crt_stdio_output@@V?$format_validation_base@_WV?$string_output_adapter@_W@__crt_stdio_output@@@2@@__crt_stdio_output@@AEAA_NXZ@@__crt_stdio_output@@YAPEAUansi_string@?1??type_case_Z@?$output_processor@_WV?$string_output_adapter@_W@__crt_stdio_output@@V?$format_validation_base@_WV?$string_output_adapter@_W@__crt_stdio_output@@@2@@0@AEAA_NXZ@AEAPEAD@Z 000000014001b0f0 f i libucrtd:output.obj
 0001:0001a0f0       ??$read_va_arg@PEAX@__crt_stdio_output@@YAPEAXAEAPEAD@Z 000000014001b0f0 f i libucrtd:output.obj
 0001:0001a0f0       ??$read_va_arg@U_CRT_DOUBLE@@@__crt_stdio_output@@YA?AU_CRT_DOUBLE@@AEAPEAD@Z 000000014001b0f0 f i libucrtd:output.obj
 0001:0001a0f0       ??$read_va_arg@_J@__crt_stdio_output@@YA_JAEAPEAD@Z 000000014001b0f0 f i libucrtd:output.obj
 0001:0001a0f0       ??$read_va_arg@_K@__crt_stdio_output@@YA_KAEAPEAD@Z 000000014001b0f0 f i libucrtd:output.obj
 0001:0001a160       ??$scratch_count@D@formatting_buffer@__crt_stdio_output@@QEBA_KXZ 000000014001b160 f i libucrtd:output.obj
 0001:0001a180       ??$scratch_data@D@formatting_buffer@__crt_stdio_output@@QEAAPEADXZ 000000014001b180 f i libucrtd:output.obj
 0001:0001a1f0       ??$type_case_integer@$07@?$output_processor@DV?$string_output_adapter@D@__crt_stdio_output@@V?$format_validation_base@DV?$string_output_adapter@D@__crt_stdio_output@@@2@@__crt_stdio_output@@AEAA_N_N@Z 000000014001b1f0 f i libucrtd:output.obj
 0001:0001a670       ??$type_case_integer@$07@?$output_processor@DV?$string_output_adapter@D@__crt_stdio_output@@V?$standard_base@DV?$string_output_adapter@D@__crt_stdio_output@@@2@@__crt_stdio_output@@AEAA_N_N@Z 000000014001b670 f i libucrtd:output.obj
 0001:0001aaf0       ??$type_case_integer@$07@?$output_processor@_WV?$string_output_adapter@_W@__crt_stdio_output@@V?$format_validation_base@_WV?$string_output_adapter@_W@__crt_stdio_output@@@2@@__crt_stdio_output@@AEAA_N_N@Z 000000014001baf0 f i libucrtd:output.obj
 0001:0001af70       ??$type_case_integer@$09@?$output_processor@DV?$string_output_adapter@D@__crt_stdio_output@@V?$format_validation_base@DV?$string_output_adapter@D@__crt_stdio_output@@@2@@__crt_stdio_output@@AEAA_N_N@Z 000000014001bf70 f i libucrtd:output.obj
 0001:0001b3f0       ??$type_case_integer@$09@?$output_processor@DV?$string_output_adapter@D@__crt_stdio_output@@V?$standard_base@DV?$string_output_adapter@D@__crt_stdio_output@@@2@@__crt_stdio_output@@AEAA_N_N@Z 000000014001c3f0 f i libucrtd:output.obj
 0001:0001b870       ??$type_case_integer@$09@?$output_processor@_WV?$string_output_adapter@_W@__crt_stdio_output@@V?$format_validation_base@_WV?$string_output_adapter@_W@__crt_stdio_output@@@2@@__crt_stdio_output@@AEAA_N_N@Z 000000014001c870 f i libucrtd:output.obj
 0001:0001bcf0       ??$type_case_integer@$0BA@@?$output_processor@DV?$string_output_adapter@D@__crt_stdio_output@@V?$format_validation_base@DV?$string_output_adapter@D@__crt_stdio_output@@@2@@__crt_stdio_output@@AEAA_N_N@Z 000000014001ccf0 f i libucrtd:output.obj
 0001:0001c170       ??$type_case_integer@$0BA@@?$output_processor@DV?$string_output_adapter@D@__crt_stdio_output@@V?$standard_base@DV?$string_output_adapter@D@__crt_stdio_output@@@2@@__crt_stdio_output@@AEAA_N_N@Z 000000014001d170 f i libucrtd:output.obj
 0001:0001c5f0       ??$type_case_integer@$0BA@@?$output_processor@_WV?$string_output_adapter@_W@__crt_stdio_output@@V?$format_validation_base@_WV?$string_output_adapter@_W@__crt_stdio_output@@@2@@__crt_stdio_output@@AEAA_N_N@Z 000000014001d5f0 f i libucrtd:output.obj
 0001:0001ca70       ??$type_case_integer_parse_into_buffer@I$07@?$output_processor@DV?$string_output_adapter@D@__crt_stdio_output@@V?$format_validation_base@DV?$string_output_adapter@D@__crt_stdio_output@@@2@@__crt_stdio_output@@AEAAXI_N@Z 000000014001da70 f i libucrtd:output.obj
 0001:0001ca70       ??$type_case_integer_parse_into_buffer@I$07@?$output_processor@DV?$string_output_adapter@D@__crt_stdio_output@@V?$standard_base@DV?$string_output_adapter@D@__crt_stdio_output@@@2@@__crt_stdio_output@@AEAAXI_N@Z 000000014001da70 f i libucrtd:output.obj
 0001:0001cba0       ??$type_case_integer_parse_into_buffer@I$07@?$output_processor@_WV?$string_output_adapter@_W@__crt_stdio_output@@V?$format_validation_base@_WV?$string_output_adapter@_W@__crt_stdio_output@@@2@@__crt_stdio_output@@AEAAXI_N@Z 000000014001dba0 f i libucrtd:output.obj
 0001:0001cce0       ??$type_case_integer_parse_into_buffer@I$09@?$output_processor@DV?$string_output_adapter@D@__crt_stdio_output@@V?$format_validation_base@DV?$string_output_adapter@D@__crt_stdio_output@@@2@@__crt_stdio_output@@AEAAXI_N@Z 000000014001dce0 f i libucrtd:output.obj
 0001:0001cce0       ??$type_case_integer_parse_into_buffer@I$09@?$output_processor@DV?$string_output_adapter@D@__crt_stdio_output@@V?$standard_base@DV?$string_output_adapter@D@__crt_stdio_output@@@2@@__crt_stdio_output@@AEAAXI_N@Z 000000014001dce0 f i libucrtd:output.obj
 0001:0001ce10       ??$type_case_integer_parse_into_buffer@I$09@?$output_processor@_WV?$string_output_adapter@_W@__crt_stdio_output@@V?$format_validation_base@_WV?$string_output_adapter@_W@__crt_stdio_output@@@2@@__crt_stdio_output@@AEAAXI_N@Z 000000014001de10 f i libucrtd:output.obj
 0001:0001cf50       ??$type_case_integer_parse_into_buffer@I$0BA@@?$output_processor@DV?$string_output_adapter@D@__crt_stdio_output@@V?$format_validation_base@DV?$string_output_adapter@D@__crt_stdio_output@@@2@@__crt_stdio_output@@AEAAXI_N@Z 000000014001df50 f i libucrtd:output.obj
 0001:0001cf50       ??$type_case_integer_parse_into_buffer@I$0BA@@?$output_processor@DV?$string_output_adapter@D@__crt_stdio_output@@V?$standard_base@DV?$string_output_adapter@D@__crt_stdio_output@@@2@@__crt_stdio_output@@AEAAXI_N@Z 000000014001df50 f i libucrtd:output.obj
 0001:0001d080       ??$type_case_integer_parse_into_buffer@I$0BA@@?$output_processor@_WV?$string_output_adapter@_W@__crt_stdio_output@@V?$format_validation_base@_WV?$string_output_adapter@_W@__crt_stdio_output@@@2@@__crt_stdio_output@@AEAAXI_N@Z 000000014001e080 f i libucrtd:output.obj
 0001:0001d1c0       ??$type_case_integer_parse_into_buffer@_K$07@?$output_processor@DV?$string_output_adapter@D@__crt_stdio_output@@V?$format_validation_base@DV?$string_output_adapter@D@__crt_stdio_output@@@2@@__crt_stdio_output@@AEAAX_K_N@Z 000000014001e1c0 f i libucrtd:output.obj
 0001:0001d1c0       ??$type_case_integer_parse_into_buffer@_K$07@?$output_processor@DV?$string_output_adapter@D@__crt_stdio_output@@V?$standard_base@DV?$string_output_adapter@D@__crt_stdio_output@@@2@@__crt_stdio_output@@AEAAX_K_N@Z 000000014001e1c0 f i libucrtd:output.obj
 0001:0001d300       ??$type_case_integer_parse_into_buffer@_K$07@?$output_processor@_WV?$string_output_adapter@_W@__crt_stdio_output@@V?$format_validation_base@_WV?$string_output_adapter@_W@__crt_stdio_output@@@2@@__crt_stdio_output@@AEAAX_K_N@Z 000000014001e300 f i libucrtd:output.obj
 0001:0001d440       ??$type_case_integer_parse_into_buffer@_K$09@?$output_processor@DV?$string_output_adapter@D@__crt_stdio_output@@V?$format_validation_base@DV?$string_output_adapter@D@__crt_stdio_output@@@2@@__crt_stdio_output@@AEAAX_K_N@Z 000000014001e440 f i libucrtd:output.obj
 0001:0001d440       ??$type_case_integer_parse_into_buffer@_K$09@?$output_processor@DV?$string_output_adapter@D@__crt_stdio_output@@V?$standard_base@DV?$string_output_adapter@D@__crt_stdio_output@@@2@@__crt_stdio_output@@AEAAX_K_N@Z 000000014001e440 f i libucrtd:output.obj
 0001:0001d580       ??$type_case_integer_parse_into_buffer@_K$09@?$output_processor@_WV?$string_output_adapter@_W@__crt_stdio_output@@V?$format_validation_base@_WV?$string_output_adapter@_W@__crt_stdio_output@@@2@@__crt_stdio_output@@AEAAX_K_N@Z 000000014001e580 f i libucrtd:output.obj
 0001:0001d6c0       ??$type_case_integer_parse_into_buffer@_K$0BA@@?$output_processor@DV?$string_output_adapter@D@__crt_stdio_output@@V?$format_validation_base@DV?$string_output_adapter@D@__crt_stdio_output@@@2@@__crt_stdio_output@@AEAAX_K_N@Z 000000014001e6c0 f i libucrtd:output.obj
 0001:0001d6c0       ??$type_case_integer_parse_into_buffer@_K$0BA@@?$output_processor@DV?$string_output_adapter@D@__crt_stdio_output@@V?$standard_base@DV?$string_output_adapter@D@__crt_stdio_output@@@2@@__crt_stdio_output@@AEAAX_K_N@Z 000000014001e6c0 f i libucrtd:output.obj
 0001:0001d800       ??$type_case_integer_parse_into_buffer@_K$0BA@@?$output_processor@_WV?$string_output_adapter@_W@__crt_stdio_output@@V?$format_validation_base@_WV?$string_output_adapter@_W@__crt_stdio_output@@@2@@__crt_stdio_output@@AEAAX_K_N@Z 000000014001e800 f i libucrtd:output.obj
 0001:0001d940       ??$write_multiple_characters@V?$string_output_adapter@D@__crt_stdio_output@@D@__crt_stdio_output@@YAXAEBV?$string_output_adapter@D@0@DHQEAHAEAV__crt_cached_ptd_host@@@Z 000000014001e940 f i libucrtd:output.obj
 0001:0001d9b0       ??$write_multiple_characters@V?$string_output_adapter@_W@__crt_stdio_output@@D@__crt_stdio_output@@YAXAEBV?$string_output_adapter@_W@0@DHQEAHAEAV__crt_cached_ptd_host@@@Z 000000014001e9b0 f i libucrtd:output.obj
 0001:0001da20       ??0?$c_string_character_source@D@__crt_strtox@@QEAA@QEBDQEAPEBD@Z 000000014001ea20 f i libucrtd:output.obj
 0001:0001da20       ??0?$c_string_character_source@_W@__crt_strtox@@QEAA@QEB_WQEAPEB_W@Z 000000014001ea20 f i libucrtd:output.obj
 0001:0001da70       ??0?$cached@H@__crt_cached_ptd_host@@QEAA@XZ 000000014001ea70 f i libucrtd:output.obj
 0001:0001da70       ??0?$cached@K@__crt_cached_ptd_host@@QEAA@XZ 000000014001ea70 f i libucrtd:output.obj
 0001:0001da90       ??0?$common_data@D@__crt_stdio_output@@IEAA@AEAV__crt_cached_ptd_host@@@Z 000000014001ea90 f i libucrtd:output.obj
 0001:0001db50       ??0?$common_data@_W@__crt_stdio_output@@IEAA@AEAV__crt_cached_ptd_host@@@Z 000000014001eb50 f i libucrtd:output.obj
 0001:0001dc10       ??0?$output_adapter_data@DV?$string_output_adapter@D@__crt_stdio_output@@@__crt_stdio_output@@IEAA@AEBV?$string_output_adapter@D@1@_KQEBDAEAV__crt_cached_ptd_host@@QEAD@Z 000000014001ec10 f i libucrtd:output.obj
 0001:0001dc90       ??0?$output_adapter_data@_WV?$string_output_adapter@_W@__crt_stdio_output@@@__crt_stdio_output@@IEAA@AEBV?$string_output_adapter@_W@1@_KQEB_WAEAV__crt_cached_ptd_host@@QEAD@Z 000000014001ec90 f i libucrtd:output.obj
 0001:0001dd10       ??0?$output_processor@DV?$string_output_adapter@D@__crt_stdio_output@@V?$format_validation_base@DV?$string_output_adapter@D@__crt_stdio_output@@@2@@__crt_stdio_output@@QEAA@AEBV?$string_output_adapter@D@1@_KQEBDAEAV__crt_cached_ptd_host@@QEAD@Z 000000014001ed10 f i libucrtd:output.obj
 0001:0001dd60       ??0?$output_processor@DV?$string_output_adapter@D@__crt_stdio_output@@V?$standard_base@DV?$string_output_adapter@D@__crt_stdio_output@@@2@@__crt_stdio_output@@QEAA@AEBV?$string_output_adapter@D@1@_KQEBDAEAV__crt_cached_ptd_host@@QEAD@Z 000000014001ed60 f i libucrtd:output.obj
 0001:0001ddb0       ??0?$output_processor@_WV?$string_output_adapter@_W@__crt_stdio_output@@V?$format_validation_base@_WV?$string_output_adapter@_W@__crt_stdio_output@@@2@@__crt_stdio_output@@QEAA@AEBV?$string_output_adapter@_W@1@_KQEB_WAEAV__crt_cached_ptd_host@@QEAD@Z 000000014001edb0 f i libucrtd:output.obj
 0001:0001de00       ??0__crt_cached_ptd_host@@QEAA@QEAU__crt_locale_pointers@@@Z 000000014001ee00 f i libucrtd:output.obj
 0001:0001dec0       ??0__crt_scoped_get_last_error_reset@@QEAA@XZ 000000014001eec0 f i libucrtd:output.obj
 0001:0001dee0       ??0formatting_buffer@__crt_stdio_output@@QEAA@XZ 000000014001eee0 f i libucrtd:output.obj
 0001:0001df20       ??0guard@?$cached@H@__crt_cached_ptd_host@@QEAA@AEAU12@@Z 000000014001ef20 f i libucrtd:output.obj
 0001:0001df60       ??1?$c_string_character_source@D@__crt_strtox@@QEAA@XZ 000000014001ef60 f i libucrtd:output.obj
 0001:0001df60       ??1?$c_string_character_source@_W@__crt_strtox@@QEAA@XZ 000000014001ef60 f i libucrtd:output.obj
 0001:0001df90       ??1?$common_data@D@__crt_stdio_output@@QEAA@XZ 000000014001ef90 f i libucrtd:output.obj
 0001:0001df90       ??1?$common_data@_W@__crt_stdio_output@@QEAA@XZ 000000014001ef90 f i libucrtd:output.obj
 0001:0001dfb0       ??1?$format_validation_base@DV?$string_output_adapter@D@__crt_stdio_output@@@__crt_stdio_output@@QEAA@XZ 000000014001efb0 f i libucrtd:output.obj
 0001:0001dfb0       ??1?$format_validation_base@_WV?$string_output_adapter@_W@__crt_stdio_output@@@__crt_stdio_output@@QEAA@XZ 000000014001efb0 f i libucrtd:output.obj
 0001:0001dfb0       ??1?$output_processor@DV?$string_output_adapter@D@__crt_stdio_output@@V?$standard_base@DV?$string_output_adapter@D@__crt_stdio_output@@@2@@__crt_stdio_output@@QEAA@XZ 000000014001efb0 f i libucrtd:output.obj
 0001:0001dfd0       ??1?$output_adapter_data@DV?$string_output_adapter@D@__crt_stdio_output@@@__crt_stdio_output@@QEAA@XZ 000000014001efd0 f i libucrtd:output.obj
 0001:0001dfd0       ??1?$output_adapter_data@_WV?$string_output_adapter@_W@__crt_stdio_output@@@__crt_stdio_output@@QEAA@XZ 000000014001efd0 f i libucrtd:output.obj
 0001:0001dff0       ??1?$output_processor@DV?$string_output_adapter@D@__crt_stdio_output@@V?$format_validation_base@DV?$string_output_adapter@D@__crt_stdio_output@@@2@@__crt_stdio_output@@QEAA@XZ 000000014001eff0 f i libucrtd:output.obj
 0001:0001dff0       ??1?$output_processor@_WV?$string_output_adapter@_W@__crt_stdio_output@@V?$format_validation_base@_WV?$string_output_adapter@_W@__crt_stdio_output@@@2@@__crt_stdio_output@@QEAA@XZ 000000014001eff0 f i libucrtd:output.obj
 0001:0001e010       ??1?$standard_base@DV?$string_output_adapter@D@__crt_stdio_output@@@__crt_stdio_output@@QEAA@XZ 000000014001f010 f i libucrtd:output.obj
 0001:0001e010       ??1?$standard_base@_WV?$string_output_adapter@_W@__crt_stdio_output@@@__crt_stdio_output@@QEAA@XZ 000000014001f010 f i libucrtd:output.obj
 0001:0001e030       ??1__crt_cached_ptd_host@@QEAA@XZ 000000014001f030 f i libucrtd:output.obj
 0001:0001e0e0       ??1__crt_scoped_get_last_error_reset@@QEAA@XZ 000000014001f0e0 f i libucrtd:output.obj
 0001:0001e100       ??1formatting_buffer@__crt_stdio_output@@QEAA@XZ 000000014001f100 f i libucrtd:output.obj
 0001:0001e130       ??1guard@?$cached@H@__crt_cached_ptd_host@@QEAA@XZ 000000014001f130 f i libucrtd:output.obj
 0001:0001e160       ??4?$__crt_unique_heap_ptr@DU__crt_internal_free_policy@@@@QEAAAEAV0@$$QEAV0@@Z 000000014001f160 f i libucrtd:output.obj
 0001:0001e1a0       ??A?$spectre_mitigated_lookup_table@Ustate_transition_pair@__crt_stdio_output@@$0IA@@__crt_stdio_output@@QEBAAEBUstate_transition_pair@1@_K@Z 000000014001f1a0 f i libucrtd:output.obj
 0001:0001e1c0       ?__crt_interlocked_read_32@@YAHPEDH@Z 000000014001f1c0 f i libucrtd:output.obj
 0001:0001e1e0       ?adjust_hexit@?$output_processor@DV?$string_output_adapter@D@__crt_stdio_output@@V?$format_validation_base@DV?$string_output_adapter@D@__crt_stdio_output@@@2@@__crt_stdio_output@@CADH_N@Z 000000014001f1e0 f i libucrtd:output.obj
 0001:0001e1e0       ?adjust_hexit@?$output_processor@DV?$string_output_adapter@D@__crt_stdio_output@@V?$standard_base@DV?$string_output_adapter@D@__crt_stdio_output@@@2@@__crt_stdio_output@@CADH_N@Z 000000014001f1e0 f i libucrtd:output.obj
 0001:0001e1e0       ?adjust_hexit@?$output_processor@_WV?$string_output_adapter@_W@__crt_stdio_output@@V?$format_validation_base@_WV?$string_output_adapter@_W@__crt_stdio_output@@@2@@__crt_stdio_output@@CADH_N@Z 000000014001f1e0 f i libucrtd:output.obj
 0001:0001e230       ?advance_to_next_pass@?$standard_base@DV?$string_output_adapter@D@__crt_stdio_output@@@__crt_stdio_output@@IEAA_NXZ 000000014001f230 f i libucrtd:output.obj
 0001:0001e230       ?advance_to_next_pass@?$standard_base@_WV?$string_output_adapter@_W@__crt_stdio_output@@@__crt_stdio_output@@IEAA_NXZ 000000014001f230 f i libucrtd:output.obj
 0001:0001e280       ?check@?$cached@H@__crt_cached_ptd_host@@QEBA_NH@Z 000000014001f280 f i libucrtd:output.obj
 0001:0001e2c0       ?check_synchronize_global_state_index@__crt_cached_ptd_host@@AEAA_KAEBV__crt_scoped_get_last_error_reset@@@Z 000000014001f2c0 f i libucrtd:output.obj
 0001:0001e300       ?check_synchronize_per_thread_data@__crt_cached_ptd_host@@AEAAPEAU__acrt_ptd@@XZ 000000014001f300 f i libucrtd:output.obj
 0001:0001e340       ?create_guard@?$cached@H@__crt_cached_ptd_host@@QEAA?AVguard@12@XZ 000000014001f340 f i libucrtd:output.obj
 0001:0001e370       ?crop_zeroes@__crt_stdio_output@@YAXPEADQEAU__crt_locale_pointers@@@Z 000000014001f370 f i libucrtd:output.obj
 0001:0001e4c0       ?disable@guard@?$cached@H@__crt_cached_ptd_host@@QEAAXXZ 000000014001f4c0 f i libucrtd:output.obj
 0001:0001e4d0       ?enable@guard@?$cached@H@__crt_cached_ptd_host@@QEAAXXZ 000000014001f4d0 f i libucrtd:output.obj
 0001:0001e4e0       ?find_next_state@?$output_processor@DV?$string_output_adapter@D@__crt_stdio_output@@V?$format_validation_base@DV?$string_output_adapter@D@__crt_stdio_output@@@2@@__crt_stdio_output@@AEBA?AW4state@2@DW432@@Z 000000014001f4e0 f i libucrtd:output.obj
 0001:0001e580       ?find_next_state@?$output_processor@DV?$string_output_adapter@D@__crt_stdio_output@@V?$standard_base@DV?$string_output_adapter@D@__crt_stdio_output@@@2@@__crt_stdio_output@@AEBA?AW4state@2@DW432@@Z 000000014001f580 f i libucrtd:output.obj
 0001:0001e620       ?find_next_state@?$output_processor@_WV?$string_output_adapter@_W@__crt_stdio_output@@V?$format_validation_base@_WV?$string_output_adapter@_W@__crt_stdio_output@@@2@@__crt_stdio_output@@AEBA?AW4state@2@_WW432@@Z 000000014001f620 f i libucrtd:output.obj
 0001:0001e6c0       ?force_decimal_point@__crt_stdio_output@@YAXPEADQEAU__crt_locale_pointers@@@Z 000000014001f6c0 f i libucrtd:output.obj
 0001:0001e7c0       ?force_synchronize_global_state_index@__crt_cached_ptd_host@@AEAA_KAEBV__crt_scoped_get_last_error_reset@@@Z 000000014001f7c0 f i libucrtd:output.obj
 0001:0001e800       ?force_synchronize_per_thread_data@__crt_cached_ptd_host@@AEAAPEAU__acrt_ptd@@XZ 000000014001f800 f i libucrtd:output.obj
 0001:0001e860       ?get@?$c_string_character_source@D@__crt_strtox@@QEAADXZ 000000014001f860 f i libucrtd:output.obj
 0001:0001e8a0       ?get@?$c_string_character_source@_W@__crt_strtox@@QEAA_WXZ 000000014001f8a0 f i libucrtd:output.obj
 0001:0001e8e0       ?get_errno@__crt_cached_ptd_host@@QEAAAEAU?$cached@H@1@XZ 000000014001f8e0 f i libucrtd:output.obj
 0001:0001e8f0       ?get_flags@__crt_stdio_stream@@QEBAJXZ 000000014001f8f0 f i libucrtd:output.obj
 0001:0001e920       ?get_locale@__crt_cached_ptd_host@@QEAAPEAU__crt_locale_pointers@@XZ 000000014001f920 f i libucrtd:output.obj
 0001:0001e950       ?get_raw_ptd@__crt_cached_ptd_host@@QEAAPEAU__acrt_ptd@@XZ 000000014001f950 f i libucrtd:output.obj
 0001:0001e970       ?has_flag@?$output_processor@DV?$string_output_adapter@D@__crt_stdio_output@@V?$format_validation_base@DV?$string_output_adapter@D@__crt_stdio_output@@@2@@__crt_stdio_output@@AEBA_NI@Z 000000014001f970 f i libucrtd:output.obj
 0001:0001e970       ?has_flag@?$output_processor@DV?$string_output_adapter@D@__crt_stdio_output@@V?$standard_base@DV?$string_output_adapter@D@__crt_stdio_output@@@2@@__crt_stdio_output@@AEBA_NI@Z 000000014001f970 f i libucrtd:output.obj
 0001:0001e970       ?has_flag@?$output_processor@_WV?$string_output_adapter@_W@__crt_stdio_output@@V?$format_validation_base@_WV?$string_output_adapter@_W@__crt_stdio_output@@@2@@__crt_stdio_output@@AEBA_NI@Z 000000014001f970 f i libucrtd:output.obj
 0001:0001e9b0       ?is_string_backed@__crt_stdio_stream@@QEBA_NXZ 000000014001f9b0 f i libucrtd:output.obj
 0001:0001e9f0       ?maximum_signed_value@__crt_strtox@@YAJK@Z 000000014001f9f0 f i libucrtd:output.obj
 0001:0001ea00       ?minimum_signed_value@__crt_strtox@@YAJK@Z 000000014001fa00 f i libucrtd:output.obj
 0001:0001ea10       ?narrow_null_string@?$output_processor@DV?$string_output_adapter@D@__crt_stdio_output@@V?$format_validation_base@DV?$string_output_adapter@D@__crt_stdio_output@@@2@@__crt_stdio_output@@CAPEADXZ 000000014001fa10 f i libucrtd:output.obj
 0001:0001ea10       ?narrow_null_string@?$output_processor@DV?$string_output_adapter@D@__crt_stdio_output@@V?$standard_base@DV?$string_output_adapter@D@__crt_stdio_output@@@2@@__crt_stdio_output@@CAPEADXZ 000000014001fa10 f i libucrtd:output.obj
 0001:0001ea10       ?narrow_null_string@?$output_processor@_WV?$string_output_adapter@_W@__crt_stdio_output@@V?$format_validation_base@_WV?$string_output_adapter@_W@__crt_stdio_output@@@2@@__crt_stdio_output@@CAPEADXZ 000000014001fa10 f i libucrtd:output.obj
 0001:0001ea20       ?parse_digit@__crt_strtox@@YAID@Z 000000014001fa20 f i libucrtd:output.obj
 0001:0001ea90       ?parse_digit@__crt_strtox@@YAI_W@Z 000000014001fa90 f i libucrtd:output.obj
 0001:0001eae0       ?parse_int_from_format_string@?$output_processor@DV?$string_output_adapter@D@__crt_stdio_output@@V?$format_validation_base@DV?$string_output_adapter@D@__crt_stdio_output@@@2@@__crt_stdio_output@@AEAA_NQEAH@Z 000000014001fae0 f i libucrtd:output.obj
 0001:0001eae0       ?parse_int_from_format_string@?$output_processor@DV?$string_output_adapter@D@__crt_stdio_output@@V?$standard_base@DV?$string_output_adapter@D@__crt_stdio_output@@@2@@__crt_stdio_output@@AEAA_NQEAH@Z 000000014001fae0 f i libucrtd:output.obj
 0001:0001ebe0       ?parse_int_from_format_string@?$output_processor@_WV?$string_output_adapter@_W@__crt_stdio_output@@V?$format_validation_base@_WV?$string_output_adapter@_W@__crt_stdio_output@@@2@@__crt_stdio_output@@AEAA_NQEAH@Z 000000014001fbe0 f i libucrtd:output.obj
 0001:0001ece0       ?process@?$output_processor@DV?$string_output_adapter@D@__crt_stdio_output@@V?$format_validation_base@DV?$string_output_adapter@D@__crt_stdio_output@@@2@@__crt_stdio_output@@QEAAHXZ 000000014001fce0 f i libucrtd:output.obj
 0001:0001f0a0       ?process@?$output_processor@DV?$string_output_adapter@D@__crt_stdio_output@@V?$standard_base@DV?$string_output_adapter@D@__crt_stdio_output@@@2@@__crt_stdio_output@@QEAAHXZ 00000001400200a0 f i libucrtd:output.obj
 0001:0001f460       ?process@?$output_processor@_WV?$string_output_adapter@_W@__crt_stdio_output@@V?$format_validation_base@_WV?$string_output_adapter@_W@__crt_stdio_output@@@2@@__crt_stdio_output@@QEAAHXZ 0000000140020460 f i libucrtd:output.obj
 0001:0001f820       ?restore_state@?$c_string_character_source@D@__crt_strtox@@QEAA_NQEBD@Z 0000000140020820 f i libucrtd:output.obj
 0001:0001f820       ?restore_state@?$c_string_character_source@_W@__crt_strtox@@QEAA_NQEB_W@Z 0000000140020820 f i libucrtd:output.obj
 0001:0001f840       ?set@?$cached@H@__crt_cached_ptd_host@@QEAAHH@Z 0000000140020840 f i libucrtd:output.obj
 0001:0001f840       ?set@?$cached@K@__crt_cached_ptd_host@@QEAAKK@Z 0000000140020840 f i libucrtd:errno.obj
 0001:0001f870       ?set_flag@?$output_processor@DV?$string_output_adapter@D@__crt_stdio_output@@V?$format_validation_base@DV?$string_output_adapter@D@__crt_stdio_output@@@2@@__crt_stdio_output@@AEAAXI@Z 0000000140020870 f i libucrtd:output.obj
 0001:0001f870       ?set_flag@?$output_processor@DV?$string_output_adapter@D@__crt_stdio_output@@V?$standard_base@DV?$string_output_adapter@D@__crt_stdio_output@@@2@@__crt_stdio_output@@AEAAXI@Z 0000000140020870 f i libucrtd:output.obj
 0001:0001f870       ?set_flag@?$output_processor@_WV?$string_output_adapter@_W@__crt_stdio_output@@V?$format_validation_base@_WV?$string_output_adapter@_W@__crt_stdio_output@@@2@@__crt_stdio_output@@AEAAXI@Z 0000000140020870 f i libucrtd:output.obj
 0001:0001f890       ?should_format@?$standard_base@DV?$string_output_adapter@D@__crt_stdio_output@@@__crt_stdio_output@@IEAA_NXZ 0000000140020890 f i libucrtd:output.obj
 0001:0001f890       ?should_format@?$standard_base@_WV?$string_output_adapter@_W@__crt_stdio_output@@@__crt_stdio_output@@IEAA_NXZ 0000000140020890 f i libucrtd:output.obj
 0001:0001f890       ?validate_and_update_state_at_beginning_of_format_character@?$standard_base@DV?$string_output_adapter@D@__crt_stdio_output@@@__crt_stdio_output@@IEAA_NXZ 0000000140020890 f i libucrtd:output.obj
 0001:0001f890       ?validate_and_update_state_at_beginning_of_format_character@?$standard_base@_WV?$string_output_adapter@_W@__crt_stdio_output@@@__crt_stdio_output@@IEAA_NXZ 0000000140020890 f i libucrtd:output.obj
 0001:0001f890       ?validate_and_update_state_at_end_of_format_string@?$standard_base@DV?$string_output_adapter@D@__crt_stdio_output@@@__crt_stdio_output@@IEBA_NXZ 0000000140020890 f i libucrtd:output.obj
 0001:0001f890       ?validate_state_for_type_case_a@?$standard_base@DV?$string_output_adapter@D@__crt_stdio_output@@@__crt_stdio_output@@IEBA_NXZ 0000000140020890 f i libucrtd:output.obj
 0001:0001f890       ?validate_state_for_type_case_a@?$standard_base@_WV?$string_output_adapter@_W@__crt_stdio_output@@@__crt_stdio_output@@IEBA_NXZ 0000000140020890 f i libucrtd:output.obj
 0001:0001f8a0       ?should_skip_normal_state_processing@?$standard_base@DV?$string_output_adapter@D@__crt_stdio_output@@@__crt_stdio_output@@IEAA_NXZ 00000001400208a0 f i libucrtd:output.obj
 0001:0001f8a0       ?should_skip_normal_state_processing@?$standard_base@_WV?$string_output_adapter@_W@__crt_stdio_output@@@__crt_stdio_output@@IEAA_NXZ 00000001400208a0 f i libucrtd:output.obj
 0001:0001f8a0       ?should_skip_type_state_output@?$standard_base@DV?$string_output_adapter@D@__crt_stdio_output@@@__crt_stdio_output@@IEBA_NXZ 00000001400208a0 f i libucrtd:output.obj
 0001:0001f8a0       ?should_skip_type_state_output@?$standard_base@_WV?$string_output_adapter@_W@__crt_stdio_output@@@__crt_stdio_output@@IEBA_NXZ 00000001400208a0 f i libucrtd:output.obj
 0001:0001f8b0       ?state_case_dot@?$output_processor@DV?$string_output_adapter@D@__crt_stdio_output@@V?$format_validation_base@DV?$string_output_adapter@D@__crt_stdio_output@@@2@@__crt_stdio_output@@AEAA_NXZ 00000001400208b0 f i libucrtd:output.obj
 0001:0001f8b0       ?state_case_dot@?$output_processor@DV?$string_output_adapter@D@__crt_stdio_output@@V?$standard_base@DV?$string_output_adapter@D@__crt_stdio_output@@@2@@__crt_stdio_output@@AEAA_NXZ 00000001400208b0 f i libucrtd:output.obj
 0001:0001f8b0       ?state_case_dot@?$output_processor@_WV?$string_output_adapter@_W@__crt_stdio_output@@V?$format_validation_base@_WV?$string_output_adapter@_W@__crt_stdio_output@@@2@@__crt_stdio_output@@AEAA_NXZ 00000001400208b0 f i libucrtd:output.obj
 0001:0001f8d0       ?state_case_flag@?$output_processor@DV?$string_output_adapter@D@__crt_stdio_output@@V?$format_validation_base@DV?$string_output_adapter@D@__crt_stdio_output@@@2@@__crt_stdio_output@@AEAA_NXZ 00000001400208d0 f i libucrtd:output.obj
 0001:0001f8d0       ?state_case_flag@?$output_processor@DV?$string_output_adapter@D@__crt_stdio_output@@V?$standard_base@DV?$string_output_adapter@D@__crt_stdio_output@@@2@@__crt_stdio_output@@AEAA_NXZ 00000001400208d0 f i libucrtd:output.obj
 0001:0001f970       ?state_case_flag@?$output_processor@_WV?$string_output_adapter@_W@__crt_stdio_output@@V?$format_validation_base@_WV?$string_output_adapter@_W@__crt_stdio_output@@@2@@__crt_stdio_output@@AEAA_NXZ 0000000140020970 f i libucrtd:output.obj
 0001:0001fa10       ?state_case_normal@?$output_processor@DV?$string_output_adapter@D@__crt_stdio_output@@V?$format_validation_base@DV?$string_output_adapter@D@__crt_stdio_output@@@2@@__crt_stdio_output@@AEAA_NXZ 0000000140020a10 f i libucrtd:output.obj
 0001:0001fb10       ?state_case_normal@?$output_processor@DV?$string_output_adapter@D@__crt_stdio_output@@V?$standard_base@DV?$string_output_adapter@D@__crt_stdio_output@@@2@@__crt_stdio_output@@AEAA_NXZ 0000000140020b10 f i libucrtd:output.obj
 0001:0001fc10       ?state_case_normal@?$output_processor@_WV?$string_output_adapter@_W@__crt_stdio_output@@V?$format_validation_base@_WV?$string_output_adapter@_W@__crt_stdio_output@@@2@@__crt_stdio_output@@AEAA_NXZ 0000000140020c10 f i libucrtd:output.obj
 0001:0001fd10       ?state_case_normal_common@?$output_processor@DV?$string_output_adapter@D@__crt_stdio_output@@V?$format_validation_base@DV?$string_output_adapter@D@__crt_stdio_output@@@2@@__crt_stdio_output@@AEAA_NXZ 0000000140020d10 f i libucrtd:output.obj
 0001:0001fd70       ?state_case_normal_common@?$output_processor@DV?$string_output_adapter@D@__crt_stdio_output@@V?$standard_base@DV?$string_output_adapter@D@__crt_stdio_output@@@2@@__crt_stdio_output@@AEAA_NXZ 0000000140020d70 f i libucrtd:output.obj
 0001:0001fdd0       ?state_case_normal_common@?$output_processor@_WV?$string_output_adapter@_W@__crt_stdio_output@@V?$format_validation_base@_WV?$string_output_adapter@_W@__crt_stdio_output@@@2@@__crt_stdio_output@@AEAA_NXZ 0000000140020dd0 f i libucrtd:output.obj
 0001:0001fe30       ?state_case_normal_tchar@?$output_processor@DV?$string_output_adapter@D@__crt_stdio_output@@V?$format_validation_base@DV?$string_output_adapter@D@__crt_stdio_output@@@2@@__crt_stdio_output@@AEAA_ND@Z 0000000140020e30 f i libucrtd:output.obj
 0001:0001ffc0       ?state_case_normal_tchar@?$output_processor@DV?$string_output_adapter@D@__crt_stdio_output@@V?$standard_base@DV?$string_output_adapter@D@__crt_stdio_output@@@2@@__crt_stdio_output@@AEAA_ND@Z 0000000140020fc0 f i libucrtd:output.obj
 0001:00020150       ?state_case_normal_tchar@?$output_processor@_WV?$string_output_adapter@_W@__crt_stdio_output@@V?$format_validation_base@_WV?$string_output_adapter@_W@__crt_stdio_output@@@2@@__crt_stdio_output@@AEAA_N_W@Z 0000000140021150 f i libucrtd:output.obj
 0001:00020170       ?state_case_percent@?$output_processor@DV?$string_output_adapter@D@__crt_stdio_output@@V?$format_validation_base@DV?$string_output_adapter@D@__crt_stdio_output@@@2@@__crt_stdio_output@@AEAA_NXZ 0000000140021170 f i libucrtd:output.obj
 0001:00020170       ?state_case_percent@?$output_processor@DV?$string_output_adapter@D@__crt_stdio_output@@V?$standard_base@DV?$string_output_adapter@D@__crt_stdio_output@@@2@@__crt_stdio_output@@AEAA_NXZ 0000000140021170 f i libucrtd:output.obj
 0001:00020170       ?state_case_percent@?$output_processor@_WV?$string_output_adapter@_W@__crt_stdio_output@@V?$format_validation_base@_WV?$string_output_adapter@_W@__crt_stdio_output@@@2@@__crt_stdio_output@@AEAA_NXZ 0000000140021170 f i libucrtd:output.obj
 0001:000201c0       ?state_case_precision@?$output_processor@DV?$string_output_adapter@D@__crt_stdio_output@@V?$format_validation_base@DV?$string_output_adapter@D@__crt_stdio_output@@@2@@__crt_stdio_output@@AEAA_NXZ 00000001400211c0 f i libucrtd:output.obj
 0001:000201c0       ?state_case_precision@?$output_processor@DV?$string_output_adapter@D@__crt_stdio_output@@V?$standard_base@DV?$string_output_adapter@D@__crt_stdio_output@@@2@@__crt_stdio_output@@AEAA_NXZ 00000001400211c0 f i libucrtd:output.obj
 0001:00020240       ?state_case_precision@?$output_processor@_WV?$string_output_adapter@_W@__crt_stdio_output@@V?$format_validation_base@_WV?$string_output_adapter@_W@__crt_stdio_output@@@2@@__crt_stdio_output@@AEAA_NXZ 0000000140021240 f i libucrtd:output.obj
 0001:000202c0       ?state_case_size@?$output_processor@DV?$string_output_adapter@D@__crt_stdio_output@@V?$format_validation_base@DV?$string_output_adapter@D@__crt_stdio_output@@@2@@__crt_stdio_output@@AEAA_NXZ 00000001400212c0 f i libucrtd:output.obj
 0001:00020780       ?state_case_size@?$output_processor@DV?$string_output_adapter@D@__crt_stdio_output@@V?$standard_base@DV?$string_output_adapter@D@__crt_stdio_output@@@2@@__crt_stdio_output@@AEAA_NXZ 0000000140021780 f i libucrtd:output.obj
 0001:00020c40       ?state_case_size@?$output_processor@_WV?$string_output_adapter@_W@__crt_stdio_output@@V?$format_validation_base@_WV?$string_output_adapter@_W@__crt_stdio_output@@@2@@__crt_stdio_output@@AEAA_NXZ 0000000140021c40 f i libucrtd:output.obj
 0001:00021100       ?state_case_type@?$output_processor@DV?$string_output_adapter@D@__crt_stdio_output@@V?$format_validation_base@DV?$string_output_adapter@D@__crt_stdio_output@@@2@@__crt_stdio_output@@AEAA_NXZ 0000000140022100 f i libucrtd:output.obj
 0001:000215c0       ?state_case_type@?$output_processor@DV?$string_output_adapter@D@__crt_stdio_output@@V?$standard_base@DV?$string_output_adapter@D@__crt_stdio_output@@@2@@__crt_stdio_output@@AEAA_NXZ 00000001400225c0 f i libucrtd:output.obj
 0001:00021a80       ?state_case_type@?$output_processor@_WV?$string_output_adapter@_W@__crt_stdio_output@@V?$format_validation_base@_WV?$string_output_adapter@_W@__crt_stdio_output@@@2@@__crt_stdio_output@@AEAA_NXZ 0000000140022a80 f i libucrtd:output.obj
 0001:00022010       ?state_case_width@?$output_processor@DV?$string_output_adapter@D@__crt_stdio_output@@V?$format_validation_base@DV?$string_output_adapter@D@__crt_stdio_output@@@2@@__crt_stdio_output@@AEAA_NXZ 0000000140023010 f i libucrtd:output.obj
 0001:00022010       ?state_case_width@?$output_processor@DV?$string_output_adapter@D@__crt_stdio_output@@V?$standard_base@DV?$string_output_adapter@D@__crt_stdio_output@@@2@@__crt_stdio_output@@AEAA_NXZ 0000000140023010 f i libucrtd:output.obj
 0001:000220a0       ?state_case_width@?$output_processor@_WV?$string_output_adapter@_W@__crt_stdio_output@@V?$format_validation_base@_WV?$string_output_adapter@_W@__crt_stdio_output@@@2@@__crt_stdio_output@@AEAA_NXZ 00000001400230a0 f i libucrtd:output.obj
 0001:00022130       ?state_count@?$format_validation_base@DV?$string_output_adapter@D@__crt_stdio_output@@@__crt_stdio_output@@KAIXZ 0000000140023130 f i libucrtd:output.obj
 0001:00022130       ?state_count@?$format_validation_base@_WV?$string_output_adapter@_W@__crt_stdio_output@@@__crt_stdio_output@@KAIXZ 0000000140023130 f i libucrtd:output.obj
 0001:00022140       ?state_count@?$standard_base@DV?$string_output_adapter@D@__crt_stdio_output@@@__crt_stdio_output@@KAIXZ 0000000140023140 f i libucrtd:output.obj
 0001:00022150       ?state_transition_table@?$format_validation_base@DV?$string_output_adapter@D@__crt_stdio_output@@@__crt_stdio_output@@KAAEBV?$spectre_mitigated_lookup_table@Ustate_transition_pair@__crt_stdio_output@@$0IA@@2@XZ 0000000140023150 f i libucrtd:output.obj
 0001:00022150       ?state_transition_table@?$format_validation_base@_WV?$string_output_adapter@_W@__crt_stdio_output@@@__crt_stdio_output@@KAAEBV?$spectre_mitigated_lookup_table@Ustate_transition_pair@__crt_stdio_output@@$0IA@@2@XZ 0000000140023150 f i libucrtd:output.obj
 0001:00022160       ?state_transition_table@?$standard_base@DV?$string_output_adapter@D@__crt_stdio_output@@@__crt_stdio_output@@KAAEBV?$spectre_mitigated_lookup_table@Ustate_transition_pair@__crt_stdio_output@@$0IA@@2@XZ 0000000140023160 f i libucrtd:output.obj
 0001:00022170       ?tchar_string@?$common_data@D@__crt_stdio_output@@IEAAAEAPEADD@Z 0000000140023170 f i libucrtd:output.obj
 0001:00022190       ?tchar_string@?$common_data@D@__crt_stdio_output@@IEAAAEAPEADXZ 0000000140023190 f i libucrtd:output.obj
 0001:000221b0       ?tchar_string@?$common_data@_W@__crt_stdio_output@@IEAAAEAPEA_WXZ 00000001400231b0 f i libucrtd:output.obj
 0001:000221d0       ?tchar_string@?$common_data@_W@__crt_stdio_output@@IEAAAEAPEA_W_W@Z 00000001400231d0 f i libucrtd:output.obj
 0001:000221f0       ?to_integer_size@__crt_stdio_output@@YA_KW4length_modifier@1@@Z 00000001400231f0 f i libucrtd:output.obj
 0001:000222a0       ?type_case_X@?$output_processor@DV?$string_output_adapter@D@__crt_stdio_output@@V?$format_validation_base@DV?$string_output_adapter@D@__crt_stdio_output@@@2@@__crt_stdio_output@@AEAA_NXZ 00000001400232a0 f i libucrtd:output.obj
 0001:000222c0       ?type_case_X@?$output_processor@DV?$string_output_adapter@D@__crt_stdio_output@@V?$standard_base@DV?$string_output_adapter@D@__crt_stdio_output@@@2@@__crt_stdio_output@@AEAA_NXZ 00000001400232c0 f i libucrtd:output.obj
 0001:000222e0       ?type_case_X@?$output_processor@_WV?$string_output_adapter@_W@__crt_stdio_output@@V?$format_validation_base@_WV?$string_output_adapter@_W@__crt_stdio_output@@@2@@__crt_stdio_output@@AEAA_NXZ 00000001400232e0 f i libucrtd:output.obj
 0001:00022300       ?type_case_Z@?$output_processor@DV?$string_output_adapter@D@__crt_stdio_output@@V?$format_validation_base@DV?$string_output_adapter@D@__crt_stdio_output@@@2@@__crt_stdio_output@@AEAA_NXZ 0000000140023300 f i libucrtd:output.obj
 0001:00022300       ?type_case_Z@?$output_processor@DV?$string_output_adapter@D@__crt_stdio_output@@V?$standard_base@DV?$string_output_adapter@D@__crt_stdio_output@@@2@@__crt_stdio_output@@AEAA_NXZ 0000000140023300 f i libucrtd:output.obj
 0001:00022420       ?type_case_Z@?$output_processor@_WV?$string_output_adapter@_W@__crt_stdio_output@@V?$format_validation_base@_WV?$string_output_adapter@_W@__crt_stdio_output@@@2@@__crt_stdio_output@@AEAA_NXZ 0000000140023420 f i libucrtd:output.obj
 0001:00022540       ?type_case_a@?$output_processor@DV?$string_output_adapter@D@__crt_stdio_output@@V?$format_validation_base@DV?$string_output_adapter@D@__crt_stdio_output@@@2@@__crt_stdio_output@@AEAA_NXZ 0000000140023540 f i libucrtd:output.obj
 0001:00022540       ?type_case_a@?$output_processor@DV?$string_output_adapter@D@__crt_stdio_output@@V?$standard_base@DV?$string_output_adapter@D@__crt_stdio_output@@@2@@__crt_stdio_output@@AEAA_NXZ 0000000140023540 f i libucrtd:output.obj
 0001:000229a0       ?type_case_a@?$output_processor@_WV?$string_output_adapter@_W@__crt_stdio_output@@V?$format_validation_base@_WV?$string_output_adapter@_W@__crt_stdio_output@@@2@@__crt_stdio_output@@AEAA_NXZ 00000001400239a0 f i libucrtd:output.obj
 0001:00022e10       ?type_case_c@?$output_processor@DV?$string_output_adapter@D@__crt_stdio_output@@V?$format_validation_base@DV?$string_output_adapter@D@__crt_stdio_output@@@2@@__crt_stdio_output@@AEAA_NXZ 0000000140023e10 f i libucrtd:output.obj
 0001:00022e10       ?type_case_c@?$output_processor@DV?$string_output_adapter@D@__crt_stdio_output@@V?$standard_base@DV?$string_output_adapter@D@__crt_stdio_output@@@2@@__crt_stdio_output@@AEAA_NXZ 0000000140023e10 f i libucrtd:output.obj
 0001:00022e30       ?type_case_c@?$output_processor@_WV?$string_output_adapter@_W@__crt_stdio_output@@V?$format_validation_base@_WV?$string_output_adapter@_W@__crt_stdio_output@@@2@@__crt_stdio_output@@AEAA_NXZ 0000000140023e30 f i libucrtd:output.obj
 0001:00022e50       ?type_case_c_tchar@?$output_processor@DV?$string_output_adapter@D@__crt_stdio_output@@V?$format_validation_base@DV?$string_output_adapter@D@__crt_stdio_output@@@2@@__crt_stdio_output@@AEAA_ND@Z 0000000140023e50 f i libucrtd:output.obj
 0001:00022e50       ?type_case_c_tchar@?$output_processor@DV?$string_output_adapter@D@__crt_stdio_output@@V?$standard_base@DV?$string_output_adapter@D@__crt_stdio_output@@@2@@__crt_stdio_output@@AEAA_ND@Z 0000000140023e50 f i libucrtd:output.obj
 0001:00022fc0       ?type_case_c_tchar@?$output_processor@_WV?$string_output_adapter@_W@__crt_stdio_output@@V?$format_validation_base@_WV?$string_output_adapter@_W@__crt_stdio_output@@@2@@__crt_stdio_output@@AEAA_N_W@Z 0000000140023fc0 f i libucrtd:output.obj
 0001:00023120       ?type_case_d@?$output_processor@DV?$string_output_adapter@D@__crt_stdio_output@@V?$format_validation_base@DV?$string_output_adapter@D@__crt_stdio_output@@@2@@__crt_stdio_output@@AEAA_NXZ 0000000140024120 f i libucrtd:output.obj
 0001:00023150       ?type_case_d@?$output_processor@DV?$string_output_adapter@D@__crt_stdio_output@@V?$standard_base@DV?$string_output_adapter@D@__crt_stdio_output@@@2@@__crt_stdio_output@@AEAA_NXZ 0000000140024150 f i libucrtd:output.obj
 0001:00023180       ?type_case_d@?$output_processor@_WV?$string_output_adapter@_W@__crt_stdio_output@@V?$format_validation_base@_WV?$string_output_adapter@_W@__crt_stdio_output@@@2@@__crt_stdio_output@@AEAA_NXZ 0000000140024180 f i libucrtd:output.obj
 0001:000231b0       ?type_case_n@?$output_processor@DV?$string_output_adapter@D@__crt_stdio_output@@V?$format_validation_base@DV?$string_output_adapter@D@__crt_stdio_output@@@2@@__crt_stdio_output@@AEAA_NXZ 00000001400241b0 f i libucrtd:output.obj
 0001:00023440       ?type_case_n@?$output_processor@DV?$string_output_adapter@D@__crt_stdio_output@@V?$standard_base@DV?$string_output_adapter@D@__crt_stdio_output@@@2@@__crt_stdio_output@@AEAA_NXZ 0000000140024440 f i libucrtd:output.obj
 0001:000236d0       ?type_case_n@?$output_processor@_WV?$string_output_adapter@_W@__crt_stdio_output@@V?$format_validation_base@_WV?$string_output_adapter@_W@__crt_stdio_output@@@2@@__crt_stdio_output@@AEAA_NXZ 00000001400246d0 f i libucrtd:output.obj
 0001:00023960       ?type_case_o@?$output_processor@DV?$string_output_adapter@D@__crt_stdio_output@@V?$format_validation_base@DV?$string_output_adapter@D@__crt_stdio_output@@@2@@__crt_stdio_output@@AEAA_NXZ 0000000140024960 f i libucrtd:output.obj
 0001:000239a0       ?type_case_o@?$output_processor@DV?$string_output_adapter@D@__crt_stdio_output@@V?$standard_base@DV?$string_output_adapter@D@__crt_stdio_output@@@2@@__crt_stdio_output@@AEAA_NXZ 00000001400249a0 f i libucrtd:output.obj
 0001:000239e0       ?type_case_o@?$output_processor@_WV?$string_output_adapter@_W@__crt_stdio_output@@V?$format_validation_base@_WV?$string_output_adapter@_W@__crt_stdio_output@@@2@@__crt_stdio_output@@AEAA_NXZ 00000001400249e0 f i libucrtd:output.obj
 0001:00023a20       ?type_case_p@?$output_processor@DV?$string_output_adapter@D@__crt_stdio_output@@V?$format_validation_base@DV?$string_output_adapter@D@__crt_stdio_output@@@2@@__crt_stdio_output@@AEAA_NXZ 0000000140024a20 f i libucrtd:output.obj
 0001:00023a60       ?type_case_p@?$output_processor@DV?$string_output_adapter@D@__crt_stdio_output@@V?$standard_base@DV?$string_output_adapter@D@__crt_stdio_output@@@2@@__crt_stdio_output@@AEAA_NXZ 0000000140024a60 f i libucrtd:output.obj
 0001:00023aa0       ?type_case_p@?$output_processor@_WV?$string_output_adapter@_W@__crt_stdio_output@@V?$format_validation_base@_WV?$string_output_adapter@_W@__crt_stdio_output@@@2@@__crt_stdio_output@@AEAA_NXZ 0000000140024aa0 f i libucrtd:output.obj
 0001:00023ae0       ?type_case_s@?$output_processor@DV?$string_output_adapter@D@__crt_stdio_output@@V?$format_validation_base@DV?$string_output_adapter@D@__crt_stdio_output@@@2@@__crt_stdio_output@@AEAA_NXZ 0000000140024ae0 f i libucrtd:output.obj
 0001:00023ae0       ?type_case_s@?$output_processor@DV?$string_output_adapter@D@__crt_stdio_output@@V?$standard_base@DV?$string_output_adapter@D@__crt_stdio_output@@@2@@__crt_stdio_output@@AEAA_NXZ 0000000140024ae0 f i libucrtd:output.obj
 0001:00023c00       ?type_case_s@?$output_processor@_WV?$string_output_adapter@_W@__crt_stdio_output@@V?$format_validation_base@_WV?$string_output_adapter@_W@__crt_stdio_output@@@2@@__crt_stdio_output@@AEAA_NXZ 0000000140024c00 f i libucrtd:output.obj
 0001:00023d20       ?type_case_s_compute_narrow_string_length@?$output_processor@DV?$string_output_adapter@D@__crt_stdio_output@@V?$format_validation_base@DV?$string_output_adapter@D@__crt_stdio_output@@@2@@__crt_stdio_output@@AEAAHHD@Z 0000000140024d20 f i libucrtd:output.obj
 0001:00023d20       ?type_case_s_compute_narrow_string_length@?$output_processor@DV?$string_output_adapter@D@__crt_stdio_output@@V?$standard_base@DV?$string_output_adapter@D@__crt_stdio_output@@@2@@__crt_stdio_output@@AEAAHHD@Z 0000000140024d20 f i libucrtd:output.obj
 0001:00023d50       ?type_case_s_compute_narrow_string_length@?$output_processor@_WV?$string_output_adapter@_W@__crt_stdio_output@@V?$format_validation_base@_WV?$string_output_adapter@_W@__crt_stdio_output@@@2@@__crt_stdio_output@@AEAAHH_W@Z 0000000140024d50 f i libucrtd:output.obj
 0001:00023df0       ?type_case_u@?$output_processor@DV?$string_output_adapter@D@__crt_stdio_output@@V?$format_validation_base@DV?$string_output_adapter@D@__crt_stdio_output@@@2@@__crt_stdio_output@@AEAA_NXZ 0000000140024df0 f i libucrtd:output.obj
 0001:00023e10       ?type_case_u@?$output_processor@DV?$string_output_adapter@D@__crt_stdio_output@@V?$standard_base@DV?$string_output_adapter@D@__crt_stdio_output@@@2@@__crt_stdio_output@@AEAA_NXZ 0000000140024e10 f i libucrtd:output.obj
 0001:00023e30       ?type_case_u@?$output_processor@_WV?$string_output_adapter@_W@__crt_stdio_output@@V?$format_validation_base@_WV?$string_output_adapter@_W@__crt_stdio_output@@@2@@__crt_stdio_output@@AEAA_NXZ 0000000140024e30 f i libucrtd:output.obj
 0001:00023e50       ?type_case_x@?$output_processor@DV?$string_output_adapter@D@__crt_stdio_output@@V?$format_validation_base@DV?$string_output_adapter@D@__crt_stdio_output@@@2@@__crt_stdio_output@@AEAA_NXZ 0000000140024e50 f i libucrtd:output.obj
 0001:00023e70       ?type_case_x@?$output_processor@DV?$string_output_adapter@D@__crt_stdio_output@@V?$standard_base@DV?$string_output_adapter@D@__crt_stdio_output@@@2@@__crt_stdio_output@@AEAA_NXZ 0000000140024e70 f i libucrtd:output.obj
 0001:00023e90       ?type_case_x@?$output_processor@_WV?$string_output_adapter@_W@__crt_stdio_output@@V?$format_validation_base@_WV?$string_output_adapter@_W@__crt_stdio_output@@@2@@__crt_stdio_output@@AEAA_NXZ 0000000140024e90 f i libucrtd:output.obj
 0001:00023eb0       ?unget@?$c_string_character_source@D@__crt_strtox@@QEAAXD@Z 0000000140024eb0 f i libucrtd:output.obj
 0001:00023f90       ?unget@?$c_string_character_source@_W@__crt_strtox@@QEAAX_W@Z 0000000140024f90 f i libucrtd:output.obj
 0001:00024070       ?unset_flag@?$output_processor@DV?$string_output_adapter@D@__crt_stdio_output@@V?$format_validation_base@DV?$string_output_adapter@D@__crt_stdio_output@@@2@@__crt_stdio_output@@AEAAXI@Z 0000000140025070 f i libucrtd:output.obj
 0001:00024070       ?unset_flag@?$output_processor@DV?$string_output_adapter@D@__crt_stdio_output@@V?$standard_base@DV?$string_output_adapter@D@__crt_stdio_output@@@2@@__crt_stdio_output@@AEAAXI@Z 0000000140025070 f i libucrtd:output.obj
 0001:00024070       ?unset_flag@?$output_processor@_WV?$string_output_adapter@_W@__crt_stdio_output@@V?$format_validation_base@_WV?$string_output_adapter@_W@__crt_stdio_output@@@2@@__crt_stdio_output@@AEAAXI@Z 0000000140025070 f i libucrtd:output.obj
 0001:000240a0       ?update_field_width@?$standard_base@DV?$string_output_adapter@D@__crt_stdio_output@@@__crt_stdio_output@@IEAA_NXZ 00000001400250a0 f i libucrtd:output.obj
 0001:000240a0       ?update_field_width@?$standard_base@_WV?$string_output_adapter@_W@__crt_stdio_output@@@__crt_stdio_output@@IEAA_NXZ 00000001400250a0 f i libucrtd:output.obj
 0001:000240d0       ?update_locale@__crt_cached_ptd_host@@AEAAXXZ 00000001400250d0 f i libucrtd:output.obj
 0001:00024100       ?update_locale_slow@__crt_cached_ptd_host@@AEAAXXZ 0000000140025100 f i libucrtd:output.obj
 0001:000241b0       ?update_precision@?$standard_base@DV?$string_output_adapter@D@__crt_stdio_output@@@__crt_stdio_output@@IEAA_NXZ 00000001400251b0 f i libucrtd:output.obj
 0001:000241b0       ?update_precision@?$standard_base@_WV?$string_output_adapter@_W@__crt_stdio_output@@@__crt_stdio_output@@IEAA_NXZ 00000001400251b0 f i libucrtd:output.obj
 0001:000241e0       ?valid@?$cached@H@__crt_cached_ptd_host@@QEBA_NXZ 00000001400251e0 f i libucrtd:output.obj
 0001:000241e0       ?valid@?$cached@K@__crt_cached_ptd_host@@QEBA_NXZ 00000001400251e0 f i libucrtd:output.obj
 0001:000241f0       ?validate@?$c_string_character_source@D@__crt_strtox@@QEBA_NXZ 00000001400251f0 f i libucrtd:output.obj
 0001:000242b0       ?validate@?$c_string_character_source@_W@__crt_strtox@@QEBA_NXZ 00000001400252b0 f i libucrtd:output.obj
 0001:00024370       ?validate@?$string_output_adapter@D@__crt_stdio_output@@QEBA_NAEAV__crt_cached_ptd_host@@@Z 0000000140025370 f i libucrtd:output.obj
 0001:00024450       ?validate@?$string_output_adapter@_W@__crt_stdio_output@@QEBA_NAEAV__crt_cached_ptd_host@@@Z 0000000140025450 f i libucrtd:output.obj
 0001:00024530       ?validate_and_update_state_at_end_of_format_string@?$format_validation_base@DV?$string_output_adapter@D@__crt_stdio_output@@@__crt_stdio_output@@IEAA_NXZ 0000000140025530 f i libucrtd:output.obj
 0001:00024620       ?validate_and_update_state_at_end_of_format_string@?$format_validation_base@_WV?$string_output_adapter@_W@__crt_stdio_output@@@__crt_stdio_output@@IEAA_NXZ 0000000140025620 f i libucrtd:output.obj
 0001:00024710       ?wide_character_to_digit@__crt_strtox@@YAH_W@Z 0000000140025710 f i libucrtd:output.obj
 0001:00024a80       ?wide_null_string@?$output_processor@DV?$string_output_adapter@D@__crt_stdio_output@@V?$format_validation_base@DV?$string_output_adapter@D@__crt_stdio_output@@@2@@__crt_stdio_output@@CAPEA_WXZ 0000000140025a80 f i libucrtd:output.obj
 0001:00024a80       ?wide_null_string@?$output_processor@DV?$string_output_adapter@D@__crt_stdio_output@@V?$standard_base@DV?$string_output_adapter@D@__crt_stdio_output@@@2@@__crt_stdio_output@@CAPEA_WXZ 0000000140025a80 f i libucrtd:output.obj
 0001:00024a80       ?wide_null_string@?$output_processor@_WV?$string_output_adapter@_W@__crt_stdio_output@@V?$format_validation_base@_WV?$string_output_adapter@_W@__crt_stdio_output@@@2@@__crt_stdio_output@@CAPEA_WXZ 0000000140025a80 f i libucrtd:output.obj
 0001:00024a90       ?write_character@?$string_output_adapter@D@__crt_stdio_output@@QEBA_NDQEAHAEAV__crt_cached_ptd_host@@@Z 0000000140025a90 f i libucrtd:output.obj
 0001:00024b60       ?write_character@?$string_output_adapter@_W@__crt_stdio_output@@QEBA_N_WQEAHAEAV__crt_cached_ptd_host@@@Z 0000000140025b60 f i libucrtd:output.obj
 0001:00024c30       ?write_stored_string_tchar@?$output_processor@DV?$string_output_adapter@D@__crt_stdio_output@@V?$format_validation_base@DV?$string_output_adapter@D@__crt_stdio_output@@@2@@__crt_stdio_output@@AEAA_ND@Z 0000000140025c30 f i libucrtd:output.obj
 0001:00024c30       ?write_stored_string_tchar@?$output_processor@DV?$string_output_adapter@D@__crt_stdio_output@@V?$standard_base@DV?$string_output_adapter@D@__crt_stdio_output@@@2@@__crt_stdio_output@@AEAA_ND@Z 0000000140025c30 f i libucrtd:output.obj
 0001:00024de0       ?write_stored_string_tchar@?$output_processor@_WV?$string_output_adapter@_W@__crt_stdio_output@@V?$format_validation_base@_WV?$string_output_adapter@_W@__crt_stdio_output@@@2@@__crt_stdio_output@@AEAA_N_W@Z 0000000140025de0 f i libucrtd:output.obj
 0001:00024f40       ?write_string@?$string_output_adapter@D@__crt_stdio_output@@QEBAXQEBDHQEAHAEAV__crt_cached_ptd_host@@@Z 0000000140025f40 f i libucrtd:output.obj
 0001:000250b0       ?write_string@?$string_output_adapter@_W@__crt_stdio_output@@QEBAXQEB_WHQEAHAEAV__crt_cached_ptd_host@@@Z 00000001400260b0 f i libucrtd:output.obj
 0001:00025220       __acrt_disable_global_locale_sync 0000000140026220 f i libucrtd:output.obj
 0001:00025250       __acrt_enable_global_locale_sync 0000000140026250 f i libucrtd:output.obj
 0001:00025280       __acrt_isleadbyte_l_noupdate 0000000140026280 f i libucrtd:output.obj
 0001:000252b0       __acrt_locale_changed      00000001400262b0 f i libucrtd:output.obj
 0001:000252e0       __acrt_locale_get_ctype_array_value 00000001400262e0 f i libucrtd:output.obj
 0001:00025320       __ascii_iswalpha           0000000140026320 f i libucrtd:output.obj
 0001:00025360       __ascii_toupper            0000000140026360 f i libucrtd:output.obj
 0001:00025380       __ascii_towupper           0000000140026380 f i libucrtd:output.obj
 0001:000253a0       __stdio_common_vsnprintf_s 00000001400263a0 f   libucrtd:output.obj
 0001:00025430       __stdio_common_vsnwprintf_s 0000000140026430 f   libucrtd:output.obj
 0001:000254c0       __stdio_common_vsprintf    00000001400264c0 f   libucrtd:output.obj
 0001:00025550       __stdio_common_vsprintf_s  0000000140026550 f   libucrtd:output.obj
 0001:000255e0       _ctype_fast_check_internal 00000001400265e0 f i libucrtd:output.obj
 0001:00025610       _isdigit_fast_internal     0000000140026610 f i libucrtd:output.obj
 0001:00025640       _tolower_fast_internal     0000000140026640 f i libucrtd:output.obj
 0001:00025670       cosf                       0000000140026670 f   libucrtd:cosf.obj
 0001:00025b70       sinf                       0000000140026b70 f   libucrtd:sinf.obj
 0001:00026270       sqrtf                      0000000140027270 f   libucrtd:sqrtf.obj
 0001:000263b0       tanf                       00000001400273b0 f   libucrtd:tanf.obj
 0001:00026aa0       _seh_filter_exe            0000000140027aa0 f   libucrtd:exception_filter.obj
 0001:00026f40       __acrt_report_runtime_error 0000000140027f40 f   libucrtd:report_runtime_error.obj
 0001:000271c0       _invoke_watson_if_error    00000001400281c0 f i libucrtd:report_runtime_error.obj
 0001:00027210       _query_app_type            0000000140028210 f   libucrtd:report_runtime_error.obj
 0001:00027220       _set_app_type              0000000140028220 f   libucrtd:report_runtime_error.obj
 0001:00027230       ??$__crt_fast_decode_pointer@P6AHPEAU_exception@@@Z@@YAP6AHPEAU_exception@@@ZQ6AH0@Z@Z 0000000140028230 f i libucrtd:matherr.obj
 0001:00027230       ??$__crt_fast_decode_pointer@P6AH_K@Z@@YAP6AH_K@ZQ6AH0@Z@Z 0000000140028230 f i libucrtd:new_handler.obj
 0001:00027230       ??$__crt_fast_decode_pointer@P6AXH@Z@@YAP6AXH@ZQ6AXH@Z@Z 0000000140028230 f i libucrtd:signal.obj
 0001:00027230       ??$__crt_fast_decode_pointer@P6AXPEAXK0@Z@@YAP6AXPEAXK0@ZQ6AX0K0@Z@Z 0000000140028230 f i libucrtd:exit.obj
 0001:00027230       ??$__crt_fast_decode_pointer@P6AXPEB_W00I_K@Z@@YAP6AXPEB_W00I_K@ZQ6AX000I1@Z@Z 0000000140028230 f i libucrtd:invalid_parameter.obj
 0001:00027230       ??$__crt_fast_decode_pointer@P6AXXZ@@YAP6AXXZQ6AXXZ@Z 0000000140028230 f i libucrtd:onexit.obj
 0001:00027230       ??$__crt_fast_decode_pointer@PEAP6AXXZ@@YAPEAP6AXXZQEAP6AXXZ@Z 0000000140028230 f i libucrtd:onexit.obj
 0001:00027230       ??$__crt_fast_decode_pointer@PEAX@@YAPEAXQEAX@Z 0000000140028230 f i libucrtd:winapi_thunks.obj
 0001:00027270       ??$__crt_fast_encode_pointer@P6AHPEAU_exception@@@Z@@YAP6AHPEAU_exception@@@ZQ6AH0@Z@Z 0000000140028270 f i libucrtd:matherr.obj
 0001:00027270       ??$__crt_fast_encode_pointer@P6AHXZ@@YAP6AHXZQ6AHXZ@Z 0000000140028270 f i libucrtd:onexit.obj
 0001:00027270       ??$__crt_fast_encode_pointer@P6AXH@Z@@YAP6AXH@ZQ6AXH@Z@Z 0000000140028270 f i libucrtd:signal.obj
 0001:00027270       ??$__crt_fast_encode_pointer@P6AXPEAXK0@Z@@YAP6AXPEAXK0@ZQ6AX0K0@Z@Z 0000000140028270 f i libucrtd:exit.obj
 0001:00027270       ??$__crt_fast_encode_pointer@P6AXXZ@@YAP6AXXZQ6AXXZ@Z 0000000140028270 f i libucrtd:onexit.obj
 0001:00027270       ??$__crt_fast_encode_pointer@PEAP6AXXZ@@YAPEAP6AXXZQEAP6AXXZ@Z 0000000140028270 f i libucrtd:onexit.obj
 0001:00027270       ??$__crt_fast_encode_pointer@PEAX@@YAPEAXQEAX@Z 0000000140028270 f i libucrtd:initialization.obj
 0001:000272b0       ?__crt_rotate_pointer_value@@YA_K_KH@Z 00000001400282b0 f i libucrtd:matherr.obj
 0001:000272d0       ?initialize@?$dual_state_global@P6AHPEAU_exception@@@Z@__crt_state_management@@QEAAXQ6AHPEAU_exception@@@Z@Z 00000001400282d0 f i libucrtd:matherr.obj
 0001:000272d0       ?initialize@?$dual_state_global@P6AH_K@Z@__crt_state_management@@QEAAXQ6AH_K@Z@Z 00000001400282d0 f i libucrtd:new_handler.obj
 0001:000272d0       ?initialize@?$dual_state_global@P6AXH@Z@__crt_state_management@@QEAAXQ6AXH@Z@Z 00000001400282d0 f i libucrtd:signal.obj
 0001:000272d0       ?initialize@?$dual_state_global@PEAPEAD@__crt_state_management@@QEAAXQEAPEAD@Z 00000001400282d0 f i libucrtd:environment_initialization.obj
 0001:000272d0       ?initialize@?$dual_state_global@PEAU__crt_locale_data@@@__crt_state_management@@QEAAXQEAU__crt_locale_data@@@Z 00000001400282d0 f i libucrtd:initialization.obj
 0001:000272d0       ?initialize@?$dual_state_global@PEAU__crt_multibyte_data@@@__crt_state_management@@QEAAXQEAU__crt_multibyte_data@@@Z 00000001400282d0 f i libucrtd:mbctype.obj
 0001:00027320       ?value@?$dual_state_global@P6AHPEAU_exception@@@Z@__crt_state_management@@QEAAAEAP6AHPEAU_exception@@@ZXZ 0000000140028320 f i libucrtd:matherr.obj
 0001:00027320       ?value@?$dual_state_global@P6AH_K@Z@__crt_state_management@@QEAAAEAP6AH_K@ZXZ 0000000140028320 f i libucrtd:new_handler.obj
 0001:00027320       ?value@?$dual_state_global@P6AXH@Z@__crt_state_management@@QEAAAEAP6AXH@ZXZ 0000000140028320 f i libucrtd:signal.obj
 0001:00027320       ?value@?$dual_state_global@PEAE@__crt_state_management@@QEAAAEAPEAEXZ 0000000140028320 f i libucrtd:mbctype.obj
 0001:00027320       ?value@?$dual_state_global@PEAPEAD@__crt_state_management@@QEAAAEAPEAPEADXZ 0000000140028320 f i libucrtd:environment_initialization.obj
 0001:00027320       ?value@?$dual_state_global@PEAU__crt_locale_data@@@__crt_state_management@@QEAAAEAPEAU__crt_locale_data@@XZ 0000000140028320 f i libucrtd:wsetlocale.obj
 0001:00027320       ?value@?$dual_state_global@PEAU__crt_multibyte_data@@@__crt_state_management@@QEAAAEAPEAU__crt_multibyte_data@@XZ 0000000140028320 f i libucrtd:locale_update.obj
 0001:00027340       __acrt_has_user_matherr    0000000140028340 f   libucrtd:matherr.obj
 0001:00027380       __acrt_initialize_user_matherr 0000000140028380 f   libucrtd:matherr.obj
 0001:000273a0       __acrt_invoke_user_matherr 00000001400283a0 f   libucrtd:matherr.obj
 0001:00027410       __setusermatherr           0000000140028410 f   libucrtd:matherr.obj
 0001:00027450       ??$?RE@__crt_internal_free_policy@@QEBAXQEBE@Z 0000000140028450 f i libucrtd:argv_parsing.obj
 0001:00027450       ??$?RP6AXXZ@__crt_internal_free_policy@@QEBAXQEBQ6AXXZ@Z 0000000140028450 f i libucrtd:onexit.obj
 0001:00027450       ??$?RPEAD@__crt_internal_free_policy@@QEBAXQEBQEAD@Z 0000000140028450 f i libucrtd:argv_parsing.obj
 0001:00027450       ??$?RPEAU__crt_stdio_stream_data@@@__crt_internal_free_policy@@QEBAXQEBQEAU__crt_stdio_stream_data@@@Z 0000000140028450 f i libucrtd:_file.obj
 0001:00027450       ??$?RU__acrt_ptd@@@__crt_internal_free_policy@@QEBAXQEBU__acrt_ptd@@@Z 0000000140028450 f i libucrtd:per_thread_data.obj
 0001:00027450       ??$?RU__crt_lowio_handle_data@@@__crt_internal_free_policy@@QEBAXQEBU__crt_lowio_handle_data@@@Z 0000000140028450 f i libucrtd:osfinfo.obj
 0001:00027450       ??$?RU__crt_multibyte_data@@@__crt_internal_free_policy@@QEBAXQEBU__crt_multibyte_data@@@Z 0000000140028450 f i libucrtd:wsetlocale.obj
 0001:00027810       ??$get_module_file_name@$$TAEAY0BAF@DH@?$__crt_char_traits@D@@SAK$$QEA$$TAEAY0BAF@D$$QEAH@Z 0000000140028810 f i libucrtd:argv_parsing.obj
 0001:00027810       ??$get_module_file_name@AEAPEAUHINSTANCE__@@AEAY0BAF@DK@?$__crt_char_traits@D@@SAKAEAPEAUHINSTANCE__@@AEAY0BAF@D$$QEAK@Z 0000000140028810 f i libucrtd:dbgrpt.obj
 0001:00027d20       ??$set_program_name@PEAD@?$__crt_char_traits@D@@SAX$$QEAPEAD@Z 0000000140028d20 f i libucrtd:argv_parsing.obj
 0001:00027d40       ??1?$__crt_unique_heap_ptr@EU__crt_internal_free_policy@@@@QEAA@XZ 0000000140028d40 f i libucrtd:argv_parsing.obj
 0001:00027d40       ??1?$__crt_unique_heap_ptr@P6AXXZU__crt_internal_free_policy@@@@QEAA@XZ 0000000140028d40 f i libucrtd:onexit.obj
 0001:00027d40       ??1?$__crt_unique_heap_ptr@PEADU__crt_internal_free_policy@@@@QEAA@XZ 0000000140028d40 f i libucrtd:argv_parsing.obj
 0001:00027d40       ??1?$__crt_unique_heap_ptr@PEAU__crt_stdio_stream_data@@U__crt_internal_free_policy@@@@QEAA@XZ 0000000140028d40 f i libucrtd:_file.obj
 0001:00027d40       ??1?$__crt_unique_heap_ptr@U__acrt_ptd@@U__crt_internal_free_policy@@@@QEAA@XZ 0000000140028d40 f i libucrtd:per_thread_data.obj
 0001:00027d40       ??1?$__crt_unique_heap_ptr@U__crt_lowio_handle_data@@U__crt_internal_free_policy@@@@QEAA@XZ 0000000140028d40 f i libucrtd:osfinfo.obj
 0001:00027d40       ??1?$__crt_unique_heap_ptr@U__crt_multibyte_data@@U__crt_internal_free_policy@@@@QEAA@XZ 0000000140028d40 f i libucrtd:wsetlocale.obj
 0001:00027e10       ?dangerous_get_state_array@?$dual_state_global@H@__crt_state_management@@QEAAPEAHXZ 0000000140028e10 f i libucrtd:txtmode.obj
 0001:00027e10       ?dangerous_get_state_array@?$dual_state_global@P6AXPEB_W00I_K@Z@__crt_state_management@@QEAAPEAP6AXPEB_W00I_K@ZXZ 0000000140028e10 f i libucrtd:invalid_parameter.obj
 0001:00027e10       ?dangerous_get_state_array@?$dual_state_global@PEAE@__crt_state_management@@QEAAPEAPEAEXZ 0000000140028e10 f i libucrtd:mbctype.obj
 0001:00027e10       ?dangerous_get_state_array@?$dual_state_global@PEAU__crt_locale_data@@@__crt_state_management@@QEAAPEAPEAU__crt_locale_data@@XZ 0000000140028e10 f i libucrtd:per_thread_data.obj
 0001:00027e10       ?dangerous_get_state_array@?$dual_state_global@PEAU__crt_multibyte_data@@@__crt_state_management@@QEAAPEAPEAU__crt_multibyte_data@@XZ 0000000140028e10 f i libucrtd:mbctype.obj
 0001:00027e10       ?debug_info@?$__crt_win32_buffer@DU__crt_win32_buffer_internal_dynamic_resizing@@@@QEBAAEBV__crt_win32_buffer_empty_debug_info@@XZ 0000000140028e10 f i libucrtd:argv_wildcards.obj
 0001:00027e10       ?debug_info@?$__crt_win32_buffer@DU__crt_win32_buffer_no_resizing@@@@QEBAAEBV__crt_win32_buffer_empty_debug_info@@XZ 0000000140028e10 f i libucrtd:getmodulefilenamea.obj
 0001:00027e10       ?debug_info@?$__crt_win32_buffer@_WU__crt_win32_buffer_internal_dynamic_resizing@@@@QEBAAEBV__crt_win32_buffer_empty_debug_info@@XZ 0000000140028e10 f i libucrtd:argv_wildcards.obj
 0001:00027e10       ?get_address_of@?$__crt_unique_handle_t@U__crt_hmodule_traits@@@@QEAAPEAPEAUHINSTANCE__@@XZ 0000000140028e10 f i libucrtd:exit.obj
 0001:00027e10       ?get_address_of@?$__crt_unique_heap_ptr@PEADU__crt_internal_free_policy@@@@QEAAPEAPEAPEADXZ 0000000140028e10 f i libucrtd:argv_parsing.obj
 0001:00027e40       ?release@?$__crt_unique_heap_ptr@EU__crt_internal_free_policy@@@@QEAAXXZ 0000000140028e40 f i libucrtd:argv_parsing.obj
 0001:00027e40       ?release@?$__crt_unique_heap_ptr@P6AXXZU__crt_internal_free_policy@@@@QEAAXXZ 0000000140028e40 f i libucrtd:onexit.obj
 0001:00027e40       ?release@?$__crt_unique_heap_ptr@PEADU__crt_internal_free_policy@@@@QEAAXXZ 0000000140028e40 f i libucrtd:argv_parsing.obj
 0001:00027e40       ?release@?$__crt_unique_heap_ptr@PEAU__crt_stdio_stream_data@@U__crt_internal_free_policy@@@@QEAAXXZ 0000000140028e40 f i libucrtd:_file.obj
 0001:00027e40       ?release@?$__crt_unique_heap_ptr@U__acrt_ptd@@U__crt_internal_free_policy@@@@QEAAXXZ 0000000140028e40 f i libucrtd:per_thread_data.obj
 0001:00027e40       ?release@?$__crt_unique_heap_ptr@U__crt_lowio_handle_data@@U__crt_internal_free_policy@@@@QEAAXXZ 0000000140028e40 f i libucrtd:osfinfo.obj
 0001:00027e40       ?release@?$__crt_unique_heap_ptr@U__crt_multibyte_data@@U__crt_internal_free_policy@@@@QEAAXXZ 0000000140028e40 f i libucrtd:wsetlocale.obj
 0001:00027eb0       __acrt_allocate_buffer_for_argv 0000000140028eb0 f   libucrtd:argv_parsing.obj
 0001:00027fd0       _configure_narrow_argv     0000000140028fd0 f   libucrtd:argv_parsing.obj
 0001:00027ff0       _set_pgmptr                0000000140028ff0 f i libucrtd:argv_parsing.obj
 0001:00028420       ??$get_environment_from_os@$$V@?$__crt_char_traits@D@@SAPEADXZ 0000000140029420 f i libucrtd:environment_initialization.obj
 0001:00028430       ??$tcscpy_s@PEADAEB_KAEAPEAD@?$__crt_char_traits@D@@SAH$$QEAPEADAEB_KAEAPEAD@Z 0000000140029430 f i libucrtd:environment_initialization.obj
 0001:00028470       ??$tcslen@AEAPEAD@?$__crt_char_traits@D@@SA_KAEAPEAD@Z 0000000140029470 f i libucrtd:environment_initialization.obj
 0001:00028470       ??$tcslen@AEBQEBD@?$__crt_char_traits@D@@SA_KAEBQEBD@Z 0000000140029470 f i libucrtd:dbgrpt.obj
 0001:00028490       ??$uninitialize@A6AXAEAPEAPEAD@_E@?$dual_state_global@PEAPEAD@__crt_state_management@@QEAAXA6AXAEAPEAPEAD@_E@Z 0000000140029490 f i libucrtd:environment_initialization.obj
 0001:00028510       ??$uninitialize@A6AXAEAPEAPEA_W@_E@?$dual_state_global@PEAPEA_W@__crt_state_management@@QEAAXA6AXAEAPEAPEA_W@_E@Z 0000000140029510 f i libucrtd:environment_initialization.obj
 0001:00028660       __dcrt_uninitialize_environments_nolock 0000000140029660 f   libucrtd:environment_initialization.obj
 0001:000286b0       _initialize_narrow_environment 00000001400296b0 f   libucrtd:environment_initialization.obj
 0001:00028800       _get_narrow_winmain_command_line 0000000140029800 f   libucrtd:argv_winmain.obj
 0001:00028810       _initterm                  0000000140029810 f   libucrtd:initterm.obj
 0001:00028880       _initterm_e                0000000140029880 f   libucrtd:initterm.obj
 0001:00028900       ??$?B$$A6AXH@Z@__crt_fast_encoded_nullptr_t@@QEBAP6AXH@ZXZ 0000000140029900 f i libucrtd:signal.obj
 0001:00028900       ??$?B$$A6AXPEAXK0@Z@__crt_fast_encoded_nullptr_t@@QEBAP6AXPEAXK0@ZXZ 0000000140029900 f i libucrtd:exit.obj
 0001:00028900       ??$?B$$A6AXXZ@__crt_fast_encoded_nullptr_t@@QEBAP6AXXZXZ 0000000140029900 f i libucrtd:onexit.obj
 0001:00028900       ??$?BP6AXXZ@__crt_fast_encoded_nullptr_t@@QEBAPEAP6AXXZXZ 0000000140029900 f i libucrtd:onexit.obj
 0001:00028900       ??$?BX@__crt_fast_encoded_nullptr_t@@QEBAPEAXXZ 0000000140029900 f i libucrtd:initialization.obj
 0001:000289c0       ??$__crt_get_proc_address@P6AXI@Z@@YAP6AXI@ZQEAUHINSTANCE__@@QEBD@Z 00000001400299c0 f i libucrtd:exit.obj
 0001:00028a60       ??1?$__crt_unique_handle_t@U__crt_hmodule_traits@@@@QEAA@XZ 0000000140029a60 f i libucrtd:exit.obj
 0001:00028be0       ?__acrt_select_exit_lock@@YA?AW4__acrt_lock_id@@XZ 0000000140029be0 f i libucrtd:exit.obj
 0001:00028bf0       ?__crt_fast_encode_pointer@@YA?AU__crt_fast_encoded_nullptr_t@@$$T@Z 0000000140029bf0 f i libucrtd:exit.obj
 0001:00028c30       ?close@?$__crt_unique_handle_t@U__crt_hmodule_traits@@@@QEAAXXZ 0000000140029c30 f i libucrtd:exit.obj
 0001:00028c70       ?close@__crt_hmodule_traits@@SA_NPEAUHINSTANCE__@@@Z 0000000140029c70 f i libucrtd:exit.obj
 0001:00028f60       __acrt_initialize_thread_local_exit_callback 0000000140029f60 f   libucrtd:exit.obj
 0001:00028f80       _c_exit                    0000000140029f80 f   libucrtd:exit.obj
 0001:00028fa0       _cexit                     0000000140029fa0 f   libucrtd:exit.obj
 0001:00028fc0       _exit                      0000000140029fc0 f   libucrtd:exit.obj
 0001:00028fe0       _register_thread_local_exe_atexit_callback 0000000140029fe0 f   libucrtd:exit.obj
 0001:00029030       exit                       000000014002a030 f   libucrtd:exit.obj
 0001:00029050       ?value@?$dual_state_global@H@__crt_state_management@@QEAAAEAHXZ 000000014002a050 f i libucrtd:setmode.obj
 0001:00029050       ?value@?$dual_state_global@J@__crt_state_management@@QEAAAEAJXZ 000000014002a050 f i libucrtd:new_mode.obj
 0001:00029070       _set_fmode                 000000014002a070 f   libucrtd:setmode.obj
 0001:000292d0       __acrt_set_locale_changed  000000014002a2d0 f   libucrtd:wsetlocale.obj
 0001:000292e0       __acrt_uninitialize_locale 000000014002a2e0 f   libucrtd:wsetlocale.obj
 0001:00029310       __ascii_tolower            000000014002a310 f i libucrtd:wsetlocale.obj
 0001:00029330       __ascii_towlower           000000014002a330 f i libucrtd:wsetlocale.obj
 0001:00029350       _configthreadlocale        000000014002a350 f   libucrtd:wsetlocale.obj
 0001:000294b0       _query_new_mode            000000014002a4b0 f   libucrtd:new_mode.obj
 0001:000294d0       _set_new_mode              000000014002a4d0 f   libucrtd:new_mode.obj
 0001:000295a0       __p__commode               000000014002a5a0 f   libucrtd:ncommode.obj
 0001:00029c80       _crt_atexit                000000014002ac80 f   libucrtd:onexit.obj
 0001:00029ca0       _execute_onexit_table      000000014002aca0 f   libucrtd:onexit.obj
 0001:00029ce0       _initialize_onexit_table   000000014002ace0 f   libucrtd:onexit.obj
 0001:00029d60       _register_onexit_function  000000014002ad60 f   libucrtd:onexit.obj
 0001:00029e00       __acrt_uninitialize_command_line 000000014002ae00 f   libucrtd:argv_data.obj
 0001:0002a070       __acrt_initialize          000000014002b070 f   libucrtd:initialization.obj
 0001:0002a0a0       __acrt_uninitialize        000000014002b0a0 f   libucrtd:initialization.obj
 0001:0002a0d0       terminate                  000000014002b0d0 f   libucrtd:terminate.obj
 0001:0002a120       abort                      000000014002b120 f   libucrtd:abort.obj
 0001:0002a1a0       ??0_LocaleUpdate@@QEAA@QEAU__crt_locale_pointers@@@Z 000000014002b1a0 f i libucrtd:debug_heap.obj
 0001:0002a2c0       ??1_LocaleUpdate@@QEAA@XZ  000000014002b2c0 f i libucrtd:debug_heap.obj
 0001:0002a2f0       ?GetLocaleT@_LocaleUpdate@@QEAAPEAU__crt_locale_pointers@@XZ 000000014002b2f0 f i libucrtd:debug_heap.obj
 0001:0002c6a0       _CrtCheckMemory            000000014002d6a0 f   libucrtd:debug_heap.obj
 0001:0002c830       _CrtDumpMemoryLeaks        000000014002d830 f   libucrtd:debug_heap.obj
 0001:0002c8f0       _CrtIsValidHeapPointer     000000014002d8f0 f   libucrtd:debug_heap.obj
 0001:0002c940       _CrtIsValidPointer         000000014002d940 f   libucrtd:debug_heap.obj
 0001:0002c980       _CrtMemCheckpoint          000000014002d980 f   libucrtd:debug_heap.obj
 0001:0002cc00       _CrtMemDumpAllObjectsSince 000000014002dc00 f   libucrtd:debug_heap.obj
 0001:0002cc60       _CrtSetDbgFlag             000000014002dc60 f   libucrtd:debug_heap.obj
 0001:0002cdc0       _CrtSetDumpClient          000000014002ddc0 f   libucrtd:debug_heap.obj
 0001:0002cdf0       __acrt_get_locale_data_prefix 000000014002ddf0 f i libucrtd:debug_heap.obj
 0001:0002ce10       _calloc_dbg                000000014002de10 f   libucrtd:debug_heap.obj
 0001:0002ceb0       _chvalidchk_l              000000014002deb0 f i libucrtd:debug_heap.obj
 0001:0002cee0       _free_dbg                  000000014002dee0 f   libucrtd:debug_heap.obj
 0001:0002cf50       _invoke_watson_if_oneof    000000014002df50 f i libucrtd:debug_heap.obj
 0001:0002cfb0       _ischartype_l              000000014002dfb0 f i libucrtd:debug_heap.obj
 0001:0002d040       _malloc_dbg                000000014002e040 f   libucrtd:debug_heap.obj
 0001:0002d080       _msize_dbg                 000000014002e080 f   libucrtd:debug_heap.obj
 0001:0002d220       _realloc_dbg               000000014002e220 f   libucrtd:debug_heap.obj
 0001:0002d290       _recalloc_dbg              000000014002e290 f   libucrtd:debug_heap.obj
 0001:0002d870       strcpy_s                   000000014002e870 f   libucrtd:strcpy_s.obj
 0001:0002d8b0       strcmp                     000000014002e8b0 f   libucrtd:strcmp.obj
 0001:0002d930       strlen                     000000014002e930 f   libucrtd:strlen.obj
 0001:0002d9e0       ??$initialize_from_array@$$BY00Q6AXPEB_W00I_K@Z@?$dual_state_global@P6AXPEB_W00I_K@Z@__crt_state_management@@QEAAXAEAY00Q6AXPEB_W00I_K@Z@Z 000000014002e9e0 f i libucrtd:invalid_parameter.obj
 0001:0002dae0       ?check_synchronize_global_state_index@__crt_cached_ptd_host@@AEAA_KXZ 000000014002eae0 f i libucrtd:invalid_parameter.obj
 0001:0002db40       ?get_current_global_state_index@__crt_cached_ptd_host@@QEAA_KXZ 000000014002eb40 f i libucrtd:invalid_parameter.obj
 0001:0002db60       ?get_raw_ptd_noexit@__crt_cached_ptd_host@@QEAAPEAU__acrt_ptd@@XZ 000000014002eb60 f i libucrtd:invalid_parameter.obj
 0001:0002db80       ?try_synchronize_per_thread_data@__crt_cached_ptd_host@@AEAAPEAU__acrt_ptd@@XZ 000000014002eb80 f i libucrtd:invalid_parameter.obj
 0001:0002dbb0       ?value@?$dual_state_global@P6AXPEB_W00I_K@Z@__crt_state_management@@QEAAAEAP6AXPEB_W00I_K@ZAEAV__crt_cached_ptd_host@@@Z 000000014002ebb0 f i libucrtd:invalid_parameter.obj
 0001:0002dbe0       __acrt_call_reportfault    000000014002ebe0 f   libucrtd:invalid_parameter.obj
 0001:0002dd10       __acrt_initialize_invalid_parameter_handler 000000014002ed10 f   libucrtd:invalid_parameter.obj
 0001:0002dd40       _invalid_parameter         000000014002ed40 f   libucrtd:invalid_parameter.obj
 0001:0002ddb0       _invalid_parameter_internal 000000014002edb0 f   libucrtd:invalid_parameter.obj
 0001:0002df00       _invalid_parameter_noinfo  000000014002ef00 f   libucrtd:invalid_parameter.obj
 0001:0002df30       _invoke_watson             000000014002ef30 f   libucrtd:invalid_parameter.obj
 0001:0002ed40       ??$get_module_file_name@AEAPEAUHINSTANCE__@@AEAY0BAF@_WK@?$__crt_char_traits@_W@@SAKAEAPEAUHINSTANCE__@@AEAY0BAF@_W$$QEAK@Z 000000014002fd40 f i libucrtd:dbgrpt.obj
 0001:0002ed80       ??$tcscpy_s@AEAY0BAF@D_KPEBD@?$__crt_char_traits@D@@SAHAEAY0BAF@D$$QEA_K$$QEAPEBD@Z 000000014002fd80 f i libucrtd:dbgrpt.obj
 0001:0002edc0       ??$tcscpy_s@AEAY0BAF@_W_KPEB_W@?$__crt_char_traits@_W@@SAHAEAY0BAF@_W$$QEA_K$$QEAPEB_W@Z 000000014002fdc0 f i libucrtd:dbgrpt.obj
 0001:0002ee00       ??$tcslen@AEAY0BAF@D@?$__crt_char_traits@D@@SA_KAEAY0BAF@D@Z 000000014002fe00 f i libucrtd:dbgrpt.obj
 0001:0002ee20       ??$tcslen@AEAY0BAF@_W@?$__crt_char_traits@_W@@SA_KAEAY0BAF@_W@Z 000000014002fe20 f i libucrtd:dbgrpt.obj
 0001:0002ee40       ??$tcslen@AEBQEB_W@?$__crt_char_traits@_W@@SA_KAEBQEB_W@Z 000000014002fe40 f i libucrtd:dbgrpt.obj
 0001:0002eea0       _CrtDbgReport              000000014002fea0 f   libucrtd:dbgrpt.obj
 0001:0002ef20       _CrtDbgReportW             000000014002ff20 f   libucrtd:dbgrpt.obj
 0001:0002efa0       __acrt_MessageWindowA      000000014002ffa0 f   libucrtd:dbgrpt.obj
 0001:0002eff0       __acrt_MessageWindowW      000000014002fff0 f   libucrtd:dbgrpt.obj
 0001:0002f040       _snwprintf_s               0000000140030040 f i libucrtd:dbgrpt.obj
 0001:0002f0b0       _vsnwprintf_s_l            00000001400300b0 f i libucrtd:dbgrpt.obj
 0001:0002f140       strncmp                    0000000140030140 f   libucrtd:strncmp.obj
 0001:0002f1c0       wcsncmp                    00000001400301c0 f   libucrtd:wcsncmp.obj
 0001:0002f250       free                       0000000140030250 f   libucrtd:free.obj
 0001:0002f280       malloc                     0000000140030280 f   libucrtd:malloc.obj
 0001:0002f2b0       _CrtGetDebugFillThreshold  00000001400302b0 f   libucrtd:debug_fill_threshold.obj
 0001:0002f2c0       ?get_doserrno@__crt_cached_ptd_host@@QEAAAEAU?$cached@K@1@XZ 00000001400302c0 f i libucrtd:errno.obj
 0001:0002f2d0       __acrt_errno_from_os_error 00000001400302d0 f   libucrtd:errno.obj
 0001:0002f360       __acrt_errno_map_os_error  0000000140030360 f   libucrtd:errno.obj
 0001:0002f390       __acrt_errno_map_os_error_ptd 0000000140030390 f   libucrtd:errno.obj
 0001:0002f3f0       __doserrno                 00000001400303f0 f   libucrtd:errno.obj
 0001:0002f420       _errno                     0000000140030420 f   libucrtd:errno.obj
 0001:000307b0       ??1?$__crt_simd_cleanup_guard@$00@@QEAA@XZ 00000001400317b0 f i libucrtd:strnlen.obj
 0001:000307c0       ?compare_equals@?$__crt_simd_traits@$00E@@SA?AT__m256i@@T2@0@Z 00000001400317c0 f i libucrtd:strnlen.obj
 0001:00030800       ?compare_equals@?$__crt_simd_traits@$00G@@SA?AT__m256i@@T2@0@Z 0000000140031800 f i libucrtd:strnlen.obj
 0001:00030840       ?compare_equals@?$__crt_simd_traits@$0A@E@@SA?AT__m128i@@T2@0@Z 0000000140031840 f i libucrtd:strnlen.obj
 0001:00030870       ?compare_equals@?$__crt_simd_traits@$0A@G@@SA?AT__m128i@@T2@0@Z 0000000140031870 f i libucrtd:strnlen.obj
 0001:000308a0       ?compute_byte_mask@?$__crt_simd_pack_traits@$00@@SAHT__m256i@@@Z 00000001400318a0 f i libucrtd:strnlen.obj
 0001:000308c0       ?compute_byte_mask@?$__crt_simd_pack_traits@$0A@@@SAHT__m128i@@@Z 00000001400318c0 f i libucrtd:strnlen.obj
 0001:000308e0       ?get_zero_pack@?$__crt_simd_pack_traits@$00@@SA?AT__m256i@@XZ 00000001400318e0 f i libucrtd:strnlen.obj
 0001:00030910       ?get_zero_pack@?$__crt_simd_pack_traits@$0A@@@SA?AT__m128i@@XZ 0000000140031910 f i libucrtd:strnlen.obj
 0001:00030930       strnlen                    0000000140031930 f   libucrtd:strnlen.obj
 0001:00030960       wcslen                     0000000140031960 f   libucrtd:strnlen.obj
 0001:00030980       wcsnlen                    0000000140031980 f   libucrtd:strnlen.obj
 0001:000309b0       ?value_explicit@?$dual_state_global@PEAU__crt_locale_data@@@__crt_state_management@@QEAAAEAPEAU__crt_locale_data@@_K@Z 00000001400319b0 f i libucrtd:locale_update.obj
 0001:000309b0       ?value_explicit@?$dual_state_global@PEAU__crt_multibyte_data@@@__crt_state_management@@QEAAAEAPEAU__crt_multibyte_data@@_K@Z 00000001400319b0 f i libucrtd:locale_update.obj
 0001:000309d0       __acrt_should_sync_with_global_locale 00000001400319d0 f i libucrtd:locale_update.obj
 0001:00030a10       __acrt_update_locale_info  0000000140031a10 f   libucrtd:locale_update.obj
 0001:00030a60       __acrt_update_locale_info_explicit 0000000140031a60 f   libucrtd:locale_update.obj
 0001:00030ac0       __acrt_update_multibyte_info 0000000140031ac0 f   libucrtd:locale_update.obj
 0001:00030b10       __acrt_update_multibyte_info_explicit 0000000140031b10 f   libucrtd:locale_update.obj
 0001:00030b70       ?__acrt_fp_classify@@YA?AW4__acrt_fp_class@@AEBN@Z 0000000140031b70 f i libucrtd:cvt.obj
 0001:00030c70       ?__acrt_fp_is_negative@@YA_NAEBN@Z 0000000140031c70 f i libucrtd:cvt.obj
 0001:00032590       ?strrchr@@YAPEADQEADH@Z    0000000140033590 f i libucrtd:cvt.obj
 0001:000325b0       __acrt_fp_format           00000001400335b0 f   libucrtd:cvt.obj
 0001:00032c70       ?value_or@?$cached@H@__crt_cached_ptd_host@@QEBAHH@Z 0000000140033c70 f i libucrtd:wctomb.obj
 0001:00032ca0       _wctomb_internal           0000000140033ca0 f   libucrtd:wctomb.obj
 0001:00033200       _isleadbyte_fast_internal  0000000140034200 f i libucrtd:mbtowc.obj
 0001:00033230       _mbtowc_internal           0000000140034230 f   libucrtd:mbtowc.obj
 0001:000335c0       ?lowio_handle@__crt_stdio_stream@@QEBAHXZ 00000001400345c0 f i libucrtd:fileno.obj
 0001:000335f0       _fileno                    00000001400345f0 f   libucrtd:fileno.obj
 0001:000336d0       __acrt_initialize_stdio    00000001400346d0 f   libucrtd:_file.obj
 0001:000338c0       __acrt_uninitialize_stdio  00000001400348c0 f   libucrtd:_file.obj
 0001:00033950       _lock_file                 0000000140034950 f   libucrtd:_file.obj
 0001:00033990       _unlock_file               0000000140034990 f   libucrtd:_file.obj
 0001:000339d0       _get_printf_count_output   00000001400349d0 f   libucrtd:printf_count_output.obj
 0001:00033a00       ?has_any_of@__crt_stdio_stream@@QEBA_NJ@Z 0000000140034a00 f i libucrtd:_sftbuf.obj
 0001:00033a40       ?set_flags@__crt_stdio_stream@@QEBA_NJ@Z 0000000140034a40 f i libucrtd:_sftbuf.obj
 0001:00033ab0       ?unset_flags@__crt_stdio_stream@@QEBA_NJ@Z 0000000140034ab0 f i libucrtd:_sftbuf.obj
 0001:00034450       __acrt_getptd              0000000140035450 f   libucrtd:per_thread_data.obj
 0001:00034480       __acrt_getptd_head         0000000140035480 f   libucrtd:per_thread_data.obj
 0001:000344b0       __acrt_getptd_noexit       00000001400354b0 f   libucrtd:per_thread_data.obj
 0001:000344c0       __acrt_getptd_noexit_explicit 00000001400354c0 f   libucrtd:per_thread_data.obj
 0001:000344f0       __acrt_initialize_ptd      00000001400354f0 f   libucrtd:per_thread_data.obj
 0001:00034530       __acrt_uninitialize_ptd    0000000140035530 f   libucrtd:per_thread_data.obj
 0001:00034900       __acrt_initialize_lowio    0000000140035900 f   libucrtd:ioinit.obj
 0001:00034950       __acrt_uninitialize_lowio  0000000140035950 f   libucrtd:ioinit.obj
 0001:000349d0       __remainder_piby2d2f_forAsm 00000001400359d0 f   libucrtd:remainder_piby2f_forasm.obj
 0001:00034b20       __remainder_piby2_fma3     0000000140035b20 f   libucrtd:remainder_piby2_forfma3.obj
 0001:00034d10       __remainder_piby2_fma3_bdl 0000000140035d10 f   libucrtd:remainder_piby2_forfma3.obj
 0001:00034d90       _cosf_special              0000000140035d90 f   libucrtd:sincos_special.obj
 0001:00034ed0       _sinf_special              0000000140035ed0 f   libucrtd:sincos_special.obj
 0001:00034f00       _tanf_special              0000000140035f00 f   libucrtd:sincos_special.obj
 0001:00034f30       _clrfp                     0000000140035f30 f   libucrtd:fpctrl.obj
 0001:00034f60       _ctrlfp                    0000000140035f60 f   libucrtd:fpctrl.obj
 0001:00035010       _set_statfp                0000000140036010 f   libucrtd:fpctrl.obj
 0001:00035050       _statfp                    0000000140036050 f   libucrtd:fpctrl.obj
 0001:00035080       __acrt_initialize_fma3     0000000140036080 f   libucrtd:fma3_available.obj
 0001:00035130       __remainder_piby2d2f_forC  0000000140036130 f   libucrtd:remainder_piby2f_forc.obj
 0001:00035490       _handle_error              0000000140036490 f   libucrtd:libm_error.obj
 0001:00035620       _handle_errorf             0000000140036620 f   libucrtd:libm_error.obj
 0001:000357b0       _handle_nan                00000001400367b0 f   libucrtd:libm_error.obj
 0001:00035800       _handle_nanf               0000000140036800 f   libucrtd:libm_error.obj
 0001:00035840       _set_error_mode            0000000140036840 f   libucrtd:set_error_mode.obj
 0001:00035fd0       wcscat_s                   0000000140036fd0 f   libucrtd:wcscat_s.obj
 0001:00036500       wcscpy_s                   0000000140037500 f   libucrtd:wcscpy_s.obj
 0001:00036be0       wcsncpy_s                  0000000140037be0 f   libucrtd:wcsncpy_s.obj
 0001:00036d60       ??$message_box@$$TAEBQEB_WAEBQEB_WK@?$__crt_char_traits@_W@@SAH$$QEA$$TAEBQEB_W1$$QEAK@Z 0000000140037d60 f i libucrtd:crtmbox.obj
 0001:00036d60       ??$message_box@PEAUHWND__@@AEBQEB_WAEBQEB_WAEBI@?$__crt_char_traits@_W@@SAH$$QEAPEAUHWND__@@AEBQEB_W1AEBI@Z 0000000140037d60 f i libucrtd:crtmbox.obj
 0001:00036db0       ??$output_debug_string@AEBQEB_W@?$__crt_char_traits@_W@@SAXAEBQEB_W@Z 0000000140037db0 f i libucrtd:crtmbox.obj
 0001:00036dd0       __acrt_show_wide_message_box 0000000140037dd0 f   libucrtd:crtmbox.obj
 0001:00036e30       ??$__acrt_convert_wcs_mbs_cp@D_WV<lambda_7c9dea7b4ca7285d2cdb541a38da6275>@@U__crt_win32_buffer_internal_dynamic_resizing@@@@YAHQEBDAEAV?$__crt_win32_buffer@_WU__crt_win32_buffer_internal_dynamic_resizing@@@@AEBV<lambda_7c9dea7b4ca7285d2cdb541a38da6275>@@I@Z 0000000140037e30 f i libucrtd:argv_wildcards.obj
 0001:00036fe0       ??$__acrt_convert_wcs_mbs_cp@_WDV<lambda_d8593a27d1aa8c02be35c86a17d324c4>@@U__crt_win32_buffer_internal_dynamic_resizing@@@@YAHQEB_WAEAV?$__crt_win32_buffer@DU__crt_win32_buffer_internal_dynamic_resizing@@@@AEBV<lambda_d8593a27d1aa8c02be35c86a17d324c4>@@I@Z 0000000140037fe0 f i libucrtd:argv_wildcards.obj
 0001:00037190       ??$__acrt_mbs_to_wcs_cp@U__crt_win32_buffer_internal_dynamic_resizing@@@@YAHQEBDAEAV?$__crt_win32_buffer@_WU__crt_win32_buffer_internal_dynamic_resizing@@@@I@Z 0000000140038190 f i libucrtd:argv_wildcards.obj
 0001:000371e0       ??$__acrt_wcs_to_mbs_cp@U__crt_win32_buffer_internal_dynamic_resizing@@@@YAHQEB_WAEAV?$__crt_win32_buffer@DU__crt_win32_buffer_internal_dynamic_resizing@@@@I@Z 00000001400381e0 f i libucrtd:argv_wildcards.obj
 0001:00037c20       ??$tcsncpy_s@AEAPEAD_KAEAPEADAEB_K@?$__crt_char_traits@D@@SAHAEAPEAD$$QEA_K0AEB_K@Z 0000000140038c20 f i libucrtd:argv_wildcards.obj
 0001:00037c20       ??$tcsncpy_s@PEADAEB_KAEBQEBDAEB_K@?$__crt_char_traits@D@@SAH$$QEAPEADAEB_KAEBQEBD1@Z 0000000140038c20 f i libucrtd:argv_wildcards.obj
 0001:00037c20       ??$tcsncpy_s@PEAD_KAEBQEBDAEB_K@?$__crt_char_traits@D@@SAH$$QEAPEAD$$QEA_KAEBQEBDAEB_K@Z 0000000140038c20 f i libucrtd:argv_wildcards.obj
 0001:00037c70       ??$tcspbrk@AEAPEADAEAY02$$CBD@?$__crt_char_traits@D@@SAPEADAEAPEADAEAY02$$CBD@Z 0000000140038c70 f i libucrtd:argv_wildcards.obj
 0001:00037ca0       ??0?$__crt_win32_buffer@DU__crt_win32_buffer_internal_dynamic_resizing@@@@QEAA@XZ 0000000140038ca0 f i libucrtd:argv_wildcards.obj
 0001:00037ca0       ??0?$__crt_win32_buffer@_WU__crt_win32_buffer_internal_dynamic_resizing@@@@QEAA@XZ 0000000140038ca0 f i libucrtd:argv_wildcards.obj
 0001:00037d40       ??1?$__crt_unique_handle_t@U__crt_findfile_traits@@@@QEAA@XZ 0000000140038d40 f i libucrtd:argv_wildcards.obj
 0001:00037d60       ??1?$__crt_win32_buffer@DU__crt_win32_buffer_internal_dynamic_resizing@@@@QEAA@XZ 0000000140038d60 f i libucrtd:argv_wildcards.obj
 0001:00037d60       ??1?$__crt_win32_buffer@_WU__crt_win32_buffer_internal_dynamic_resizing@@@@QEAA@XZ 0000000140038d60 f i libucrtd:argv_wildcards.obj
 0001:00037e10       ??R<lambda_7c9dea7b4ca7285d2cdb541a38da6275>@@QEBAHIQEBDQEA_W_K@Z 0000000140038e10 f i libucrtd:argv_wildcards.obj
 0001:00037ef0       ??R<lambda_d8593a27d1aa8c02be35c86a17d324c4>@@QEBAHIQEB_WQEAD_K@Z 0000000140038ef0 f i libucrtd:argv_wildcards.obj
 0001:00037ef0       ??R<lambda_f788ae46380686e8b737efdd8c720d07>@@QEBAHIQEB_WQEAD_K@Z 0000000140038ef0 f i libucrtd:getmodulefilenamea.obj
 0001:00037f50       ?__acrt_get_utf8_acp_compatibility_codepage@@YAIXZ 0000000140038f50 f i libucrtd:argv_wildcards.obj
 0001:00037ff0       ?_deallocate@?$__crt_win32_buffer@DU__crt_win32_buffer_internal_dynamic_resizing@@@@AEAAXXZ 0000000140038ff0 f i libucrtd:argv_wildcards.obj
 0001:00037ff0       ?_deallocate@?$__crt_win32_buffer@_WU__crt_win32_buffer_internal_dynamic_resizing@@@@AEAAXXZ 0000000140038ff0 f i libucrtd:argv_wildcards.obj
 0001:00038040       ?allocate@?$__crt_win32_buffer@DU__crt_win32_buffer_internal_dynamic_resizing@@@@QEAAH_K@Z 0000000140039040 f i libucrtd:argv_wildcards.obj
 0001:000380c0       ?allocate@?$__crt_win32_buffer@_WU__crt_win32_buffer_internal_dynamic_resizing@@@@QEAAH_K@Z 00000001400390c0 f i libucrtd:argv_wildcards.obj
 0001:00038150       ?allocate@__crt_win32_buffer_internal_dynamic_resizing@@SAHQEAPEAX_KAEBV__crt_win32_buffer_empty_debug_info@@@Z 0000000140039150 f i libucrtd:argv_wildcards.obj
 0001:00038220       ?capacity@?$__crt_win32_buffer@DU__crt_win32_buffer_internal_dynamic_resizing@@@@QEBA_KXZ 0000000140039220 f i libucrtd:argv_wildcards.obj
 0001:00038220       ?capacity@?$__crt_win32_buffer@DU__crt_win32_buffer_no_resizing@@@@QEBA_KXZ 0000000140039220 f i libucrtd:getmodulefilenamea.obj
 0001:00038220       ?capacity@?$__crt_win32_buffer@_WU__crt_win32_buffer_internal_dynamic_resizing@@@@QEBA_KXZ 0000000140039220 f i libucrtd:argv_wildcards.obj
 0001:00038230       ?close@?$__crt_unique_handle_t@U__crt_findfile_traits@@@@QEAAXXZ 0000000140039230 f i libucrtd:argv_wildcards.obj
 0001:00038270       ?close@__crt_findfile_traits@@SA_NPEAX@Z 0000000140039270 f i libucrtd:argv_wildcards.obj
 0001:000382b0       ?data@?$__crt_win32_buffer@DU__crt_win32_buffer_internal_dynamic_resizing@@@@QEAAPEADXZ 00000001400392b0 f i libucrtd:argv_wildcards.obj
 0001:000382b0       ?data@?$__crt_win32_buffer@DU__crt_win32_buffer_no_resizing@@@@QEAAPEADXZ 00000001400392b0 f i libucrtd:getmodulefilenamea.obj
 0001:000382b0       ?data@?$__crt_win32_buffer@_WU__crt_win32_buffer_internal_dynamic_resizing@@@@QEAAPEA_WXZ 00000001400392b0 f i libucrtd:argv_wildcards.obj
 0001:000382c0       ?deallocate@__crt_win32_buffer_internal_dynamic_resizing@@SAXQEAXAEBV__crt_win32_buffer_empty_debug_info@@@Z 00000001400392c0 f i libucrtd:argv_wildcards.obj
 0001:000385b0       ?set_to_nullptr@?$__crt_win32_buffer@DU__crt_win32_buffer_internal_dynamic_resizing@@@@QEAAXXZ 00000001400395b0 f i libucrtd:argv_wildcards.obj
 0001:000385b0       ?set_to_nullptr@?$__crt_win32_buffer@_WU__crt_win32_buffer_internal_dynamic_resizing@@@@QEAAXXZ 00000001400395b0 f i libucrtd:argv_wildcards.obj
 0001:000385f0       ?size@?$__crt_win32_buffer@DU__crt_win32_buffer_internal_dynamic_resizing@@@@QEAAX_K@Z 00000001400395f0 f i libucrtd:argv_wildcards.obj
 0001:000385f0       ?size@?$__crt_win32_buffer@DU__crt_win32_buffer_no_resizing@@@@QEAAX_K@Z 00000001400395f0 f i libucrtd:getmodulefilenamea.obj
 0001:000385f0       ?size@?$__crt_win32_buffer@_WU__crt_win32_buffer_internal_dynamic_resizing@@@@QEAAX_K@Z 00000001400395f0 f i libucrtd:argv_wildcards.obj
 0001:00038630       ?strpbrk@@YAPEADQEADQEBD@Z 0000000140039630 f i libucrtd:argv_wildcards.obj
 0001:00038660       __acrt_expand_narrow_argv_wildcards 0000000140039660 f   libucrtd:argv_wildcards.obj
 0001:00038690       ??$__acrt_convert_wcs_mbs_cp@_WDV<lambda_f788ae46380686e8b737efdd8c720d07>@@U__crt_win32_buffer_no_resizing@@@@YAHQEB_WAEAV?$__crt_win32_buffer@DU__crt_win32_buffer_no_resizing@@@@AEBV<lambda_f788ae46380686e8b737efdd8c720d07>@@I@Z 0000000140039690 f i libucrtd:getmodulefilenamea.obj
 0001:00038840       ??$__acrt_wcs_to_mbs_cp@U__crt_win32_buffer_no_resizing@@@@YAHQEB_WAEAV?$__crt_win32_buffer@DU__crt_win32_buffer_no_resizing@@@@I@Z 0000000140039840 f i libucrtd:getmodulefilenamea.obj
 0001:00038890       ??0?$__crt_win32_buffer@DU__crt_win32_buffer_no_resizing@@@@QEAA@QEAD_K@Z 0000000140039890 f i libucrtd:getmodulefilenamea.obj
 0001:00038900       ??1?$__crt_win32_buffer@DU__crt_win32_buffer_no_resizing@@@@QEAA@XZ 0000000140039900 f i libucrtd:getmodulefilenamea.obj
 0001:00038930       ?_deallocate@?$__crt_win32_buffer@DU__crt_win32_buffer_no_resizing@@@@AEAAXXZ 0000000140039930 f i libucrtd:getmodulefilenamea.obj
 0001:00038980       ?allocate@?$__crt_win32_buffer@DU__crt_win32_buffer_no_resizing@@@@QEAAH_K@Z 0000000140039980 f i libucrtd:getmodulefilenamea.obj
 0001:00038a00       ?allocate@__crt_win32_buffer_no_resizing@@SAHQEAPEAX_KAEBV__crt_win32_buffer_empty_debug_info@@@Z 0000000140039a00 f i libucrtd:getmodulefilenamea.obj
 0001:00038a30       ?deallocate@__crt_win32_buffer_no_resizing@@SAXQEAXAEBV__crt_win32_buffer_empty_debug_info@@@Z 0000000140039a30 f i libucrtd:getmodulefilenamea.obj
 0001:00038a40       ?set_to_nullptr@?$__crt_win32_buffer@DU__crt_win32_buffer_no_resizing@@@@QEAAXXZ 0000000140039a40 f i libucrtd:getmodulefilenamea.obj
 0001:00038a80       ?size@?$__crt_win32_buffer@DU__crt_win32_buffer_no_resizing@@@@QEBA_KXZ 0000000140039a80 f i libucrtd:getmodulefilenamea.obj
 0001:00038a90       __acrt_GetModuleFileNameA  0000000140039a90 f   libucrtd:getmodulefilenamea.obj
 0001:00038c10       ??$initialize_from_array@$$BY10BAA@E@?$dual_state_global@PEAE@__crt_state_management@@QEAAXAEAY10BAA@E@Z 0000000140039c10 f i libucrtd:mbctype.obj
 0001:00038c80       ??$initialize_from_array@$$BY10BAB@E@?$dual_state_global@PEAE@__crt_state_management@@QEAAXAEAY10BAB@E@Z 0000000140039c80 f i libucrtd:mbctype.obj
 0001:00039820       __acrt_initialize_multibyte 000000014003a820 f   libucrtd:mbctype.obj
 0001:000398f0       __acrt_update_thread_multibyte_data 000000014003a8f0 f   libucrtd:mbctype.obj
 0001:00039930       _setmbcp_nolock            000000014003a930 f   libucrtd:mbctype.obj
 0001:0003a020       _ismbblead                 000000014003b020 f   libucrtd:ismbbyte.obj
 0001:0003a050       __acrt_initialize_command_line 000000014003b050 f   libucrtd:argv_data.obj
 0001:0003a120       __acrt_MultiByteToWideChar 000000014003b120 f   libucrtd:multibytetowidechar.obj
 0001:0003a220       __acrt_WideCharToMultiByte 000000014003b220 f   libucrtd:widechartomultibyte.obj
 0001:0003a460       __dcrt_get_narrow_environment_from_os 000000014003b460 f   libucrtd:get_environment_from_os.obj
 0001:0003a690       __acrt_initialize_locks    000000014003b690 f   libucrtd:locks.obj
 0001:0003a700       __acrt_lock                000000014003b700 f   libucrtd:locks.obj
 0001:0003a730       __acrt_uninitialize_locks  000000014003b730 f   libucrtd:locks.obj
 0001:0003a790       __acrt_unlock              000000014003b790 f   libucrtd:locks.obj
 0001:0003aaa0       __acrt_get_developer_information_policy 000000014003baa0 f   libucrtd:win_policies.obj
 0001:0003aac0       __acrt_get_process_end_policy 000000014003bac0 f   libucrtd:win_policies.obj
 0001:0003aad0       __acrt_get_windowing_model_policy 000000014003bad0 f   libucrtd:win_policies.obj
 0001:0003aaf0       __acrt_lowio_create_handle_array 000000014003baf0 f   libucrtd:osfinfo.obj
 0001:0003acb0       __acrt_lowio_destroy_handle_array 000000014003bcb0 f   libucrtd:osfinfo.obj
 0001:0003ad30       __acrt_lowio_ensure_fh_exists 000000014003bd30 f   libucrtd:osfinfo.obj
 0001:0003ae90       __acrt_lowio_lock_fh       000000014003be90 f   libucrtd:osfinfo.obj
 0001:0003aed0       __acrt_lowio_unlock_fh     000000014003bed0 f   libucrtd:osfinfo.obj
 0001:0003af10       _free_osfhnd               000000014003bf10 f   libucrtd:osfinfo.obj
 0001:0003b040       _get_osfhandle             000000014003c040 f   libucrtd:osfinfo.obj
 0001:0003b240       __acrt_initialize_fmode    000000014003c240 f   libucrtd:txtmode.obj
 0001:0003b2a0       __acrt_locale_free_monetary 000000014003c2a0 f   libucrtd:initmon.obj
 0001:0003b4b0       __acrt_locale_free_numeric 000000014003c4b0 f   libucrtd:initnum.obj
 0001:0003b650       __acrt_locale_free_time    000000014003c650 f   libucrtd:inittime.obj
 0001:0003b7c0       _chvalidator_l             000000014003c7c0 f   libucrtd:isctype.obj
 0001:0003b870       _isctype_l                 000000014003c870 f   libucrtd:isctype.obj
 0001:0003baa0       ??1?$__crt_scoped_stack_ptr@_W@@QEAA@XZ 000000014003caa0 f i libucrtd:getstringtypea.obj
 0001:0003bac0       _MallocaComputeSize        000000014003cac0 f i libucrtd:getstringtypea.obj
 0001:0003bb00       _MarkAllocaS               000000014003cb00 f i libucrtd:getstringtypea.obj
 0001:0003bb30       __acrt_GetStringTypeA      000000014003cb30 f   libucrtd:getstringtypea.obj
 0001:0003bd90       _freea_crt                 000000014003cd90 f i libucrtd:getstringtypea.obj
 0001:0003be30       __acrt_add_locale_ref      000000014003ce30 f   libucrtd:locale_refcounting.obj
 0001:0003bf90       __acrt_free_locale         000000014003cf90 f   libucrtd:locale_refcounting.obj
 0001:0003c310       __acrt_locale_add_lc_time_reference 000000014003d310 f   libucrtd:locale_refcounting.obj
 0001:0003c350       __acrt_locale_free_lc_time_if_unreferenced 000000014003d350 f   libucrtd:locale_refcounting.obj
 0001:0003c3b0       __acrt_locale_release_lc_time_reference 000000014003d3b0 f   libucrtd:locale_refcounting.obj
 0001:0003c3f0       __acrt_release_locale_ref  000000014003d3f0 f   libucrtd:locale_refcounting.obj
 0001:0003c560       __acrt_update_thread_locale_data 000000014003d560 f   libucrtd:locale_refcounting.obj
 0001:0003c600       _updatetlocinfoEx_nolock   000000014003d600 f   libucrtd:locale_refcounting.obj
 0001:0003cd50       GetCurrentThreadEffectiveToken 000000014003dd50 f i libucrtd:winapi_thunks.obj
 0001:0003cd60       __acrt_AppPolicyGetProcessTerminationMethodInternal 000000014003dd60 f   libucrtd:winapi_thunks.obj
 0001:0003cdc0       __acrt_AppPolicyGetShowDeveloperDiagnosticInternal 000000014003ddc0 f   libucrtd:winapi_thunks.obj
 0001:0003ce20       __acrt_AppPolicyGetWindowingModelInternal 000000014003de20 f   libucrtd:winapi_thunks.obj
 0001:0003ce80       __acrt_AreFileApisANSI     000000014003de80 f   libucrtd:winapi_thunks.obj
 0001:0003ced0       __acrt_FlsAlloc            000000014003ded0 f   libucrtd:winapi_thunks.obj
 0001:0003cef0       __acrt_FlsFree             000000014003def0 f   libucrtd:winapi_thunks.obj
 0001:0003cf10       __acrt_FlsGetValue         000000014003df10 f   libucrtd:winapi_thunks.obj
 0001:0003cf30       __acrt_FlsSetValue         000000014003df30 f   libucrtd:winapi_thunks.obj
 0001:0003cf60       __acrt_InitializeCriticalSectionEx 000000014003df60 f   libucrtd:winapi_thunks.obj
 0001:0003cfe0       __acrt_LCMapStringEx       000000014003dfe0 f   libucrtd:winapi_thunks.obj
 0001:0003d0f0       __acrt_LocaleNameToLCID    000000014003e0f0 f   libucrtd:winapi_thunks.obj
 0001:0003d160       __acrt_MessageBoxW         000000014003e160 f   libucrtd:winapi_thunks.obj
 0001:0003d1e0       __acrt_can_show_message_box 000000014003e1e0 f   libucrtd:winapi_thunks.obj
 0001:0003d220       __acrt_get_parent_window   000000014003e220 f   libucrtd:winapi_thunks.obj
 0001:0003d2c0       __acrt_initialize_winapi_thunks 000000014003e2c0 f   libucrtd:winapi_thunks.obj
 0001:0003d340       __acrt_is_interactive      000000014003e340 f   libucrtd:winapi_thunks.obj
 0001:0003d450       __acrt_uninitialize_winapi_thunks 000000014003e450 f   libucrtd:winapi_thunks.obj
 0001:0003d4f0       __acrt_initialize_heap     000000014003e4f0 f   libucrtd:heap_handle.obj
 0001:0003d520       __acrt_uninitialize_heap   000000014003e520 f   libucrtd:heap_handle.obj
 0001:0003d540       __acrt_execute_initializers 000000014003e540 f   libucrtd:shared_initialization.obj
 0001:0003d640       __acrt_execute_uninitializers 000000014003e640 f   libucrtd:shared_initialization.obj
 0001:0003d6d0       __acrt_initialize_new_handler 000000014003e6d0 f   libucrtd:new_handler.obj
 0001:0003d6f0       _callnewh                  000000014003e6f0 f   libucrtd:new_handler.obj
 0001:0003d750       _query_new_handler         000000014003e750 f   libucrtd:new_handler.obj
 0001:0003d960       __acrt_get_sigabrt_handler 000000014003e960 f   libucrtd:signal.obj
 0001:0003d990       __acrt_initialize_signal_handlers 000000014003e990 f   libucrtd:signal.obj
 0001:0003d9f0       __fpecode                  000000014003e9f0 f   libucrtd:signal.obj
 0001:0003da10       raise                      000000014003ea10 f   libucrtd:signal.obj
 0001:0003df10       _free_base                 000000014003ef10 f   libucrtd:free_base.obj
 0001:0003df70       _realloc_base              000000014003ef70 f   libucrtd:realloc_base.obj
 0001:0003e090       _expand_base               000000014003f090 f   libucrtd:expand.obj
 0001:0003e220       _CrtDefaultAllocHook       000000014003f220 f   libucrtd:debug_heap_hook.obj
 0001:0003e240       _VCrtDbgReportA            000000014003f240 f   libucrtd:dbgrptt.obj
 0001:0003ec80       _VCrtDbgReportW            000000014003fc80 f   libucrtd:dbgrptt.obj
 0001:0003f890       _snprintf_s                0000000140040890 f i libucrtd:dbgrptt.obj
 0001:0003f900       _vsnprintf_s               0000000140040900 f i libucrtd:dbgrptt.obj
 0001:0003f950       _vsnprintf_s_l             0000000140040950 f i libucrtd:dbgrptt.obj
 0001:0003fb80       __acrt_fp_strflt_to_string 0000000140040b80 f   libucrtd:_fptostr.obj
 0001:00040740       ??0big_integer@__crt_strtox@@QEAA@AEBU01@@Z 0000000140041740 f i libucrtd:cfout.obj
 0001:00040740       ??4big_integer@__crt_strtox@@QEAAAEAU01@AEBU01@@Z 0000000140041740 f i libucrtd:cfout.obj
 0001:000407a0       ??0big_integer@__crt_strtox@@QEAA@XZ 00000001400417a0 f i libucrtd:cfout.obj
 0001:00040860       ??8__crt_strtox@@YA_NAEBUbig_integer@0@0@Z 0000000140041860 f i libucrtd:cfout.obj
 0001:000408d0       ??9__crt_strtox@@YA_NAEBUbig_integer@0@0@Z 00000001400418d0 f i libucrtd:cfout.obj
 0001:00040910       ?add_carry@__crt_strtox@@YAIAEAIII@Z 0000000140041910 f i libucrtd:cfout.obj
 0001:00040960       ?add_multiply_carry@__crt_strtox@@YAIAEAIIII@Z 0000000140041960 f i libucrtd:cfout.obj
 0001:000409c0       ?bit_scan_reverse@__crt_strtox@@YAII@Z 00000001400419c0 f i libucrtd:cfout.obj
 0001:00040a00       ?count_sequential_high_zeroes@__crt_strtox@@YAII@Z 0000000140041a00 f i libucrtd:cfout.obj
 0001:00040a40       ?divide@__crt_strtox@@YA_KAEAUbig_integer@1@AEBU21@@Z 0000000140041a40 f i libucrtd:cfout.obj
 0001:00041410       ?is_zero@__crt_strtox@@YA_NAEBUbig_integer@1@@Z 0000000140042410 f i libucrtd:cfout.obj
 0001:00041440       ?make_big_integer@__crt_strtox@@YA?AUbig_integer@1@_K@Z 0000000140042440 f i libucrtd:cfout.obj
 0001:00041510       ?make_big_integer_power_of_two@__crt_strtox@@YA?AUbig_integer@1@I@Z 0000000140042510 f i libucrtd:cfout.obj
 0001:000415e0       ?multiply@__crt_strtox@@YA_NAEAUbig_integer@1@AEBU21@@Z 00000001400425e0 f i libucrtd:cfout.obj
 0001:00041960       ?multiply@__crt_strtox@@YA_NAEAUbig_integer@1@I@Z 0000000140042960 f i libucrtd:cfout.obj
 0001:00041a80       ?multiply_64_32@__crt_strtox@@YA_K_KI@Z 0000000140042a80 f i libucrtd:cfout.obj
 0001:00041aa0       ?multiply_by_power_of_ten@__crt_strtox@@YA_NAEAUbig_integer@1@I@Z 0000000140042aa0 f i libucrtd:cfout.obj
 0001:00041c50       ?multiply_core@__crt_strtox@@YAIQEAIII@Z 0000000140042c50 f i libucrtd:cfout.obj
 0001:00041cd0       ?shift_left@__crt_strtox@@YA_NAEAUbig_integer@1@I@Z 0000000140042cd0 f i libucrtd:cfout.obj
 0001:00041fb0       __acrt_fltout              0000000140042fb0 f   libucrtd:cfout.obj
 0001:00042370       fegetround                 0000000140043370 f   libucrtd:fegetround.obj
 0001:00042390       ?__c32rtomb_utf8@__crt_mbstring@@YA_KPEAD_UPEAU_Mbstatet@@AEAV__crt_cached_ptd_host@@@Z 0000000140043390 f   libucrtd:c32rtomb.obj
 0001:000426a0       ?__mbrtowc_utf8@__crt_mbstring@@YA_KPEA_WPEBD_KPEAU_Mbstatet@@AEAV__crt_cached_ptd_host@@@Z 00000001400436a0 f   libucrtd:mbrtowc.obj
 0001:00042720       ?__mbsrtowcs_utf8@__crt_mbstring@@YA_KPEA_WPEAPEBD_KPEAU_Mbstatet@@AEAV__crt_cached_ptd_host@@@Z 0000000140043720 f   libucrtd:mbrtowc.obj
 0001:00042a70       ?is_in_use@__crt_stdio_stream@@QEBA_NXZ 0000000140043a70 f i libucrtd:closeall.obj
 0001:00042ab0       _fcloseall                 0000000140043ab0 f   libucrtd:closeall.obj
 0001:00042f60       ?__acrt_stdio_reset_buffer@@YAXV__crt_stdio_stream@@@Z 0000000140043f60 f i libucrtd:fflush.obj
 0001:00043130       ?has_all_of@__crt_stdio_stream@@QEBA_NJ@Z 0000000140044130 f i libucrtd:fflush.obj
 0001:00043210       __acrt_stdio_flush_nolock  0000000140044210 f   libucrtd:fflush.obj
 0001:00043330       _fflush_nolock             0000000140044330 f   libucrtd:fflush.obj
 0001:00043370       _flushall                  0000000140044370 f   libucrtd:fflush.obj
 0001:00043380       ?has_crt_buffer@__crt_stdio_stream@@QEBA_NXZ 0000000140044380 f i libucrtd:_freebuf.obj
 0001:000433a0       __acrt_stdio_free_buffer_nolock 00000001400443a0 f   libucrtd:_freebuf.obj
 0001:00043480       _isatty                    0000000140044480 f   libucrtd:isatty.obj
 0001:000435a0       _get_fpsr                  00000001400445a0 f   libucrtd:fpsr.obj
 0001:000435b0       _set_fpsr                  00000001400445b0 f   libucrtd:fpsr.obj
 0001:000435ba       _fclrf                     00000001400445ba f   libucrtd:fpsr.obj
 0001:000435ce       _frnd                      00000001400445ce f   libucrtd:fpsr.obj
 0001:000435f0       _raise_exc                 00000001400445f0 f   libucrtd:fpexcept.obj
 0001:00043650       _raise_exc_ex              0000000140044650 f   libucrtd:fpexcept.obj
 0001:00043cd0       _raise_excf                0000000140044cd0 f   libucrtd:fpexcept.obj
 0001:00043d30       _set_errno_from_matherr    0000000140044d30 f   libucrtd:fpexcept.obj
 0001:00043d80       __acrt_OutputDebugStringA  0000000140044d80 f   libucrtd:outputdebugstringa.obj
 0001:00043fd0       qsort                      0000000140044fd0 f   libucrtd:qsort.obj
 0001:00044e40       strncpy_s                  0000000140045e40 f   libucrtd:strncpy_s.obj
 0001:00044fb0       strpbrk                    0000000140045fb0 f   libucrtd:strpbrk.obj
 0001:000458a0       _mbsdec                    00000001400468a0 f   libucrtd:mbsdec.obj
 0001:000458d0       _mbsdec_l                  00000001400468d0 f   libucrtd:mbsdec.obj
 0001:00046160       __acrt_LCMapStringA        0000000140047160 f   libucrtd:lcmapstringa.obj
 0001:00046e30       _itoa_s                    0000000140047e30 f   libucrtd:xtoa.obj
 0001:00046e90       _itow_s                    0000000140047e90 f   libucrtd:xtoa.obj
 0001:00046ef0       __ascii_wcsnicmp           0000000140047ef0 f   libucrtd:wcsnicmp.obj
 0001:00047070       __acrt_DownlevelLocaleNameToLCID 0000000140048070 f   libucrtd:lcidtoname_downlevel.obj
 0001:000470d0       _malloc_base               00000001400480d0 f   libucrtd:malloc_base.obj
 0001:00047c80       mbstowcs_s                 0000000140048c80 f   libucrtd:mbstowcs.obj
 0001:00048af0       wcstombs_s                 0000000140049af0 f   libucrtd:wcstombs.obj
 0001:000491e0       strcat_s                   000000014004a1e0 f   libucrtd:strcat_s.obj
 0001:00049210       log10                      000000014004a210 f   libucrtd:log10.obj
 0001:000497c0       ceil                       000000014004a7c0 f   libucrtd:ceil.obj
 0001:00049990       _controlfp_s               000000014004a990 f   libucrtd:contrlfp.obj
 0001:00049ac0       fegetenv                   000000014004aac0 f   libucrtd:fegetenv.obj
 0001:00049af0       fesetenv                   000000014004aaf0 f   libucrtd:fesetenv.obj
 0001:00049b70       feholdexcept               000000014004ab70 f   libucrtd:feholdexcept.obj
 0001:00049be0       ??$__acrt_fenv_shift_bits@W4__acrt_fenv_abstract_control@@@@YA?AW4__acrt_fenv_abstract_control@@W40@0I@Z 000000014004abe0 f i libucrtd:_fenvutils.obj
 0001:00049be0       ??$__acrt_fenv_shift_bits@W4__acrt_fenv_abstract_status@@@@YA?AW4__acrt_fenv_abstract_status@@W40@0I@Z 000000014004abe0 f i libucrtd:_fenvutils.obj
 0001:00049c10       ??$__acrt_fenv_translate_bit@W4__acrt_fenv_abstract_control@@W4__acrt_fenv_machine_sse_control@@@@YA?AW4__acrt_fenv_abstract_control@@W4__acrt_fenv_machine_sse_control@@0W40@1@Z 000000014004ac10 f i libucrtd:_fenvutils.obj
 0001:00049c70       ??$__acrt_fenv_translate_bit@W4__acrt_fenv_abstract_status@@W4__acrt_fenv_machine_sse_status@@@@YA?AW4__acrt_fenv_abstract_status@@W4__acrt_fenv_machine_sse_status@@0W40@1@Z 000000014004ac70 f i libucrtd:_fenvutils.obj
 0001:00049c70       ??$__acrt_fenv_translate_bit@W4__acrt_fenv_machine_sse_status@@W4__acrt_fenv_abstract_status@@@@YA?AW4__acrt_fenv_machine_sse_status@@W4__acrt_fenv_abstract_status@@0W40@1@Z 000000014004ac70 f i libucrtd:_fenvutils.obj
 0001:00049cc0       ??$__acrt_fenv_translate_bit@W4__acrt_fenv_machine_sse_control@@W4__acrt_fenv_abstract_control@@@@YA?AW4__acrt_fenv_machine_sse_control@@W4__acrt_fenv_abstract_control@@0W40@1@Z 000000014004acc0 f i libucrtd:_fenvutils.obj
 0001:00049d20       ??$__acrt_fenv_unshift_bits@W4__acrt_fenv_abstract_control@@@@YA?AW4__acrt_fenv_abstract_control@@W40@0I@Z 000000014004ad20 f i libucrtd:_fenvutils.obj
 0001:00049d20       ??$__acrt_fenv_unshift_bits@W4__acrt_fenv_abstract_status@@@@YA?AW4__acrt_fenv_abstract_status@@W40@0I@Z 000000014004ad20 f i libucrtd:_fenvutils.obj
 0001:0004a210       ??I@YA?AW4__acrt_fenv_abstract_control@@W40@0@Z 000000014004b210 f i libucrtd:_fenvutils.obj
 0001:0004a210       ??I@YA?AW4__acrt_fenv_abstract_status@@W40@0@Z 000000014004b210 f i libucrtd:_fenvutils.obj
 0001:0004a210       ??I@YA?AW4__acrt_fenv_machine_sse_status@@W40@0@Z 000000014004b210 f i libucrtd:_fenvutils.obj
 0001:0004a230       ??I@YA?AW4__acrt_fenv_machine_sse_control@@W40@0@Z 000000014004b230 f i libucrtd:_fenvutils.obj
 0001:0004a250       ??U@YA?AW4__acrt_fenv_abstract_control@@W40@0@Z 000000014004b250 f i libucrtd:_fenvutils.obj
 0001:0004a250       ??U@YA?AW4__acrt_fenv_abstract_status@@W40@0@Z 000000014004b250 f i libucrtd:_fenvutils.obj
 0001:0004a270       ??U@YA?AW4__acrt_fenv_machine_sse_control@@W40@0@Z 000000014004b270 f i libucrtd:_fenvutils.obj
 0001:0004a290       ??_5@YAAEAW4__acrt_fenv_abstract_control@@AEAW40@W40@@Z 000000014004b290 f i libucrtd:_fenvutils.obj
 0001:0004a290       ??_5@YAAEAW4__acrt_fenv_abstract_status@@AEAW40@W40@@Z 000000014004b290 f i libucrtd:_fenvutils.obj
 0001:0004a290       ??_5@YAAEAW4__acrt_fenv_machine_sse_status@@AEAW40@W40@@Z 000000014004b290 f i libucrtd:_fenvutils.obj
 0001:0004a2c0       ??_5@YAAEAW4__acrt_fenv_machine_sse_control@@AEAW40@W40@@Z 000000014004b2c0 f i libucrtd:_fenvutils.obj
 0001:0004a2f0       ?__acrt_fenv_shift_abstract_sse_control@@YA?AW4__acrt_fenv_abstract_control@@W41@@Z 000000014004b2f0 f i libucrtd:_fenvutils.obj
 0001:0004a340       ?__acrt_fenv_shift_abstract_sse_status@@YA?AW4__acrt_fenv_abstract_status@@W41@@Z 000000014004b340 f i libucrtd:_fenvutils.obj
 0001:0004a370       ?__acrt_fenv_unshift_abstract_sse_control@@YA?AW4__acrt_fenv_abstract_control@@W41@@Z 000000014004b370 f i libucrtd:_fenvutils.obj
 0001:0004a3c0       ?__acrt_fenv_unshift_abstract_sse_status@@YA?AW4__acrt_fenv_abstract_status@@W41@@Z 000000014004b3c0 f i libucrtd:_fenvutils.obj
 0001:0004a6b0       __acrt_fenv_get_common_round_control 000000014004b6b0 f   libucrtd:_fenvutils.obj
 0001:0004a6d0       __acrt_fenv_get_control    000000014004b6d0 f   libucrtd:_fenvutils.obj
 0001:0004a700       __acrt_fenv_get_status     000000014004b700 f   libucrtd:_fenvutils.obj
 0001:0004a730       __acrt_fenv_set_control    000000014004b730 f   libucrtd:_fenvutils.obj
 0001:0004a750       __acrt_fenv_set_status     000000014004b750 f   libucrtd:_fenvutils.obj
 0001:0004a770       ?reset_and_return@__crt_mbstring@@YA_K_KPEAU_Mbstatet@@@Z 000000014004b770 f   libucrtd:common_utf8.obj
 0001:0004a7b0       ?return_illegal_sequence@__crt_mbstring@@YA_KPEAU_Mbstatet@@AEAV__crt_cached_ptd_host@@@Z 000000014004b7b0 f   libucrtd:common_utf8.obj
 0001:0004a810       ?__mbrtoc32_utf8@__crt_mbstring@@YA_KPEA_UPEBD_KPEAU_Mbstatet@@AEAV__crt_cached_ptd_host@@@Z 000000014004b810 f   libucrtd:mbrtoc32.obj
 0001:0004af20       fclose                     000000014004bf20 f   libucrtd:fclose.obj
 0001:0004b120       _commit                    000000014004c120 f   libucrtd:commit.obj
 0001:0004cb10       _utf8_no_of_trailbytes     000000014004db10 f i libucrtd:write.obj
 0001:0004cb30       _write_internal            000000014004db30 f   libucrtd:write.obj
 0001:0004ced0       _write_nolock              000000014004ded0 f   libucrtd:write.obj
 0001:0004d740       _lseeki64_nolock_internal  000000014004e740 f   libucrtd:lseek.obj
 0001:0004d780       __strncnt                  000000014004e780 f   libucrtd:strncnt.obj
 0001:0004d7e0       ?__wcsrtombs_utf8@__crt_mbstring@@YA_KPEADPEAPEB_W_KPEAU_Mbstatet@@AEAV__crt_cached_ptd_host@@@Z 000000014004e7e0 f   libucrtd:wcrtomb.obj
 0001:0004da60       _log10_special             000000014004ea60 f   libucrtd:log_special.obj
 0001:0004ddc0       _clearfp                   000000014004edc0 f   libucrtd:ieee.obj
 0001:0004dde0       _control87                 000000014004ede0 f   libucrtd:ieee.obj
 0001:0004e2d0       _close_internal            000000014004f2d0 f   libucrtd:close.obj
 0001:0004e590       _close_nolock_internal     000000014004f590 f   libucrtd:close.obj
 0001:0004e600       ?__acrt_stdio_free_stream@@YAXV__crt_stdio_stream@@@Z 000000014004f600 f   libucrtd:stream.obj
 0001:0004e6a0       ?deallocate@__crt_stdio_stream@@QEAAXXZ 000000014004f6a0 f i libucrtd:stream.obj
 0001:0004e6c0       _putwch_nolock             000000014004f6c0 f   libucrtd:putwch.obj
 0001:0004e710       ?__c16rtomb_utf8@__crt_mbstring@@YA_KPEAD_SPEAU_Mbstatet@@AEAV__crt_cached_ptd_host@@@Z 000000014004f710 f   libucrtd:c16rtomb.obj
 0001:0004ea90       __dcrt_lowio_ensure_console_output_initialized 000000014004fa90 f   libucrtd:initcon.obj
 0001:0004eac0       __dcrt_terminate_console_output 000000014004fac0 f   libucrtd:initcon.obj
 0001:0004eaf0       __dcrt_write_console       000000014004faf0 f   libucrtd:initcon.obj
 0001:0004eb30       _FindPESection             000000014004fb30 f   LIBCMTD:pesect.obj
 0001:0004ebe0       _IsNonwritableInCurrentImage 000000014004fbe0 f   LIBCMTD:pesect.obj
 0001:0004ec70       _ValidateImageBase         000000014004fc70 f   LIBCMTD:pesect.obj
 0001:0004ecf0       ??1type_info@@UEAA@XZ      000000014004fcf0 f   LIBCMTD:std_type_info_static.obj
 0001:0004ed10       ??_Etype_info@@UEAAPEAXI@Z 000000014004fd10 f i LIBCMTD:std_type_info_static.obj
 0001:0004ed10       ??_Gtype_info@@UEAAPEAXI@Z 000000014004fd10 f i LIBCMTD:std_type_info_static.obj
 0001:0004ed50       ??3@YAXPEAX_K@Z            000000014004fd50 f   LIBCMTD:delete_scalar_size.obj
 0001:0004ed70       __GSHandlerCheck_SEH       000000014004fd70 f   LIBCMTD:gshandlerseh.obj
 0001:0004ee40       __chkstk                   000000014004fe40 f   LIBCMTD:chkstk.obj
 0001:0004ee40       _alloca_probe              000000014004fe40 f   LIBCMTD:chkstk.obj
 0001:0004ee90       __GSHandlerCheck_EH        000000014004fe90 f   LIBCMTD:gshandlereh.obj
 0001:0004ef40       ??3@YAXPEAX@Z              000000014004ff40 f   LIBCMTD:delete_scalar.obj
 0001:0004ef60       __C_specific_handler_noexcept 000000014004ff60 f   libvcruntimed:chandler_noexcept.obj
 0001:0004eff0       strrchr                    000000014004fff0 f   libvcruntimed:strrchr.obj
 0001:0004f430       _guard_dispatch_icall_nop  0000000140050430 f   LIBCMTD:guard_dispatch.obj
 0001:0004f450       _guard_xfg_dispatch_icall_nop 0000000140050450 f   LIBCMTD:guard_xfg_dispatch.obj
 0001:0004f480       memcpy_repmovs             0000000140050480 f   libvcruntimed:memcpy.obj
 0001:0004f490       memcpy                     0000000140050490 f   libvcruntimed:memcpy.obj
 0001:0004f490       memcpy_$fo_default$        0000000140050490     libvcruntimed:memcpy.obj
 0001:0004f490       memmove                    0000000140050490 f   libvcruntimed:memcpy.obj
 0001:0004fb20       memset_repstos             0000000140050b20 f   libvcruntimed:memset.obj
 0001:0004fb30       memset                     0000000140050b30 f   libvcruntimed:memset.obj
 0002:00000000       __imp_TextOutA             0000000140052000     gdi32:GDI32.dll
 0002:00000008       __imp_CreateDIBSection     0000000140052008     gdi32:GDI32.dll
 0002:00000010       __imp_GetTextMetricsA      0000000140052010     gdi32:GDI32.dll
 0002:00000018       __imp_SetTextColor         0000000140052018     gdi32:GDI32.dll
 0002:00000020       __imp_StretchDIBits        0000000140052020     gdi32:GDI32.dll
 0002:00000028       __imp_SetBkMode            0000000140052028     gdi32:GDI32.dll
 0002:00000030       __imp_SelectObject         0000000140052030     gdi32:GDI32.dll
 0002:00000038       __imp_PatBlt               0000000140052038     gdi32:GDI32.dll
 0002:00000040       __imp_GetTextExtentPoint32A 0000000140052040     gdi32:GDI32.dll
 0002:00000048       __imp_GetCharABCWidthsA    0000000140052048     gdi32:GDI32.dll
 0002:00000050       __imp_DeleteObject         0000000140052050     gdi32:GDI32.dll
 0002:00000058       __imp_DeleteDC             0000000140052058     gdi32:GDI32.dll
 0002:00000060       __imp_CreateFontA          0000000140052060     gdi32:GDI32.dll
 0002:00000068       __imp_CreateCompatibleDC   0000000140052068     gdi32:GDI32.dll
 0002:00000070       \177GDI32_NULL_THUNK_DATA  0000000140052070     gdi32:GDI32.dll
 0002:00000078       __imp_FlsFree              0000000140052078     kernel32:KERNEL32.dll
 0002:00000080       __imp_FlsSetValue          0000000140052080     kernel32:KERNEL32.dll
 0002:00000088       __imp_LCMapStringW         0000000140052088     kernel32:KERNEL32.dll
 0002:00000090       __imp_FlsAlloc             0000000140052090     kernel32:KERNEL32.dll
 0002:00000098       __imp_GetStringTypeW       0000000140052098     kernel32:KERNEL32.dll
 0002:000000a0       __imp_GetProcessHeap       00000001400520a0     kernel32:KERNEL32.dll
 0002:000000a8       __imp_HeapFree             00000001400520a8     kernel32:KERNEL32.dll
 0002:000000b0       __imp_HeapReAlloc          00000001400520b0     kernel32:KERNEL32.dll
 0002:000000b8       __imp_HeapQueryInformation 00000001400520b8     kernel32:KERNEL32.dll
 0002:000000c0       __imp_WriteConsoleW        00000001400520c0     kernel32:KERNEL32.dll
 0002:000000c8       __imp_SetFilePointerEx     00000001400520c8     kernel32:KERNEL32.dll
 0002:000000d0       __imp_FlushFileBuffers     00000001400520d0     kernel32:KERNEL32.dll
 0002:000000d8       __imp_GetConsoleOutputCP   00000001400520d8     kernel32:KERNEL32.dll
 0002:000000e0       __imp_GetConsoleMode       00000001400520e0     kernel32:KERNEL32.dll
 0002:000000e8       __imp_CreateFileW          00000001400520e8     kernel32:KERNEL32.dll
 0002:000000f0       __imp_FlsGetValue          00000001400520f0     kernel32:KERNEL32.dll
 0002:000000f8       __imp_IsDebuggerPresent    00000001400520f8     kernel32:KERNEL32.dll
 0002:00000100       __imp_CreateFileA          0000000140052100     kernel32:KERNEL32.dll
 0002:00000108       __imp_ReadFile             0000000140052108     kernel32:KERNEL32.dll
 0002:00000110       __imp_WriteFile            0000000140052110     kernel32:KERNEL32.dll
 0002:00000118       __imp_OutputDebugStringA   0000000140052118     kernel32:KERNEL32.dll
 0002:00000120       __imp_CloseHandle          0000000140052120     kernel32:KERNEL32.dll
 0002:00000128       __imp_GetLastError         0000000140052128     kernel32:KERNEL32.dll
 0002:00000130       __imp_QueryPerformanceCounter 0000000140052130     kernel32:KERNEL32.dll
 0002:00000138       __imp_QueryPerformanceFrequency 0000000140052138     kernel32:KERNEL32.dll
 0002:00000140       __imp_Sleep                0000000140052140     kernel32:KERNEL32.dll
 0002:00000148       __imp_GetSystemInfo        0000000140052148     kernel32:KERNEL32.dll
 0002:00000150       __imp_VirtualAlloc         0000000140052150     kernel32:KERNEL32.dll
 0002:00000158       __imp_SetStdHandle         0000000140052158     kernel32:KERNEL32.dll
 0002:00000160       __imp_FreeEnvironmentStringsW 0000000140052160     kernel32:KERNEL32.dll
 0002:00000168       __imp_ReleaseSRWLockExclusive 0000000140052168     kernel32:KERNEL32.dll
 0002:00000170       __imp_AcquireSRWLockExclusive 0000000140052170     kernel32:KERNEL32.dll
 0002:00000178       __imp_WakeAllConditionVariable 0000000140052178     kernel32:KERNEL32.dll
 0002:00000180       __imp_SleepConditionVariableSRW 0000000140052180     kernel32:KERNEL32.dll
 0002:00000188       __imp_RtlCaptureContext    0000000140052188     kernel32:KERNEL32.dll
 0002:00000190       __imp_RtlLookupFunctionEntry 0000000140052190     kernel32:KERNEL32.dll
 0002:00000198       __imp_RtlVirtualUnwind     0000000140052198     kernel32:KERNEL32.dll
 0002:000001a0       __imp_UnhandledExceptionFilter 00000001400521a0     kernel32:KERNEL32.dll
 0002:000001a8       __imp_SetUnhandledExceptionFilter 00000001400521a8     kernel32:KERNEL32.dll
 0002:000001b0       __imp_GetCurrentProcess    00000001400521b0     kernel32:KERNEL32.dll
 0002:000001b8       __imp_TerminateProcess     00000001400521b8     kernel32:KERNEL32.dll
 0002:000001c0       __imp_IsProcessorFeaturePresent 00000001400521c0     kernel32:KERNEL32.dll
 0002:000001c8       __imp_GetCurrentProcessId  00000001400521c8     kernel32:KERNEL32.dll
 0002:000001d0       __imp_GetCurrentThreadId   00000001400521d0     kernel32:KERNEL32.dll
 0002:000001d8       __imp_GetSystemTimeAsFileTime 00000001400521d8     kernel32:KERNEL32.dll
 0002:000001e0       __imp_InitializeSListHead  00000001400521e0     kernel32:KERNEL32.dll
 0002:000001e8       __imp_GetStartupInfoW      00000001400521e8     kernel32:KERNEL32.dll
 0002:000001f0       __imp_GetModuleHandleW     00000001400521f0     kernel32:KERNEL32.dll
 0002:000001f8       __imp_RtlUnwindEx          00000001400521f8     kernel32:KERNEL32.dll
 0002:00000200       __imp_SetLastError         0000000140052200     kernel32:KERNEL32.dll
 0002:00000208       __imp_EncodePointer        0000000140052208     kernel32:KERNEL32.dll
 0002:00000210       __imp_RaiseException       0000000140052210     kernel32:KERNEL32.dll
 0002:00000218       __imp_EnterCriticalSection 0000000140052218     kernel32:KERNEL32.dll
 0002:00000220       __imp_LeaveCriticalSection 0000000140052220     kernel32:KERNEL32.dll
 0002:00000228       __imp_DeleteCriticalSection 0000000140052228     kernel32:KERNEL32.dll
 0002:00000230       __imp_InitializeCriticalSectionAndSpinCount 0000000140052230     kernel32:KERNEL32.dll
 0002:00000238       __imp_TlsAlloc             0000000140052238     kernel32:KERNEL32.dll
 0002:00000240       __imp_TlsGetValue          0000000140052240     kernel32:KERNEL32.dll
 0002:00000248       __imp_TlsSetValue          0000000140052248     kernel32:KERNEL32.dll
 0002:00000250       __imp_TlsFree              0000000140052250     kernel32:KERNEL32.dll
 0002:00000258       __imp_FreeLibrary          0000000140052258     kernel32:KERNEL32.dll
 0002:00000260       __imp_GetProcAddress       0000000140052260     kernel32:KERNEL32.dll
 0002:00000268       __imp_LoadLibraryExW       0000000140052268     kernel32:KERNEL32.dll
 0002:00000270       __imp_RtlPcToFileHeader    0000000140052270     kernel32:KERNEL32.dll
 0002:00000278       __imp_GetStdHandle         0000000140052278     kernel32:KERNEL32.dll
 0002:00000280       __imp_GetModuleFileNameW   0000000140052280     kernel32:KERNEL32.dll
 0002:00000288       __imp_ExitProcess          0000000140052288     kernel32:KERNEL32.dll
 0002:00000290       __imp_GetModuleHandleExW   0000000140052290     kernel32:KERNEL32.dll
 0002:00000298       __imp_HeapAlloc            0000000140052298     kernel32:KERNEL32.dll
 0002:000002a0       __imp_HeapSize             00000001400522a0     kernel32:KERNEL32.dll
 0002:000002a8       __imp_HeapValidate         00000001400522a8     kernel32:KERNEL32.dll
 0002:000002b0       __imp_GetFileType          00000001400522b0     kernel32:KERNEL32.dll
 0002:000002b8       __imp_OutputDebugStringW   00000001400522b8     kernel32:KERNEL32.dll
 0002:000002c0       __imp_FindClose            00000001400522c0     kernel32:KERNEL32.dll
 0002:000002c8       __imp_FindFirstFileExW     00000001400522c8     kernel32:KERNEL32.dll
 0002:000002d0       __imp_FindNextFileW        00000001400522d0     kernel32:KERNEL32.dll
 0002:000002d8       __imp_IsValidCodePage      00000001400522d8     kernel32:KERNEL32.dll
 0002:000002e0       __imp_GetACP               00000001400522e0     kernel32:KERNEL32.dll
 0002:000002e8       __imp_GetOEMCP             00000001400522e8     kernel32:KERNEL32.dll
 0002:000002f0       __imp_GetCPInfo            00000001400522f0     kernel32:KERNEL32.dll
 0002:000002f8       __imp_GetCommandLineA      00000001400522f8     kernel32:KERNEL32.dll
 0002:00000300       __imp_GetCommandLineW      0000000140052300     kernel32:KERNEL32.dll
 0002:00000308       __imp_MultiByteToWideChar  0000000140052308     kernel32:KERNEL32.dll
 0002:00000310       __imp_WideCharToMultiByte  0000000140052310     kernel32:KERNEL32.dll
 0002:00000318       __imp_GetEnvironmentStringsW 0000000140052318     kernel32:KERNEL32.dll
 0002:00000320       \177KERNEL32_NULL_THUNK_DATA 0000000140052320     kernel32:KERNEL32.dll
 0002:00000328       __imp_DispatchMessageA     0000000140052328     user32:USER32.dll
 0002:00000330       __imp_GetClientRect        0000000140052330     user32:USER32.dll
 0002:00000338       __imp_PeekMessageA         0000000140052338     user32:USER32.dll
 0002:00000340       __imp_GetMonitorInfoA      0000000140052340     user32:USER32.dll
 0002:00000348       __imp_MonitorFromWindow    0000000140052348     user32:USER32.dll
 0002:00000350       __imp_ChangeDisplaySettingsA 0000000140052350     user32:USER32.dll
 0002:00000358       __imp_SetWindowLongA       0000000140052358     user32:USER32.dll
 0002:00000360       __imp_GetWindowLongA       0000000140052360     user32:USER32.dll
 0002:00000368       __imp_ScreenToClient       0000000140052368     user32:USER32.dll
 0002:00000370       __imp_ClientToScreen       0000000140052370     user32:USER32.dll
 0002:00000378       __imp_GetCursorPos         0000000140052378     user32:USER32.dll
 0002:00000380       __imp_SetCursorPos         0000000140052380     user32:USER32.dll
 0002:00000388       __imp_ShowCursor           0000000140052388     user32:USER32.dll
 0002:00000390       __imp_AdjustWindowRect     0000000140052390     user32:USER32.dll
 0002:00000398       __imp_TranslateMessage     0000000140052398     user32:USER32.dll
 0002:000003a0       __imp_EndPaint             00000001400523a0     user32:USER32.dll
 0002:000003a8       __imp_BeginPaint           00000001400523a8     user32:USER32.dll
 0002:000003b0       __imp_ReleaseDC            00000001400523b0     user32:USER32.dll
 0002:000003b8       __imp_GetDC                00000001400523b8     user32:USER32.dll
 0002:000003c0       __imp_GetForegroundWindow  00000001400523c0     user32:USER32.dll
 0002:000003c8       __imp_SetWindowPos         00000001400523c8     user32:USER32.dll
 0002:000003d0       __imp_ShowWindow           00000001400523d0     user32:USER32.dll
 0002:000003d8       __imp_CreateWindowExA      00000001400523d8     user32:USER32.dll
 0002:000003e0       __imp_RegisterClassA       00000001400523e0     user32:USER32.dll
 0002:000003e8       __imp_PostQuitMessage      00000001400523e8     user32:USER32.dll
 0002:000003f0       __imp_DefWindowProcA       00000001400523f0     user32:USER32.dll
 0002:000003f8       \177USER32_NULL_THUNK_DATA 00000001400523f8     user32:USER32.dll
 0002:00000400       __imp_timeBeginPeriod      0000000140052400     winmm:WINMM.dll
 0002:00000408       \177WINMM_NULL_THUNK_DATA  0000000140052408     winmm:WINMM.dll
 0002:00000410       __guard_check_icall_fptr   0000000140052410     LIBCMTD:guard_support.obj
 0002:00000418       __guard_xfg_check_icall_fptr 0000000140052418     LIBCMTD:guard_support.obj
 0002:00000420       __guard_dispatch_icall_fptr 0000000140052420     LIBCMTD:guard_support.obj
 0002:00000428       __guard_xfg_dispatch_icall_fptr 0000000140052428     LIBCMTD:guard_support.obj
 0002:00000430       __guard_xfg_table_dispatch_icall_fptr 0000000140052430     LIBCMTD:guard_support.obj
 0002:00000438       __castguard_check_failure_os_handled_fptr 0000000140052438     LIBCMTD:guard_support.obj
 0002:00000440       __guard_memcpy_fptr        0000000140052440     libvcruntimed:softmemtag.obj
 0002:00000448       __xc_a                     0000000140052448     LIBCMTD:initializers.obj
 0002:00000458       __xc_z                     0000000140052458     LIBCMTD:initializers.obj
 0002:00000460       __xi_a                     0000000140052460     LIBCMTD:initializers.obj
 0002:00000478       __acrt_stdio_initializer   0000000140052478     libucrtd:stdio_initializer.obj
 0002:00000480       __acrt_tran_fma3_initializer 0000000140052480     libucrtd:fma3_initializer.obj
 0002:00000488       __acrt_multibyte_initializer 0000000140052488     libucrtd:multibyte_initializer.obj
 0002:00000490       __acrt_fmode_initializer   0000000140052490     libucrtd:fmode_initializer.obj
 0002:00000498       __xi_z                     0000000140052498     LIBCMTD:initializers.obj
 0002:000004a0       __xl_a                     00000001400524a0     LIBCMTD:tlssup.obj
 0002:000004a8       __xl_z                     00000001400524a8     LIBCMTD:tlssup.obj
 0002:000004b0       __xp_a                     00000001400524b0     LIBCMTD:initializers.obj
 0002:000004b8       __acrt_locale_terminator   00000001400524b8     libucrtd:locale_initializer.obj
 0002:000004c0       __dcrt_console_output_terminator 00000001400524c0     libucrtd:console_output_initializer.obj
 0002:000004c8       __acrt_stdio_terminator    00000001400524c8     libucrtd:stdio_initializer.obj
 0002:000004d0       __xp_z                     00000001400524d0     LIBCMTD:initializers.obj
 0002:000004d8       __xt_a                     00000001400524d8     LIBCMTD:initializers.obj
 0002:000004e0       __xt_z                     00000001400524e0     LIBCMTD:initializers.obj
 0002:00000694       ??_C@_04LJDDIHIK@?4bmp@    0000000140052694     main.obj
 0002:000006a0       ??_C@_0CI@DAAFPPI@W?3?2Projects?2vgengine?2data?2asset@ 00000001400526a0     main.obj
 0002:000006c8       __real@00000000            00000001400526c8     main.obj
 0002:000006cc       __real@38d1b717            00000001400526cc     main.obj
 0002:000006d0       __real@3f000000            00000001400526d0     main.obj
 0002:000006d4       __real@3f800000            00000001400526d4     main.obj
 0002:000006d8       __real@3f99999a            00000001400526d8     main.obj
 0002:000006e0       __real@3ff0000000000000    00000001400526e0     main.obj
 0002:000006e8       __real@40000000            00000001400526e8     main.obj
 0002:000006f0       __real@408f400000000000    00000001400526f0     main.obj
 0002:000006f8       __real@40a00000            00000001400526f8     main.obj
 0002:000006fc       __real@41200000            00000001400526fc     main.obj
 0002:00000700       __real@42652ee1            0000000140052700     main.obj
 0002:00000704       __real@42f00000            0000000140052704     main.obj
 0002:00000708       __real@43160000            0000000140052708     main.obj
 0002:0000070c       __real@43480000            000000014005270c     main.obj
 0002:00000710       __real@437f0000            0000000140052710     main.obj
 0002:00000714       __real@43960000            0000000140052714     main.obj
 0002:00000718       __real@43e0000000000000    0000000140052718     main.obj
 0002:00000720       __real@43fa0000            0000000140052720     main.obj
 0002:00000724       __real@45000000            0000000140052724     main.obj
 0002:00000728       __real@7fefffffffffffff    0000000140052728     main.obj
 0002:00000730       __real@bf800000            0000000140052730     main.obj
 0002:00000734       __real@c1200000            0000000140052734     main.obj
 0002:00000738       __real@c3340000            0000000140052738     main.obj
 0002:00000740       __xmm@80000000800000008000000080000000 0000000140052740     main.obj
 0002:00000760       ?s_negLengthTab@FH4@@3QBCB 0000000140052760     libvcruntimed:risctrnsctrl.obj
 0002:00000770       ?s_shiftTab@FH4@@3QBEB     0000000140052770     libvcruntimed:risctrnsctrl.obj
 0002:000008b8       _pDestructExceptionObject  00000001400528b8     libvcruntimed:ehhelpers.obj
 0002:000008c0       ??_C@_0EK@HNOIOKGA@D?3?2a?2_work?21?2s?2src?2vctools?2crt?2@ 00000001400528c0     libvcruntimed:per_thread_data.obj
 0002:00000918       ??_7exception@std@@6B@     0000000140052918     libvcruntimed:frame.obj
 0002:00000928       ??_C@_0BC@EOODALEL@Unknown?5exception@ 0000000140052928     libvcruntimed:frame.obj
 0002:00000948       ??_7bad_exception@std@@6B@ 0000000140052948     libvcruntimed:frame.obj
 0002:00000958       ??_C@_0O@DPKOEFFH@bad?5exception@ 0000000140052958     libvcruntimed:frame.obj
 0002:00001080       ??_C@_08EHJDFFNH@__based?$CI@ 0000000140053080     libvcruntimed:undname.obj
 0002:00001090       ??_C@_07KOLFKCDI@__cdecl@  0000000140053090     libvcruntimed:undname.obj
 0002:00001098       ??_C@_08GHMPAG@__pascal@   0000000140053098     libvcruntimed:undname.obj
 0002:000010a8       ??_C@_09IFJBGAPI@__stdcall@ 00000001400530a8     libvcruntimed:undname.obj
 0002:000010b8       ??_C@_0L@NPHFGOKO@__thiscall@ 00000001400530b8     libvcruntimed:undname.obj
 0002:000010c8       ??_C@_0L@JMKHOMEK@__fastcall@ 00000001400530c8     libvcruntimed:undname.obj
 0002:000010d8       ??_C@_0N@BCKKPABJ@__vectorcall@ 00000001400530d8     libvcruntimed:undname.obj
 0002:000010e8       ??_C@_09HIJEGCPM@__clrcall@ 00000001400530e8     libvcruntimed:undname.obj
 0002:000010f4       ??_C@_06GHPCKEAG@__eabi@   00000001400530f4     libvcruntimed:undname.obj
 0002:00001100       ??_C@_09IOPIDJLG@__swift_1@ 0000000140053100     libvcruntimed:undname.obj
 0002:00001110       ??_C@_09KFNFGKHF@__swift_2@ 0000000140053110     libvcruntimed:undname.obj
 0002:00001120       ??_C@_09LMMOFLDE@__swift_3@ 0000000140053120     libvcruntimed:undname.obj
 0002:00001130       ??_C@_07JOMMBBKO@__ptr64@  0000000140053130     libvcruntimed:undname.obj
 0002:00001138       ??_C@_0L@PILCLIHE@__restrict@ 0000000140053138     libvcruntimed:undname.obj
 0002:00001148       ??_C@_0M@GFIIJFMG@__unaligned@ 0000000140053148     libvcruntimed:undname.obj
 0002:00001158       ??_C@_09DHDLOLLB@restrict?$CI@ 0000000140053158     libvcruntimed:undname.obj
 0002:00001162       ??_C@_00CNPNBAHC@@         0000000140053162     libvcruntimed:undname.obj
 0002:00001164       ??_C@_04NIHEBCM@?5new@     0000000140053164     libvcruntimed:undname.obj
 0002:00001170       ??_C@_07FPCDHGMM@?5delete@ 0000000140053170     libvcruntimed:undname.obj
 0002:00001178       ??_C@_01NEMOKFLO@?$DN@     0000000140053178     libvcruntimed:undname.obj
 0002:0000117c       ??_C@_02GPIOPFAK@?$DO?$DO@ 000000014005317c     libvcruntimed:undname.obj
 0002:00001180       ??_C@_02FODMEDOG@?$DM?$DM@ 0000000140053180     libvcruntimed:undname.obj
 0002:00001184       ??_C@_01DCLJPIOD@?$CB@     0000000140053184     libvcruntimed:undname.obj
 0002:00001188       ??_C@_02EGOFBIJA@?$DN?$DN@ 0000000140053188     libvcruntimed:undname.obj
 0002:0000118c       ??_C@_02FDNJECIE@?$CB?$DN@ 000000014005318c     libvcruntimed:undname.obj
 0002:00001190       ??_C@_02GPECMEKF@?$FL?$FN@ 0000000140053190     libvcruntimed:undname.obj
 0002:00001198       ??_C@_08LHJFAFGD@operator@ 0000000140053198     libvcruntimed:undname.obj
 0002:000011a4       ??_C@_02HBOOOICD@?9?$DO@   00000001400531a4     libvcruntimed:undname.obj
 0002:000011a8       ??_C@_01NBENCBCI@?$CK@     00000001400531a8     libvcruntimed:undname.obj
 0002:000011ac       ??_C@_02ECNGHCIF@?$CL?$CL@ 00000001400531ac     libvcruntimed:undname.obj
 0002:000011b0       ??_C@_02BAABKJLB@?9?9@     00000001400531b0     libvcruntimed:undname.obj
 0002:000011b4       ??_C@_01JOAMLHOP@?9@       00000001400531b4     libvcruntimed:undname.obj
 0002:000011b8       ??_C@_01MIFGBAGJ@?$CL@     00000001400531b8     libvcruntimed:undname.obj
 0002:000011bc       ??_C@_01HNPIGOCE@?$CG@     00000001400531bc     libvcruntimed:undname.obj
 0002:000011c0       ??_C@_03MNHNFDLC@?9?$DO?$CK@ 00000001400531c0     libvcruntimed:undname.obj
 0002:000011c4       ??_C@_01KMDKNFGN@?1@       00000001400531c4     libvcruntimed:undname.obj
 0002:000011c8       ??_C@_01FGNFDNOH@?$CF@     00000001400531c8     libvcruntimed:undname.obj
 0002:000011cc       ??_C@_01MNNFJEPP@?$DM@     00000001400531cc     libvcruntimed:undname.obj
 0002:000011d0       ??_C@_02EHCHHCKH@?$DM?$DN@ 00000001400531d0     libvcruntimed:undname.obj
 0002:000011d4       ??_C@_01PPODPGHN@?$DO@     00000001400531d4     libvcruntimed:undname.obj
 0002:000011d8       ??_C@_02EEKDKGMJ@?$DO?$DN@ 00000001400531d8     libvcruntimed:undname.obj
 0002:000011dc       ??_C@_01IHBHIGKO@?0@       00000001400531dc     libvcruntimed:undname.obj
 0002:000011e0       ??_C@_02HCKGKOFO@?$CI?$CJ@ 00000001400531e0     libvcruntimed:undname.obj
 0002:000011e4       ??_C@_01PJKLJHI@?$HO@      00000001400531e4     libvcruntimed:undname.obj
 0002:000011e8       ??_C@_01JKBOJNNK@?$FO@     00000001400531e8     libvcruntimed:undname.obj
 0002:000011ec       ??_C@_01DNKMNLPK@?$HM@     00000001400531ec     libvcruntimed:undname.obj
 0002:000011f0       ??_C@_02PPKAJPJL@?$CG?$CG@ 00000001400531f0     libvcruntimed:undname.obj
 0002:000011f4       ??_C@_02NONPIBCD@?$HM?$HM@ 00000001400531f4     libvcruntimed:undname.obj
 0002:000011f8       ??_C@_02FPIMKNGF@?$CK?$DN@ 00000001400531f8     libvcruntimed:undname.obj
 0002:000011fc       ??_C@_02FOEOMHFC@?$CL?$DN@ 00000001400531fc     libvcruntimed:undname.obj
 0002:00001200       ??_C@_02FKMDLLOA@?9?$DN@   0000000140053200     libvcruntimed:undname.obj
 0002:00001204       ??_C@_02FJEHGPIO@?1?$DN@   0000000140053204     libvcruntimed:undname.obj
 0002:00001208       ??_C@_02FENAOKFI@?$CF?$DN@ 0000000140053208     libvcruntimed:undname.obj
 0002:0000120c       ??_C@_03IKFCCPFF@?$DO?$DO?$DN@ 000000014005320c     libvcruntimed:undname.obj
 0002:00001210       ??_C@_03CDNPDDLA@?$DM?$DM?$DN@ 0000000140053210     libvcruntimed:undname.obj
 0002:00001214       ??_C@_02FGJGFEAB@?$CG?$DN@ 0000000140053214     libvcruntimed:undname.obj
 0002:00001218       ??_C@_02DHLNPPGH@?$HM?$DN@ 0000000140053218     libvcruntimed:undname.obj
 0002:0000121c       ??_C@_02MHEGNOJ@?$FO?$DN@  000000014005321c     libvcruntimed:undname.obj
 0002:00001220       ??_C@_09IFPLHPGF@?$GAvftable?8@ 0000000140053220     libvcruntimed:undname.obj
 0002:00001230       ??_C@_09BLBHBJP@?$GAvbtable?8@ 0000000140053230     libvcruntimed:undname.obj
 0002:00001240       ??_C@_07FEEIOKP@?$GAvcall?8@ 0000000140053240     libvcruntimed:undname.obj
 0002:00001248       ??_C@_08LLFFHHDJ@?$GAtypeof?8@ 0000000140053248     libvcruntimed:undname.obj
 0002:00001258       ??_C@_0BF@KDPPACIK@?$GAlocal?5static?5guard?8@ 0000000140053258     libvcruntimed:undname.obj
 0002:00001270       ??_C@_08OBABFOLI@?$GAstring?8@ 0000000140053270     libvcruntimed:undname.obj
 0002:00001280       ??_C@_0BD@JDLKDPAB@?$GAvbase?5destructor?8@ 0000000140053280     libvcruntimed:undname.obj
 0002:00001298       ??_C@_0BN@DEGPLNFK@?$GAvector?5deleting?5destructor?8@ 0000000140053298     libvcruntimed:undname.obj
 0002:000012b8       ??_C@_0BO@OBMKPJIG@?$GAdefault?5constructor?5closure?8@ 00000001400532b8     libvcruntimed:undname.obj
 0002:000012d8       ??_C@_0BN@IMDCHIKM@?$GAscalar?5deleting?5destructor?8@ 00000001400532d8     libvcruntimed:undname.obj
 0002:000012f8       ??_C@_0BO@PFGOCPJJ@?$GAvector?5constructor?5iterator?8@ 00000001400532f8     libvcruntimed:undname.obj
 0002:00001318       ??_C@_0BN@LFPFMEDL@?$GAvector?5destructor?5iterator?8@ 0000000140053318     libvcruntimed:undname.obj
 0002:00001338       ??_C@_0CE@IKBNEHA@?$GAvector?5vbase?5constructor?5itera@ 0000000140053338     libvcruntimed:undname.obj
 0002:00001360       ??_C@_0BL@NILFHHPC@?$GAvirtual?5displacement?5map?8@ 0000000140053360     libvcruntimed:undname.obj
 0002:00001380       ??_C@_0CB@JONCMFFK@?$GAeh?5vector?5constructor?5iterator@ 0000000140053380     libvcruntimed:undname.obj
 0002:000013a8       ??_C@_0CA@GCEOPDGL@?$GAeh?5vector?5destructor?5iterator?8@ 00000001400533a8     libvcruntimed:undname.obj
 0002:000013c8       ??_C@_0CH@OOJPLCPH@?$GAeh?5vector?5vbase?5constructor?5it@ 00000001400533c8     libvcruntimed:undname.obj
 0002:000013f0       ??_C@_0BL@LLKPOHJI@?$GAcopy?5constructor?5closure?8@ 00000001400533f0     libvcruntimed:undname.obj
 0002:00001410       ??_C@_0BA@KBCDOMBN@?$GAudt?5returning?8@ 0000000140053410     libvcruntimed:undname.obj
 0002:00001420       ??_C@_03KLGMFNMG@?$GAEH@   0000000140053420     libvcruntimed:undname.obj
 0002:00001424       ??_C@_05KHLCHHI@?$GARTTI@  0000000140053424     libvcruntimed:undname.obj
 0002:00001430       ??_C@_0BA@KKLDJDLB@?$GAlocal?5vftable?8@ 0000000140053430     libvcruntimed:undname.obj
 0002:00001440       ??_C@_0CE@IIHCMGGL@?$GAlocal?5vftable?5constructor?5clos@ 0000000140053440     libvcruntimed:undname.obj
 0002:00001464       ??_C@_06FHBGPFGH@?5new?$FL?$FN@ 0000000140053464     libvcruntimed:undname.obj
 0002:00001470       ??_C@_09LBNFPBCA@?5delete?$FL?$FN@ 0000000140053470     libvcruntimed:undname.obj
 0002:00001480       ??_C@_0P@HJKNJFNN@?$GAomni?5callsig?8@ 0000000140053480     libvcruntimed:undname.obj
 0002:00001490       ??_C@_0BL@CNOONJFP@?$GAplacement?5delete?5closure?8@ 0000000140053490     libvcruntimed:undname.obj
 0002:000014b0       ??_C@_0BN@CKNJLHMB@?$GAplacement?5delete?$FL?$FN?5closure?8@ 00000001400534b0     libvcruntimed:undname.obj
 0002:000014d0       ??_C@_0CG@CFDHKGGD@?$GAmanaged?5vector?5constructor?5ite@ 00000001400534d0     libvcruntimed:undname.obj
 0002:000014f8       ??_C@_0CF@IMGKMJNO@?$GAmanaged?5vector?5destructor?5iter@ 00000001400534f8     libvcruntimed:undname.obj
 0002:00001520       ??_C@_0CG@HLDDJMAG@?$GAeh?5vector?5copy?5constructor?5ite@ 0000000140053520     libvcruntimed:undname.obj
 0002:00001548       ??_C@_0CM@FCBBDIGB@?$GAeh?5vector?5vbase?5copy?5construct@ 0000000140053548     libvcruntimed:undname.obj
 0002:00001578       ??_C@_0BL@CLIPGLGB@?$GAdynamic?5initializer?5for?5?8@ 0000000140053578     libvcruntimed:undname.obj
 0002:00001598       ??_C@_0CB@PDBIFEP@?$GAdynamic?5atexit?5destructor?5for?5@ 0000000140053598     libvcruntimed:undname.obj
 0002:000015c0       ??_C@_0CD@CGAJBKEJ@?$GAvector?5copy?5constructor?5iterat@ 00000001400535c0     libvcruntimed:undname.obj
 0002:000015e8       ??_C@_0CJ@GJELGAMM@?$GAvector?5vbase?5copy?5constructor?5@ 00000001400535e8     libvcruntimed:undname.obj
 0002:00001618       ??_C@_0CL@FGIJHLCE@?$GAmanaged?5vector?5copy?5constructo@ 0000000140053618     libvcruntimed:undname.obj
 0002:00001648       ??_C@_0BM@PMGGMLDN@?$GAlocal?5static?5thread?5guard?8@ 0000000140053648     libvcruntimed:undname.obj
 0002:00001668       ??_C@_0N@BDNMDMOL@operator?5?$CC?$CC?5@ 0000000140053668     libvcruntimed:undname.obj
 0002:00001678       ??_C@_0BC@GGEBGALA@operator?5co_await@ 0000000140053678     libvcruntimed:undname.obj
 0002:00001690       ??_C@_0M@GAAIMMOH@operator?$DM?$DN?$DO@ 0000000140053690     libvcruntimed:undname.obj
 0002:000016a0       ??_C@_0BC@DAFEJGAK@?5Type?5Descriptor?8@ 00000001400536a0     libvcruntimed:undname.obj
 0002:000016b8       ??_C@_0BM@LDKODKLH@?5Base?5Class?5Descriptor?5at?5?$CI@ 00000001400536b8     libvcruntimed:undname.obj
 0002:000016d8       ??_C@_0BD@LGICGFMM@?5Base?5Class?5Array?8@ 00000001400536d8     libvcruntimed:undname.obj
 0002:000016f0       ??_C@_0BN@MECKDCOJ@?5Class?5Hierarchy?5Descriptor?8@ 00000001400536f0     libvcruntimed:undname.obj
 0002:00001710       ??_C@_0BK@CFCOFLF@?5Complete?5Object?5Locator?8@ 0000000140053710     libvcruntimed:undname.obj
 0002:00001730       ??_C@_0BG@JNJLAMPM@?$GAanonymous?5namespace?8@ 0000000140053730     libvcruntimed:undname.obj
 0002:00001748       ??_C@_02DKCKIIND@?$CFs@    0000000140053748     libvcruntimed:undname.obj
 0002:0000174c       ??_C@_11LOCGONAA@@         000000014005374c     libvcruntimed:undname.obj
 0002:00001768       ??_C@_1DM@KHCHBNEB@?$AAa?$AAp?$AAi?$AA?9?$AAm?$AAs?$AA?9?$AAw?$AAi?$AAn?$AA?9?$AAc?$AAo?$AAr?$AAe@ 0000000140053768     libvcruntimed:winapi_downlevel.obj
 0002:000017a8       ??_C@_1DK@LPPGFMPP@?$AAa?$AAp?$AAi?$AA?9?$AAm?$AAs?$AA?9?$AAw?$AAi?$AAn?$AA?9?$AAc?$AAo?$AAr?$AAe@ 00000001400537a8     libvcruntimed:winapi_downlevel.obj
 0002:000017e8       ??_C@_1BC@GDMECMAK@?$AAk?$AAe?$AAr?$AAn?$AAe?$AAl?$AA3?$AA2@ 00000001400537e8     libvcruntimed:winapi_downlevel.obj
 0002:00001800       ??_C@_17CNPHIMPH@?$AA?$CF?$AAl?$AAs@ 0000000140053800     libvcruntimed:winapi_downlevel.obj
 0002:00001808       ??_C@_1BA@PFFKHIOG@?$AAa?$AAp?$AAi?$AA?9?$AAm?$AAs?$AA?9@ 0000000140053808     libvcruntimed:winapi_downlevel.obj
 0002:00001820       ??_C@_1EM@LBIFGLGH@?$AAc?$AAa?$AAc?$AAh?$AAe?$AAd?$AA_?$AAh?$AAa?$AAn?$AAd?$AAl?$AAe?$AA?5?$AA?$DN@ 0000000140053820     libvcruntimed:winapi_downlevel.obj
 0002:00001870       ??_C@_1JG@EAIBPIGC@?$AAD?$AA?3?$AA?2?$AAa?$AA?2?$AA_?$AAw?$AAo?$AAr?$AAk?$AA?2?$AA1?$AA?2?$AAs?$AA?2@ 0000000140053870     libvcruntimed:winapi_downlevel.obj
 0002:00001908       ??_C@_1DI@MAHEDLDB@?$AAc?$AAa?$AAc?$AAh?$AAe?$AAd?$AA_?$AAh?$AAa?$AAn?$AAd?$AAl?$AAe?$AA?5?$AA?$DN@ 0000000140053908     libvcruntimed:winapi_downlevel.obj
 0002:00001940       ??_C@_1FC@IBNCGNKL@?$AAc?$AAa?$AAc?$AAh?$AAe?$AAd?$AA_?$AAf?$AAp?$AA?5?$AA?$DN?$AA?$DN?$AA?5?$AAi?$AAn@ 0000000140053940     libvcruntimed:winapi_downlevel.obj
 0002:00001998       ??_C@_1CI@GDJBAGLP@?$AAc?$AAa?$AAc?$AAh?$AAe?$AAd?$AA_?$AAf?$AAp?$AA?5?$AA?$DN?$AA?$DN?$AA?5?$AAn?$AAe@ 0000000140053998     libvcruntimed:winapi_downlevel.obj
 0002:000019c8       ??_C@_08KNHFBNJ@FlsAlloc@  00000001400539c8     libvcruntimed:winapi_downlevel.obj
 0002:000019e0       ??_C@_07PEJMOBNF@FlsFree@  00000001400539e0     libvcruntimed:winapi_downlevel.obj
 0002:000019f0       ??_C@_0M@GDNOONDI@FlsGetValue@ 00000001400539f0     libvcruntimed:winapi_downlevel.obj
 0002:00001a08       ??_C@_0M@JCPCPOEF@FlsSetValue@ 0000000140053a08     libvcruntimed:winapi_downlevel.obj
 0002:00001a20       ??_C@_0BM@HCFOFFN@InitializeCriticalSectionEx@ 0000000140053a20     libvcruntimed:winapi_downlevel.obj
 0002:00001a40       ??_C@_1FK@OACNEHHA@?$AAt?$AAo?$AA?9?$AA?$DO?$AA_?$AAW?$AAh?$AAa?$AAt?$AA?5?$AA?$DN?$AA?$DN?$AA?5?$AAn?$AAu@ 0000000140053a40     libvcruntimed:std_exception.obj
 0002:00001aa0       ??_C@_1IE@BLOAAGCK@?$AAD?$AA?3?$AA?2?$AAa?$AA?2?$AA_?$AAw?$AAo?$AAr?$AAk?$AA?2?$AA1?$AA?2?$AAs?$AA?2@ 0000000140053aa0     libvcruntimed:std_exception.obj
 0002:00001b30       ?standard_lookup_table_spectre@__crt_stdio_output@@3V?$spectre_mitigated_lookup_table@Ustate_transition_pair@__crt_stdio_output@@$0IA@@1@B 0000000140053b30     libucrtd:output.obj
 0002:00001c30       ?format_validation_lookup_table_spectre@__crt_stdio_output@@3V?$spectre_mitigated_lookup_table@Ustate_transition_pair@__crt_stdio_output@@$0IA@@1@B 0000000140053c30     libucrtd:output.obj
 0002:00001e00       ??_C@_1GE@DPGDJKLM@?$AAm?$AAi?$AAn?$AAk?$AAe?$AAr?$AAn?$AAe?$AAl?$AA?2?$AAc?$AAr?$AAt?$AAs?$AA?2@ 0000000140053e00     libucrtd:output.obj
 0002:00001e70       ??_C@_1GA@MOBAPGIO@?$AAm?$AAi?$AAn?$AAk?$AAe?$AAr?$AAn?$AAe?$AAl?$AA?2?$AAc?$AAr?$AAt?$AAs?$AA?2@ 0000000140053e70     libucrtd:output.obj
 0002:00001ed0       ??_C@_1CE@EAKLPBKK@?$AAf?$AAo?$AAr?$AAm?$AAa?$AAt?$AA?5?$AA?$CB?$AA?$DN?$AA?5?$AAn?$AAu?$AAl?$AAl?$AAp@ 0000000140053ed0     libucrtd:output.obj
 0002:00001ef8       ??_C@_1CA@PIMGHCEK@?$AAc?$AAo?$AAm?$AAm?$AAo?$AAn?$AA_?$AAv?$AAs?$AAp?$AAr?$AAi?$AAn?$AAt?$AAf@ 0000000140053ef8     libucrtd:output.obj
 0002:00001f20       ??_C@_1EO@EGEEFEFM@?$AAb?$AAu?$AAf?$AAf?$AAe?$AAr?$AA_?$AAc?$AAo?$AAu?$AAn?$AAt?$AA?5?$AA?$DN?$AA?$DN@ 0000000140053f20     libucrtd:output.obj
 0002:00001f70       ??_C@_1CE@JEILLNB@?$AAc?$AAo?$AAm?$AAm?$AAo?$AAn?$AA_?$AAv?$AAs?$AAp?$AAr?$AAi?$AAn?$AAt?$AAf@ 0000000140053f70     libucrtd:output.obj
 0002:00001fa0       ??_C@_1EM@OAFHAOLH@?$AAb?$AAu?$AAf?$AAf?$AAe?$AAr?$AA?5?$AA?$CB?$AA?$DN?$AA?5?$AAn?$AAu?$AAl?$AAl?$AAp@ 0000000140053fa0     libucrtd:output.obj
 0002:00001ff0       ??_C@_1DA@HPBFKMEB@?$AA?$CI?$AA?$CC?$AAB?$AAu?$AAf?$AAf?$AAe?$AAr?$AA?5?$AAt?$AAo?$AAo?$AA?5?$AAs?$AAm@ 0000000140053ff0     libucrtd:output.obj
 0002:00002020       ??_C@_1CG@LHFJHFBB@?$AAc?$AAo?$AAm?$AAm?$AAo?$AAn?$AA_?$AAv?$AAs?$AAn?$AAp?$AAr?$AAi?$AAn?$AAt@ 0000000140054020     libucrtd:output.obj
 0002:00002048       ??_C@_1CM@JOIJBMEM@?$AA_?$AAf?$AAo?$AAr?$AAm?$AAa?$AAt?$AA_?$AAi?$AAt?$AA?5?$AA?$CB?$AA?$DN?$AA?5?$AAn@ 0000000140054048     libucrtd:output.obj
 0002:00002080       ??_C@_1HA@DMAAKIJP@?$AAm?$AAi?$AAn?$AAk?$AAe?$AAr?$AAn?$AAe?$AAl?$AA?2?$AAc?$AAr?$AAt?$AAs?$AA?2@ 0000000140054080     libucrtd:output.obj
 0002:000020f0       ??_C@_1EE@DMAIGNBG@?$AA?$CI?$AA?$CC?$AAI?$AAn?$AAc?$AAo?$AAr?$AAr?$AAe?$AAc?$AAt?$AA?5?$AAf?$AAo?$AAr@ 00000001400540f0     libucrtd:output.obj
 0002:00002140       ??_C@_1BKA@DNADAJMC@?$AA_?$AA_?$AAc?$AAr?$AAt?$AA_?$AAs?$AAt?$AAd?$AAi?$AAo?$AA_?$AAo?$AAu?$AAt@ 0000000140054140     libucrtd:output.obj
 0002:000022e0       ??_C@_1FG@OBJBDPAC@?$AA?$CI?$AA?$CC?$AAN?$AA?5?$AAl?$AAe?$AAn?$AAg?$AAt?$AAh?$AA?5?$AAm?$AAo?$AAd?$AAi@ 00000001400542e0     libucrtd:output.obj
 0002:00002340       ??_C@_1EC@GJPNJDCN@?$AA_?$AAl?$AAe?$AAn?$AAg?$AAt?$AAh?$AA?5?$AA?$DN?$AA?$DN?$AA?5?$AAl?$AAe?$AAn?$AAg@ 0000000140054340     libucrtd:output.obj
 0002:00002388       ??_C@_1DG@CEJKFDMO@?$AAs?$AAt?$AAa?$AAt?$AAe?$AA_?$AAc?$AAa?$AAs?$AAe?$AA_?$AAn?$AAo?$AAr?$AAm@ 0000000140054388     libucrtd:output.obj
 0002:000023c0       ??_C@_1CI@DDKMNCPP@?$AA_?$AAc?$AAo?$AAn?$AAt?$AAe?$AAx?$AAt?$AA?5?$AA?$CB?$AA?$DN?$AA?5?$AAn?$AAu?$AAl@ 00000001400543c0     libucrtd:output.obj
 0002:000023f0       ??_C@_1HK@IIPGOADH@?$AA_?$AA_?$AAc?$AAr?$AAt?$AA_?$AAs?$AAt?$AAd?$AAi?$AAo?$AA_?$AAo?$AAu?$AAt@ 00000001400543f0     libucrtd:output.obj
 0002:00002470       ??_C@_1BLA@MEDMHIOH@?$AA_?$AA_?$AAc?$AAr?$AAt?$AA_?$AAs?$AAt?$AAd?$AAi?$AAo?$AA_?$AAo?$AAu?$AAt@ 0000000140054470     libucrtd:output.obj
 0002:00002620       ??_C@_1BLE@LCKPBJON@?$AA_?$AA_?$AAc?$AAr?$AAt?$AA_?$AAs?$AAt?$AAd?$AAi?$AAo?$AA_?$AAo?$AAu?$AAt@ 0000000140054620     libucrtd:output.obj
 0002:000027e0       ??_C@_1HE@IACOMEJF@?$AA_?$AA_?$AAc?$AAr?$AAt?$AA_?$AAs?$AAt?$AAd?$AAi?$AAo?$AA_?$AAo?$AAu?$AAt@ 00000001400547e0     libucrtd:output.obj
 0002:00002860       ??_C@_1GC@BNMHNGKM@?$AA_?$AAs?$AAt?$AAa?$AAt?$AAe?$AA?5?$AA?$DN?$AA?$DN?$AA?5?$AAs?$AAt?$AAa?$AAt?$AAe@ 0000000140054860     libucrtd:output.obj
 0002:000028d0       ??_C@_1EK@PNGFDECN@?$AA?$CI?$AA?$CC?$AA?8?$AAn?$AA?8?$AA?5?$AAf?$AAo?$AAr?$AAm?$AAa?$AAt?$AA?5?$AAs?$AAp@ 00000001400548d0     libucrtd:output.obj
 0002:00002920       ??_C@_1EO@GHKFGFKL@?$AA?$CI?$AA?$CC?$AAI?$AAn?$AAv?$AAa?$AAl?$AAi?$AAd?$AA?5?$AAi?$AAn?$AAt?$AAe?$AAg@ 0000000140054920     libucrtd:output.obj
 0002:00002970       ??_C@_1BEC@NDOOKIMC@?$AA_?$AA_?$AAc?$AAr?$AAt?$AA_?$AAs?$AAt?$AAd?$AAi?$AAo?$AA_?$AAo?$AAu?$AAt@ 0000000140054970     libucrtd:output.obj
 0002:00002ac0       ??_C@_1BDG@KOLEFKPF@?$AA_?$AA_?$AAc?$AAr?$AAt?$AA_?$AAs?$AAt?$AAd?$AAi?$AAo?$AA_?$AAo?$AAu?$AAt@ 0000000140054ac0     libucrtd:output.obj
 0002:00002c00       ??_C@_1BKI@CJEIGDAI@?$AA_?$AA_?$AAc?$AAr?$AAt?$AA_?$AAs?$AAt?$AAd?$AAi?$AAo?$AA_?$AAo?$AAu?$AAt@ 0000000140054c00     libucrtd:output.obj
 0002:00002da8       ??_C@_1O@CEDCILHN@?$AA?$CI?$AAn?$AAu?$AAl?$AAl?$AA?$CJ@ 0000000140054da8     libucrtd:output.obj
 0002:00002db8       ??_C@_06OJHGLDPL@?$CInull?$CJ@ 0000000140054db8     libucrtd:output.obj
 0002:00002dc0       ??_C@_1CK@LGDCECDH@?$AA_?$AAf?$AAo?$AAr?$AAm?$AAa?$AAt?$AA_?$AAc?$AAh?$AAa?$AAr?$AA?5?$AA?$CB?$AA?$DN@ 0000000140054dc0     libucrtd:output.obj
 0002:00002df0       ??_C@_1BMA@FANDDEHK@?$AA_?$AA_?$AAc?$AAr?$AAt?$AA_?$AAs?$AAt?$AAd?$AAi?$AAo?$AA_?$AAo?$AAu?$AAt@ 0000000140054df0     libucrtd:output.obj
 0002:00002fb0       ??_C@_0DI@KIFBHMNO@minkernel?2crts?2ucrt?2inc?2corecrt@ 0000000140054fb0     libucrtd:output.obj
 0002:00002ff0       ??_C@_1BLE@IFBJPNFE@?$AA_?$AA_?$AAc?$AAr?$AAt?$AA_?$AAs?$AAt?$AAd?$AAi?$AAo?$AA_?$AAo?$AAu?$AAt@ 0000000140054ff0     libucrtd:output.obj
 0002:000031b0       ??_C@_1BMK@JGIBNIA@?$AA_?$AA_?$AAc?$AAr?$AAt?$AA_?$AAs?$AAt?$AAd?$AAi?$AAo?$AA_?$AAo?$AAu?$AAt@ 00000001400551b0     libucrtd:output.obj
 0002:00003380       ??_C@_1BLC@INKIGOCN@?$AA_?$AA_?$AAc?$AAr?$AAt?$AA_?$AAs?$AAt?$AAd?$AAi?$AAo?$AA_?$AAo?$AAu?$AAt@ 0000000140055380     libucrtd:output.obj
 0002:00003540       ??_C@_1BNK@KHNJGCCP@?$AA_?$AA_?$AAc?$AAr?$AAt?$AA_?$AAs?$AAt?$AAd?$AAi?$AAo?$AA_?$AAo?$AAu?$AAt@ 0000000140055540     libucrtd:output.obj
 0002:00003720       ??_C@_1BNO@OHFFMOOJ@?$AA_?$AA_?$AAc?$AAr?$AAt?$AA_?$AAs?$AAt?$AAd?$AAi?$AAo?$AA_?$AAo?$AAu?$AAt@ 0000000140055720     libucrtd:output.obj
 0002:00003900       ??_C@_1BMC@FAGJFBLI@?$AA_?$AA_?$AAc?$AAr?$AAt?$AA_?$AAs?$AAt?$AAd?$AAi?$AAo?$AA_?$AAo?$AAu?$AAt@ 0000000140055900     libucrtd:output.obj
 0002:00003ad0       ??_C@_1BMG@CGPDIFDK@?$AA_?$AA_?$AAc?$AAr?$AAt?$AA_?$AAs?$AAt?$AAd?$AAi?$AAo?$AA_?$AAo?$AAu?$AAt@ 0000000140055ad0     libucrtd:output.obj
 0002:00003ca0       ??_C@_1BNC@OHPDPPJK@?$AA_?$AA_?$AAc?$AAr?$AAt?$AA_?$AAs?$AAt?$AAd?$AAi?$AAo?$AA_?$AAo?$AAu?$AAt@ 0000000140055ca0     libucrtd:output.obj
 0002:00003e80       ??_C@_1BLK@FOLFMPJH@?$AA_?$AA_?$AAc?$AAr?$AAt?$AA_?$AAs?$AAt?$AAd?$AAi?$AAo?$AA_?$AAo?$AAu?$AAt@ 0000000140055e80     libucrtd:output.obj
 0002:00004040       ??_C@_1BNC@JPKLPOHO@?$AA_?$AA_?$AAc?$AAr?$AAt?$AA_?$AAs?$AAt?$AAd?$AAi?$AAo?$AA_?$AAo?$AAu?$AAt@ 0000000140056040     libucrtd:output.obj
 0002:00004220       ??_C@_1EO@MLJCKPIB@?$AAb?$AAa?$AAs?$AAe?$AA?5?$AA?$DN?$AA?$DN?$AA?5?$AA0?$AA?5?$AA?$HM?$AA?$HM?$AA?5?$AA?$CI?$AA2@ 0000000140056220     libucrtd:output.obj
 0002:00004270       ??_C@_1DI@BANODKFL@?$AA_?$AA_?$AAc?$AAr?$AAt?$AA_?$AAs?$AAt?$AAr?$AAt?$AAo?$AAx?$AA?3?$AA?3?$AAp@ 0000000140056270     libucrtd:output.obj
 0002:000042b0       ??_C@_1BNO@NAODCKFA@?$AA_?$AA_?$AAc?$AAr?$AAt?$AA_?$AAs?$AAt?$AAd?$AAi?$AAo?$AA_?$AAo?$AAu?$AAt@ 00000001400562b0     libucrtd:output.obj
 0002:00004490       ??_C@_1BMG@BBEFGBID@?$AA_?$AA_?$AAc?$AAr?$AAt?$AA_?$AAs?$AAt?$AAd?$AAi?$AAo?$AA_?$AAo?$AAu?$AAt@ 0000000140056490     libucrtd:output.obj
 0002:00004658       ??_C@_1CM@GJENOOEJ@?$AAc?$AA?5?$AA?$DN?$AA?$DN?$AA?5?$AA?8?$AA?2?$AA0?$AA?8?$AA?5?$AA?$HM?$AA?$HM?$AA?5?$AA?$CK?$AA_@ 0000000140056658     libucrtd:output.obj
 0002:00004690       ??_C@_1GK@MNHIDABG@?$AA_?$AA_?$AAc?$AAr?$AAt?$AA_?$AAs?$AAt?$AAr?$AAt?$AAo?$AAx?$AA?3?$AA?3?$AAc@ 0000000140056690     libucrtd:output.obj
 0002:00004700       ??_C@_1BM@PNEBBBDO@?$AA_?$AAp?$AA?5?$AA?$CB?$AA?$DN?$AA?5?$AAn?$AAu?$AAl?$AAl?$AAp?$AAt?$AAr@ 0000000140056700     libucrtd:output.obj
 0002:00004720       ??_C@_1HA@MKKIHBHP@?$AA_?$AA_?$AAc?$AAr?$AAt?$AA_?$AAs?$AAt?$AAr?$AAt?$AAo?$AAx?$AA?3?$AA?3?$AAc@ 0000000140056720     libucrtd:output.obj
 0002:00004790       ??_C@_1HA@CONLANFI@?$AA_?$AA_?$AAc?$AAr?$AAt?$AA_?$AAs?$AAt?$AAr?$AAt?$AAo?$AAx?$AA?3?$AA?3?$AAc@ 0000000140056790     libucrtd:output.obj
 0002:00004800       ??_C@_1HG@FCDBLOEG@?$AA_?$AA_?$AAc?$AAr?$AAt?$AA_?$AAs?$AAt?$AAr?$AAt?$AAo?$AAx?$AA?3?$AA?3?$AAc@ 0000000140056800     libucrtd:output.obj
 0002:00004ad0       ??_C@_05KGFAIMPG@sqrtf@    0000000140056ad0     libucrtd:sqrtf.obj
 0002:00004bd0       __acrt_exception_action_table 0000000140056bd0     libucrtd:exception_filter.obj
 0002:00004c90       __acrt_signal_action_table_count 0000000140056c90     libucrtd:exception_filter.obj
 0002:00004c98       __acrt_signal_action_first_fpe_index 0000000140056c98     libucrtd:exception_filter.obj
 0002:00004ca0       __acrt_signal_action_fpe_count 0000000140056ca0     libucrtd:exception_filter.obj
 0002:00004cb0       ??_C@_1IC@DCNEKBE@?$AAm?$AAi?$AAn?$AAk?$AAe?$AAr?$AAn?$AAe?$AAl?$AA?2?$AAc?$AAr?$AAt?$AAs?$AA?2@ 0000000140056cb0     libucrtd:report_runtime_error.obj
 0002:00004d38       ??_C@_1DI@BLFJHKKP@?$AA_?$AA_?$AAa?$AAc?$AAr?$AAt?$AA_?$AAr?$AAe?$AAp?$AAo?$AAr?$AAt?$AA_?$AAr@ 0000000140056d38     libucrtd:report_runtime_error.obj
 0002:00004d70       ??_C@_1LE@MHPGJGKE@?$AAw?$AAc?$AAs?$AAc?$AAp?$AAy?$AA_?$AAs?$AA?$CI?$AAo?$AAu?$AAt?$AAm?$AAs?$AAg@ 0000000140056d70     libucrtd:report_runtime_error.obj
 0002:00004e28       ??_C@_1DE@JNGNBFGO@?$AAR?$AAu?$AAn?$AAt?$AAi?$AAm?$AAe?$AA?5?$AAE?$AAr?$AAr?$AAo?$AAr?$AA?$CB?$AA?6@ 0000000140056e28     libucrtd:report_runtime_error.obj
 0002:00004e60       ??_C@_1HK@FJJNAABO@?$AAw?$AAc?$AAs?$AAc?$AAp?$AAy?$AA_?$AAs?$AA?$CI?$AAp?$AAr?$AAo?$AAg?$AAn?$AAa@ 0000000140056e60     libucrtd:report_runtime_error.obj
 0002:00004ee0       ??_C@_1CO@EAEJAADC@?$AA?$DM?$AAp?$AAr?$AAo?$AAg?$AAr?$AAa?$AAm?$AA?5?$AAn?$AAa?$AAm?$AAe?$AA?5?$AAu@ 0000000140056ee0     libucrtd:report_runtime_error.obj
 0002:00004f10       ??_C@_1HI@FLHKGEBE@?$AAw?$AAc?$AAs?$AAn?$AAc?$AAp?$AAy?$AA_?$AAs?$AA?$CI?$AAp?$AAc?$AAh?$AA?0?$AA?5@ 0000000140056f10     libucrtd:report_runtime_error.obj
 0002:00004f88       ??_C@_17LGKOMLJ@?$AA?4?$AA?4?$AA?4@ 0000000140056f88     libucrtd:report_runtime_error.obj
 0002:00004f90       ??_C@_1IG@MNNKBLBI@?$AAw?$AAc?$AAs?$AAc?$AAa?$AAt?$AA_?$AAs?$AA?$CI?$AAo?$AAu?$AAt?$AAm?$AAs?$AAg@ 0000000140056f90     libucrtd:report_runtime_error.obj
 0002:00005018       ??_C@_15IABLJNFO@?$AA?6?$AA?6@ 0000000140057018     libucrtd:report_runtime_error.obj
 0002:00005020       ??_C@_1IG@DFBBBDAN@?$AAw?$AAc?$AAs?$AAc?$AAa?$AAt?$AA_?$AAs?$AA?$CI?$AAo?$AAu?$AAt?$AAm?$AAs?$AAg@ 0000000140057020     libucrtd:report_runtime_error.obj
 0002:000050b0       ??_C@_1EK@MBDPDCGA@?$AAM?$AAi?$AAc?$AAr?$AAo?$AAs?$AAo?$AAf?$AAt?$AA?5?$AAV?$AAi?$AAs?$AAu?$AAa@ 00000001400570b0     libucrtd:report_runtime_error.obj
 0002:00005128       ??_C@_0DI@KNDIGDEP@minkernel?2crts?2ucrt?2src?2appcrt?2@ 0000000140057128     libucrtd:argv_parsing.obj
 0002:00005160       ??_C@_1JO@PGBIJBAM@?$AAm?$AAo?$AAd?$AAe?$AA?5?$AA?$DN?$AA?$DN?$AA?5?$AA_?$AAc?$AAr?$AAt?$AA_?$AAa?$AAr@ 0000000140057160     libucrtd:argv_parsing.obj
 0002:00005200       ??_C@_1HA@JMLCANEE@?$AAm?$AAi?$AAn?$AAk?$AAe?$AAr?$AAn?$AAe?$AAl?$AA?2?$AAc?$AAr?$AAt?$AAs?$AA?2@ 0000000140057200     libucrtd:argv_parsing.obj
 0002:00005270       ??_C@_1CM@LHOJELIC@?$AAc?$AAo?$AAm?$AAm?$AAo?$AAn?$AA_?$AAc?$AAo?$AAn?$AAf?$AAi?$AAg?$AAu?$AAr@ 0000000140057270     libucrtd:argv_parsing.obj
 0002:000052f0       ??_C@_0EG@LEHKHOEH@minkernel?2crts?2ucrt?2src?2desktop@ 00000001400572f0     libucrtd:environment_initialization.obj
 0002:00005340       ??_C@_1IM@IMOFFPLG@?$AAm?$AAi?$AAn?$AAk?$AAe?$AAr?$AAn?$AAe?$AAl?$AA?2?$AAc?$AAr?$AAt?$AAs?$AA?2@ 0000000140057340     libucrtd:environment_initialization.obj
 0002:000053d0       ??_C@_1CG@MNNNBNAK@?$AAc?$AAr?$AAe?$AAa?$AAt?$AAe?$AA_?$AAe?$AAn?$AAv?$AAi?$AAr?$AAo?$AAn?$AAm@ 00000001400573d0     libucrtd:environment_initialization.obj
 0002:00005400       ??_C@_1HI@OOPIFFGA@?$AAt?$AAr?$AAa?$AAi?$AAt?$AAs?$AA?3?$AA?3?$AAt?$AAc?$AAs?$AAc?$AAp?$AAy?$AA_@ 0000000140057400     libucrtd:environment_initialization.obj
 0002:000054f0       ??_C@_1BI@BGOHAHKC@?$AAm?$AAs?$AAc?$AAo?$AAr?$AAe?$AAe?$AA?4?$AAd?$AAl?$AAl@ 00000001400574f0     libucrtd:exit.obj
 0002:00005508       ??_C@_0P@MIGLKIOC@CorExitProcess@ 0000000140057508     libucrtd:exit.obj
 0002:00005520       ??_C@_1GC@CIJNGKLD@?$AAm?$AAi?$AAn?$AAk?$AAe?$AAr?$AAn?$AAe?$AAl?$AA?2?$AAc?$AAr?$AAt?$AAs?$AA?2@ 0000000140057520     libucrtd:setmode.obj
 0002:00005590       ??_C@_1FO@LPCLHKGE@?$AA?$CI?$AAf?$AAh?$AA?5?$AA?$DO?$AA?$DN?$AA?5?$AA0?$AA?5?$AA?$CG?$AA?$CG?$AA?5?$AA?$CI?$AAu?$AAn@ 0000000140057590     libucrtd:setmode.obj
 0002:000055f0       ??_C@_1CM@OKGMMMDH@?$AA?$CI?$AA_?$AAo?$AAs?$AAf?$AAi?$AAl?$AAe?$AA?$CI?$AAf?$AAh?$AA?$CJ?$AA?5?$AA?$CG?$AA?5@ 00000001400575f0     libucrtd:setmode.obj
 0002:00005620       ??_C@_1JE@ECKHFIFP@?$AA?$CI?$AA?$CC?$AAI?$AAn?$AAv?$AAa?$AAl?$AAi?$AAd?$AA?5?$AAf?$AAi?$AAl?$AAe?$AA?5@ 0000000140057620     libucrtd:setmode.obj
 0002:000056c0       ??_C@_1HC@GNDCDMJL@?$AAm?$AAo?$AAd?$AAe?$AA?5?$AA?$DN?$AA?$DN?$AA?5?$AA_?$AAO?$AA_?$AAT?$AAE?$AAX?$AAT@ 00000001400576c0     libucrtd:setmode.obj
 0002:00005738       ??_C@_1BG@IEEHLOCL@?$AA_?$AAs?$AAe?$AAt?$AA_?$AAf?$AAm?$AAo?$AAd?$AAe@ 0000000140057738     libucrtd:setmode.obj
 0002:000057a0       ??_C@_1GA@LDEGDKD@?$AA?$CI?$AA?$CC?$AAI?$AAn?$AAv?$AAa?$AAl?$AAi?$AAd?$AA?5?$AAp?$AAa?$AAr?$AAa?$AAm@ 00000001400577a0     libucrtd:wsetlocale.obj
 0002:00005800       ??_C@_1GK@DPKNLBIE@?$AAm?$AAi?$AAn?$AAk?$AAe?$AAr?$AAn?$AAe?$AAl?$AA?2?$AAc?$AAr?$AAt?$AAs?$AA?2@ 0000000140057800     libucrtd:wsetlocale.obj
 0002:00005870       ??_C@_1CI@FGIONOJM@?$AA_?$AAc?$AAo?$AAn?$AAf?$AAi?$AAg?$AAt?$AAh?$AAr?$AAe?$AAa?$AAd?$AAl?$AAo@ 0000000140057870     libucrtd:wsetlocale.obj
 0002:00005898       ??_C@_1CO@JKFLNGDK@?$AAm?$AAo?$AAd?$AAe?$AA?5?$AA?$DN?$AA?$DN?$AA?5?$AA0?$AA?5?$AA?$HM?$AA?$HM?$AA?5?$AAm?$AAo@ 0000000140057898     libucrtd:new_mode.obj
 0002:000058d0       ??_C@_1GC@PJMKBHEK@?$AAm?$AAi?$AAn?$AAk?$AAe?$AAr?$AAn?$AAe?$AAl?$AA?2?$AAc?$AAr?$AAt?$AAs?$AA?2@ 00000001400578d0     libucrtd:new_mode.obj
 0002:00005938       ??_C@_1BM@PDPAKJNF@?$AA_?$AAs?$AAe?$AAt?$AA_?$AAn?$AAe?$AAw?$AA_?$AAm?$AAo?$AAd?$AAe@ 0000000140057938     libucrtd:new_mode.obj
 0002:000059d0       ??_C@_0DC@NBHMIIKL@minkernel?2crts?2ucrt?2src?2appcrt?2@ 00000001400579d0     libucrtd:onexit.obj
 0002:00005b38       ??_C@_1DA@LLLMNMKI@?$AAa?$AAb?$AAo?$AAr?$AAt?$AA?$CI?$AA?$CJ?$AA?5?$AAh?$AAa?$AAs?$AA?5?$AAb?$AAe?$AAe@ 0000000140057b38     libucrtd:abort.obj
 0002:00005b90       ??_C@_04HJMOFLDF@Free@     0000000140057b90     libucrtd:debug_heap.obj
 0002:00005b98       ??_C@_06EFAGIKOH@Normal@   0000000140057b98     libucrtd:debug_heap.obj
 0002:00005ba0       ??_C@_03OGPFLFLO@CRT@      0000000140057ba0     libucrtd:debug_heap.obj
 0002:00005ba4       ??_C@_06KMEJCCGM@Ignore@   0000000140057ba4     libucrtd:debug_heap.obj
 0002:00005bac       ??_C@_06PJIGMIJB@Client@   0000000140057bac     libucrtd:debug_heap.obj
 0002:00005c30       ??_C@_1CE@LJFEPPMP@?$AA_?$AAC?$AAr?$AAt?$AAC?$AAh?$AAe?$AAc?$AAk?$AAM?$AAe?$AAm?$AAo?$AAr?$AAy@ 0000000140057c30     libucrtd:debug_heap.obj
 0002:00005c60       ??_C@_1GG@OCLHPJPK@?$AAm?$AAi?$AAn?$AAk?$AAe?$AAr?$AAn?$AAe?$AAl?$AA?2?$AAc?$AAr?$AAt?$AAs?$AA?2@ 0000000140057c60     libucrtd:debug_heap.obj
 0002:00005cc8       ??_C@_0DF@BBEGIFEK@Client?5hook?5allocation?5failure?5@ 0000000140057cc8     libucrtd:debug_heap.obj
 0002:00005d00       ??_C@_0CB@CCLOLAHO@Client?5hook?5allocation?5failure?4@ 0000000140057d00     libucrtd:debug_heap.obj
 0002:00005d28       ??_C@_0DC@JEMAGEKG@Error?3?5memory?5allocation?3?5bad?5m@ 0000000140057d28     libucrtd:debug_heap.obj
 0002:00005d60       ??_C@_0DI@KKJPDPGM@Client?5hook?5re?9allocation?5failu@ 0000000140057d60     libucrtd:debug_heap.obj
 0002:00005d98       ??_C@_0CE@DOFMDOL@Client?5hook?5re?9allocation?5failu@ 0000000140057d98     libucrtd:debug_heap.obj
 0002:00005dc0       ??_C@_0FA@EFEIGJKG@Error?3?5memory?5allocation?3?5bad?5m@ 0000000140057dc0     libucrtd:debug_heap.obj
 0002:00005e10       ??_C@_0EM@LGFLMAGJ@The?5Block?5at?50x?$CFp?5was?5allocated@ 0000000140057e10     libucrtd:debug_heap.obj
 0002:00005e60       ??_C@_1DM@DEDLGNML@?$AA_?$AAC?$AAr?$AAt?$AAI?$AAs?$AAV?$AAa?$AAl?$AAi?$AAd?$AAH?$AAe?$AAa?$AAp@ 0000000140057e60     libucrtd:debug_heap.obj
 0002:00005ea0       ??_C@_1PC@MCGKJLN@?$AAo?$AAl?$AAd?$AA_?$AAh?$AAe?$AAa?$AAd?$AA?9?$AA?$DO?$AA_?$AAl?$AAi?$AAn?$AAe@ 0000000140057ea0     libucrtd:debug_heap.obj
 0002:00005f98       ??_C@_0DA@HFBKENN@Error?3?5possible?5heap?5corruption@ 0000000140057f98     libucrtd:debug_heap.obj
 0002:00005fd0       ??_C@_1JM@MCMEPJEP@?$AAr?$AAe?$AAa?$AAl?$AAl?$AAo?$AAc?$AAa?$AAt?$AAi?$AAo?$AAn?$AA_?$AAi?$AAs@ 0000000140057fd0     libucrtd:debug_heap.obj
 0002:00006070       ??_C@_1DM@LNOPKAIJ@?$AA_?$AA_?$AAa?$AAc?$AAr?$AAt?$AA_?$AAl?$AAa?$AAs?$AAt?$AA_?$AAb?$AAl?$AAo@ 0000000140058070     libucrtd:debug_heap.obj
 0002:000060b0       ??_C@_1DO@HABCJBHO@?$AA_?$AA_?$AAa?$AAc?$AAr?$AAt?$AA_?$AAf?$AAi?$AAr?$AAs?$AAt?$AA_?$AAb?$AAl@ 00000001400580b0     libucrtd:debug_heap.obj
 0002:000060f0       ??_C@_1CC@CKEAHJPH@?$AAb?$AAl?$AAo?$AAc?$AAk?$AA?5?$AA?$CB?$AA?$DN?$AA?5?$AAn?$AAu?$AAl?$AAl?$AAp?$AAt@ 00000001400580f0     libucrtd:debug_heap.obj
 0002:00006120       ??_C@_0EJ@HEIBCIMJ@The?5Block?5at?50x?$CFp?5was?5allocated@ 0000000140058120     libucrtd:debug_heap.obj
 0002:00006170       ??_C@_0BL@KEIPLFAC@Client?5hook?5free?5failure?4?6@ 0000000140058170     libucrtd:debug_heap.obj
 0002:00006190       ??_C@_1FA@KDNEBILF@?$AAi?$AAs?$AA_?$AAb?$AAl?$AAo?$AAc?$AAk?$AA_?$AAt?$AAy?$AAp?$AAe?$AA_?$AAv@ 0000000140058190     libucrtd:debug_heap.obj
 0002:000061e0       ??_C@_0KI@JGFOHMEB@HEAP?5CORRUPTION?5DETECTED?3?5befor@ 00000001400581e0     libucrtd:debug_heap.obj
 0002:00006290       ??_C@_0IK@PJCGLBOB@HEAP?5CORRUPTION?5DETECTED?3?5befor@ 0000000140058290     libucrtd:debug_heap.obj
 0002:00006320       ??_C@_0KE@MBMNHHHN@HEAP?5CORRUPTION?5DETECTED?3?5after@ 0000000140058320     libucrtd:debug_heap.obj
 0002:000063d0       ??_C@_0IG@LEMBDCJK@HEAP?5CORRUPTION?5DETECTED?3?5after@ 00000001400583d0     libucrtd:debug_heap.obj
 0002:00006460       ??_C@_1OK@GFEOEJAF@?$AAh?$AAe?$AAa?$AAd?$AAe?$AAr?$AA?9?$AA?$DO?$AA_?$AAl?$AAi?$AAn?$AAe?$AA_?$AAn@ 0000000140058460     libucrtd:debug_heap.obj
 0002:00006550       ??_C@_1ME@GFALMLNA@?$AAh?$AAe?$AAa?$AAd?$AAe?$AAr?$AA?9?$AA?$DO?$AA_?$AAb?$AAl?$AAo?$AAc?$AAk?$AA_@ 0000000140058550     libucrtd:debug_heap.obj
 0002:00006618       ??_C@_1DI@ILNOPEPI@?$AA_?$AA_?$AAa?$AAc?$AAr?$AAt?$AA_?$AAl?$AAa?$AAs?$AAt?$AA_?$AAb?$AAl?$AAo@ 0000000140058618     libucrtd:debug_heap.obj
 0002:00006650       ??_C@_1DK@KEHFGDIJ@?$AA_?$AA_?$AAa?$AAc?$AAr?$AAt?$AA_?$AAf?$AAi?$AAr?$AAs?$AAt?$AA_?$AAb?$AAl@ 0000000140058650     libucrtd:debug_heap.obj
 0002:00006690       ??_C@_1BG@MBKOGDLD@?$AA_?$AAm?$AAs?$AAi?$AAz?$AAe?$AA_?$AAd?$AAb?$AAg@ 0000000140058690     libucrtd:debug_heap.obj
 0002:000066a8       ??_C@_07OHKEFPKJ@DAMAGED@  00000001400586a8     libucrtd:debug_heap.obj
 0002:000066b0       ??_C@_0KA@IHNJJKPL@HEAP?5CORRUPTION?5DETECTED?3?5on?5to@ 00000001400586b0     libucrtd:debug_heap.obj
 0002:00006750       ??_C@_0IC@BBJIOOJH@HEAP?5CORRUPTION?5DETECTED?3?5on?5to@ 0000000140058750     libucrtd:debug_heap.obj
 0002:000067e0       ??_C@_0EG@DGJMPDBH@?$CFhs?5located?5at?50x?$CFp?5is?5?$CFIu?5byte@ 00000001400587e0     libucrtd:debug_heap.obj
 0002:00006828       ??_C@_0CI@JMLBEDHJ@?$CFhs?5located?5at?50x?$CFp?5is?5?$CFIu?5byte@ 0000000140058828     libucrtd:debug_heap.obj
 0002:00006850       ??_C@_0EG@GPFHANHO@Cycle?5in?5block?5list?5detected?5wh@ 0000000140058850     libucrtd:debug_heap.obj
 0002:00006898       ??_C@_0BJ@ELMAOCAJ@Heap?5validation?5failed?4?6@ 0000000140058898     libucrtd:debug_heap.obj
 0002:000068c0       ??_C@_1IE@BBIFDGEB@?$AAn?$AAe?$AAw?$AA_?$AAb?$AAi?$AAt?$AAs?$AA?5?$AA?$DN?$AA?$DN?$AA?5?$AA_?$AAC?$AAR@ 00000001400588c0     libucrtd:debug_heap.obj
 0002:00006948       ??_C@_1BO@GJFDNMNF@?$AA_?$AAC?$AAr?$AAt?$AAS?$AAe?$AAt?$AAD?$AAb?$AAg?$AAF?$AAl?$AAa?$AAg@ 0000000140058948     libucrtd:debug_heap.obj
 0002:00006968       ??_C@_1CC@BBKMONGA@?$AAs?$AAt?$AAa?$AAt?$AAe?$AA?5?$AA?$CB?$AA?$DN?$AA?5?$AAn?$AAu?$AAl?$AAl?$AAp?$AAt@ 0000000140058968     libucrtd:debug_heap.obj
 0002:00006990       ??_C@_1CE@NJJKELF@?$AA_?$AAC?$AAr?$AAt?$AAM?$AAe?$AAm?$AAC?$AAh?$AAe?$AAc?$AAk?$AAp?$AAo?$AAi@ 0000000140058990     libucrtd:debug_heap.obj
 0002:000069b8       ??_C@_0DP@LEFMFBOD@Bad?5memory?5block?5found?5at?50x?$CFp?4@ 00000001400589b8     libucrtd:debug_heap.obj
 0002:000069f8       ??_C@_0CB@EAAIGELO@Bad?5memory?5block?5found?5at?50x?$CFp?4@ 00000001400589f8     libucrtd:debug_heap.obj
 0002:00006a1c       ??_C@_05MKKEDADM@?$CF?42X?5@ 0000000140058a1c     libucrtd:debug_heap.obj
 0002:00006a28       ??_C@_1CC@DIJAHFFJ@?$AAp?$AAr?$AAi?$AAn?$AAt?$AA_?$AAb?$AAl?$AAo?$AAc?$AAk?$AA_?$AAd?$AAa?$AAt@ 0000000140058a28     libucrtd:debug_heap.obj
 0002:00006a50       ??_C@_1BI@KALLJECN@?$AA?$CI?$AA?$CK?$AA_?$AAe?$AAr?$AAr?$AAn?$AAo?$AA?$CI?$AA?$CJ?$AA?$CJ@ 0000000140058a50     libucrtd:debug_heap.obj
 0002:00006a68       ??_C@_0BA@HJBKCELP@?5Data?3?5?$DM?$CFs?$DO?5?$CFs?6@ 0000000140058a68     libucrtd:debug_heap.obj
 0002:00006a78       ??_C@_0BE@KCIPKCIA@Dumping?5objects?5?9?$DO?6@ 0000000140058a78     libucrtd:debug_heap.obj
 0002:00006a90       ??_C@_0BE@OIEFNFL@?$CDFile?5Error?$CD?$CI?$CFd?$CJ?5?3?5@ 0000000140058a90     libucrtd:debug_heap.obj
 0002:00006aa8       ??_C@_0L@JMEFFCCJ@?$CFhs?$CI?$CFd?$CJ?5?3?5@ 0000000140058aa8     libucrtd:debug_heap.obj
 0002:00006ab4       ??_C@_06PKLGBFGM@?$HL?$CFld?$HN?5@ 0000000140058ab4     libucrtd:debug_heap.obj
 0002:00006ac0       ??_C@_0DD@GHNAAKBB@client?5block?5at?50x?$CFp?0?5subtype?5?$CF@ 0000000140058ac0     libucrtd:debug_heap.obj
 0002:00006af8       ??_C@_0CH@FAGDDGPN@normal?5block?5at?50x?$CFp?0?5?$CFIu?5bytes@ 0000000140058af8     libucrtd:debug_heap.obj
 0002:00006b20       ??_C@_0DA@MDLBNIBM@crt?5block?5at?50x?$CFp?0?5subtype?5?$CFx?0?5@ 0000000140058b20     libucrtd:debug_heap.obj
 0002:00006b50       ??_C@_0BH@GFGKJDCO@Object?5dump?5complete?4?6@ 0000000140058b50     libucrtd:debug_heap.obj
 0002:00006b68       ??_C@_0BI@JBFPOEJA@Detected?5memory?5leaks?$CB?6@ 0000000140058b68     libucrtd:debug_heap.obj
 0002:00006b80       ??_C@_1GI@BBAEIKL@?$AA?$CI?$AA?$CI?$AAd?$AAe?$AAs?$AAt?$AAi?$AAn?$AAa?$AAt?$AAi?$AAo?$AAn?$AA?$CJ?$AA?$CJ@ 0000000140058b80     libucrtd:strcpy_s.obj
 0002:00006bf0       ??_C@_1HI@PBJPCEBC@?$AAm?$AAi?$AAn?$AAk?$AAe?$AAr?$AAn?$AAe?$AAl?$AA?2?$AAc?$AAr?$AAt?$AAs?$AA?2@ 0000000140058bf0     libucrtd:strcpy_s.obj
 0002:00006c68       ??_C@_1CA@FHIAGDFH@?$AAc?$AAo?$AAm?$AAm?$AAo?$AAn?$AA_?$AAt?$AAc?$AAs?$AAc?$AAp?$AAy?$AA_?$AAs@ 0000000140058c68     libucrtd:strcpy_s.obj
 0002:00006c88       ??_C@_1CK@EIOKGPJL@?$AA?$CI?$AA?$CI?$AA?$CI?$AAs?$AAo?$AAu?$AAr?$AAc?$AAe?$AA?$CJ?$AA?$CJ?$AA?$CJ?$AA?5?$AA?$CB?$AA?$DN@ 0000000140058c88     libucrtd:strcpy_s.obj
 0002:00006cb8       ??_C@_1CI@HCPHDDLE@?$AAB?$AAu?$AAf?$AAf?$AAe?$AAr?$AA?5?$AAi?$AAs?$AA?5?$AAt?$AAo?$AAo?$AA?5?$AAs@ 0000000140058cb8     libucrtd:strcpy_s.obj
 0002:00006ce0       ??_C@_1DM@MADKGDLO@?$AA?$CI?$AAL?$AA?$CC?$AAB?$AAu?$AAf?$AAf?$AAe?$AAr?$AA?5?$AAi?$AAs?$AA?5?$AAt?$AAo@ 0000000140058ce0     libucrtd:strcpy_s.obj
 0002:00006d38       ??_C@_1BA@GLMCNLEM@?$AAW?$AAa?$AAr?$AAn?$AAi?$AAn?$AAg@ 0000000140058d38     libucrtd:dbgrpt.obj
 0002:00006d48       ??_C@_1M@ILHOPKA@?$AAE?$AAr?$AAr?$AAo?$AAr@ 0000000140058d48     libucrtd:dbgrpt.obj
 0002:00006d58       ??_C@_1CC@CGHMNGDG@?$AAA?$AAs?$AAs?$AAe?$AAr?$AAt?$AAi?$AAo?$AAn?$AA?5?$AAF?$AAa?$AAi?$AAl?$AAe@ 0000000140058d58     libucrtd:dbgrpt.obj
 0002:00006d90       ??_C@_1OG@PMPPFHAF@?$AA?6?$AA?6?$AAF?$AAo?$AAr?$AA?5?$AAi?$AAn?$AAf?$AAo?$AAr?$AAm?$AAa?$AAt?$AAi@ 0000000140058d90     libucrtd:dbgrpt.obj
 0002:00006e80       ??_C@_1MG@LJLILFFD@?$AAD?$AAe?$AAb?$AAu?$AAg?$AA?5?$AA?$CF?$AAl?$AAs?$AA?$CB?$AA?6?$AA?6?$AAP?$AAr?$AAo@ 0000000140058e80     libucrtd:dbgrpt.obj
 0002:00006f50       ??_C@_1MG@OODCADGL@?$AAD?$AAe?$AAb?$AAu?$AAg?$AA?5?$AA?$CF?$AAl?$AAs?$AA?$CB?$AA?6?$AA?6?$AAP?$AAr?$AAo@ 0000000140058f50     libucrtd:dbgrpt.obj
 0002:00007018       ??_C@_0BH@DNAGHKFM@?$DMprogram?5name?5unknown?$DO@ 0000000140059018     libucrtd:dbgrpt.obj
 0002:00007030       ??_C@_1FO@GMJDLAJD@?$AAm?$AAi?$AAn?$AAk?$AAe?$AAr?$AAn?$AAe?$AAl?$AA?2?$AAc?$AAr?$AAt?$AAs?$AA?2@ 0000000140059030     libucrtd:dbgrpt.obj
 0002:00007090       ??_C@_1CM@EHMOGBJJ@?$AAc?$AAo?$AAm?$AAm?$AAo?$AAn?$AA_?$AAm?$AAe?$AAs?$AAs?$AAa?$AAg?$AAe?$AA_@ 0000000140059090     libucrtd:dbgrpt.obj
 0002:000070c0       ??_C@_1PE@ECNALGCA@?$AAt?$AAr?$AAa?$AAi?$AAt?$AAs?$AA?3?$AA?3?$AAt?$AAc?$AAs?$AAc?$AAp?$AAy?$AA_@ 00000001400590c0     libucrtd:dbgrpt.obj
 0002:000071b8       ??_C@_1BK@PEDCIPMA@?$AAE?$AAx?$AAp?$AAr?$AAe?$AAs?$AAs?$AAi?$AAo?$AAn?$AA?3?$AA?5@ 00000001400591b8     libucrtd:dbgrpt.obj
 0002:000071d8       ??_C@_1BA@GLLGCPCK@?$AA?6?$AAL?$AAi?$AAn?$AAe?$AA?3?$AA?5@ 00000001400591d8     libucrtd:dbgrpt.obj
 0002:000071e8       ??_C@_1BA@LNHECFIM@?$AA?6?$AAF?$AAi?$AAl?$AAe?$AA?3?$AA?5@ 00000001400591e8     libucrtd:dbgrpt.obj
 0002:000071f8       ??_C@_1BE@CGCJKGHI@?$AA?6?$AAM?$AAo?$AAd?$AAu?$AAl?$AAe?$AA?3?$AA?5@ 00000001400591f8     libucrtd:dbgrpt.obj
 0002:00007210       ??_C@_1JM@IBOIJEOO@?$AAw?$AAc?$AAs?$AAc?$AAp?$AAy?$AA_?$AAs?$AA?$CI?$AAm?$AAe?$AAs?$AAs?$AAa?$AAg@ 0000000140059210     libucrtd:dbgrpt.obj
 0002:000072b0       ??_C@_1FG@BBOLDHGF@?$AA_?$AAC?$AAr?$AAt?$AAD?$AAb?$AAg?$AAR?$AAe?$AAp?$AAo?$AAr?$AAt?$AA?3?$AA?5@ 00000001400592b0     libucrtd:dbgrpt.obj
 0002:00007478       ??_C@_1CE@JMFACANE@?$AAr?$AAe?$AAs?$AAu?$AAl?$AAt?$AA?5?$AA?$CB?$AA?$DN?$AA?5?$AAn?$AAu?$AAl?$AAl?$AAp@ 0000000140059478     libucrtd:errno.obj
 0002:00007520       ??_C@_03OEIAHPBN@INF@      0000000140059520     libucrtd:cvt.obj
 0002:00007524       ??_C@_03OJHLLCGB@inf@      0000000140059524     libucrtd:cvt.obj
 0002:00007528       ??_C@_03LKNCIKJB@NAN@      0000000140059528     libucrtd:cvt.obj
 0002:0000752c       ??_C@_03LHCJEHON@nan@      000000014005952c     libucrtd:cvt.obj
 0002:00007530       ??_C@_09OFJJIMPC@NAN?$CISNAN?$CJ@ 0000000140059530     libucrtd:cvt.obj
 0002:00007540       ??_C@_09IPFBKMDL@nan?$CIsnan?$CJ@ 0000000140059540     libucrtd:cvt.obj
 0002:00007550       ??_C@_08IKHNHAJ@NAN?$CIIND?$CJ@ 0000000140059550     libucrtd:cvt.obj
 0002:00007560       ??_C@_08OFCDMILK@nan?$CIind?$CJ@ 0000000140059560     libucrtd:cvt.obj
 0002:00007570       ??_C@_1FO@GKAKAPLI@?$AAm?$AAi?$AAn?$AAk?$AAe?$AAr?$AAn?$AAe?$AAl?$AA?2?$AAc?$AAr?$AAt?$AAs?$AA?2@ 0000000140059570     libucrtd:cvt.obj
 0002:000075d0       ??_C@_1DE@EHGIGIDK@?$AAf?$AAp?$AA_?$AAf?$AAo?$AAr?$AAm?$AAa?$AAt?$AA_?$AAn?$AAa?$AAn?$AA_?$AAo@ 00000001400595d0     libucrtd:cvt.obj
 0002:00007610       ??_C@_1LI@PCMLJPCO@?$AAs?$AAt?$AAr?$AAc?$AAp?$AAy?$AA_?$AAs?$AA?$CI?$AA?5?$AAr?$AAe?$AAs?$AAu?$AAl@ 0000000140059610     libucrtd:cvt.obj
 0002:000076d0       ??_C@_1KO@LJHOFBCD@?$AAr?$AAe?$AAs?$AAu?$AAl?$AAt?$AA_?$AAb?$AAu?$AAf?$AAf?$AAe?$AAr?$AA_?$AAc@ 00000001400596d0     libucrtd:cvt.obj
 0002:00007780       ??_C@_1CK@BOLHOMFO@?$AAf?$AAp?$AA_?$AAf?$AAo?$AAr?$AAm?$AAa?$AAt?$AA_?$AAe?$AA_?$AAi?$AAn?$AAt@ 0000000140059780     libucrtd:cvt.obj
 0002:000077b0       ??_C@_1BBE@LHDOMEDC@?$AAs?$AAt?$AAr?$AAc?$AAp?$AAy?$AA_?$AAs?$AA?$CI?$AA?5?$AAp?$AA?0?$AA?5?$AAr?$AAe@ 00000001400597b0     libucrtd:cvt.obj
 0002:000078c4       ??_C@_05KLBDPFGC@e?$CL000@ 00000001400598c4     libucrtd:cvt.obj
 0002:000078d0       ??_C@_1IC@FILKPBAB@?$AAr?$AAe?$AAs?$AAu?$AAl?$AAt?$AA_?$AAb?$AAu?$AAf?$AAf?$AAe?$AAr?$AA_?$AAc@ 00000001400598d0     libucrtd:cvt.obj
 0002:00007958       ??_C@_1BI@PNBDLNBB@?$AAf?$AAp?$AA_?$AAf?$AAo?$AAr?$AAm?$AAa?$AAt?$AA_?$AAa@ 0000000140059958     libucrtd:cvt.obj
 0002:00007970       ??_C@_1DC@MGKAFPFD@?$AAr?$AAe?$AAs?$AAu?$AAl?$AAt?$AA_?$AAb?$AAu?$AAf?$AAf?$AAe?$AAr?$AA?5?$AA?$CB@ 0000000140059970     libucrtd:cvt.obj
 0002:000079a8       ??_C@_1CC@LDAHJAKK@?$AA_?$AA_?$AAa?$AAc?$AAr?$AAt?$AA_?$AAf?$AAp?$AA_?$AAf?$AAo?$AAr?$AAm?$AAa@ 00000001400599a8     libucrtd:cvt.obj
 0002:000079d0       ??_C@_1DA@NMLJJOCO@?$AAr?$AAe?$AAs?$AAu?$AAl?$AAt?$AA_?$AAb?$AAu?$AAf?$AAf?$AAe?$AAr?$AA_?$AAc@ 00000001400599d0     libucrtd:cvt.obj
 0002:00007a00       ??_C@_1DE@MNOPBCOK@?$AAs?$AAc?$AAr?$AAa?$AAt?$AAc?$AAh?$AA_?$AAb?$AAu?$AAf?$AAf?$AAe?$AAr?$AA?5@ 0000000140059a00     libucrtd:cvt.obj
 0002:00007a38       ??_C@_1DC@CKBKNFKH@?$AAs?$AAc?$AAr?$AAa?$AAt?$AAc?$AAh?$AA_?$AAb?$AAu?$AAf?$AAf?$AAe?$AAr?$AA_@ 0000000140059a38     libucrtd:cvt.obj
 0002:00007a70       ??_C@_1EI@JAHBOGIM@?$AA?$CI?$AA?$CC?$AAU?$AAn?$AAs?$AAu?$AAp?$AAp?$AAo?$AAr?$AAt?$AAe?$AAd?$AA?5?$AAf@ 0000000140059a70     libucrtd:cvt.obj
 0002:00007ab8       ??_C@_1DK@NBNOAGKB@?$AAd?$AAe?$AAs?$AAt?$AAi?$AAn?$AAa?$AAt?$AAi?$AAo?$AAn?$AA_?$AAc?$AAo?$AAu@ 0000000140059ab8     libucrtd:wctomb.obj
 0002:00007b00       ??_C@_1GE@FCCEPHFG@?$AAm?$AAi?$AAn?$AAk?$AAe?$AAr?$AAn?$AAe?$AAl?$AA?2?$AAc?$AAr?$AAt?$AAs?$AA?2@ 0000000140059b00     libucrtd:wctomb.obj
 0002:00007b68       ??_C@_1CC@DNLKBKLK@?$AA_?$AAw?$AAc?$AAt?$AAo?$AAm?$AAb?$AA_?$AAi?$AAn?$AAt?$AAe?$AAr?$AAn?$AAa@ 0000000140059b68     libucrtd:wctomb.obj
 0002:00007b90       ??_C@_1CM@ENFEGCNE@?$AAd?$AAe?$AAs?$AAt?$AAi?$AAn?$AAa?$AAt?$AAi?$AAo?$AAn?$AA_?$AAc?$AAo?$AAu@ 0000000140059b90     libucrtd:wctomb.obj
 0002:00007bc0       ??_C@_1MK@HFAFPEDL@?$AAl?$AAo?$AAc?$AAa?$AAl?$AAe?$AA?9?$AA?$DO?$AAl?$AAo?$AAc?$AAi?$AAn?$AAf?$AAo@ 0000000140059bc0     libucrtd:mbtowc.obj
 0002:00007c90       ??_C@_1GE@CGIHMDEJ@?$AAm?$AAi?$AAn?$AAk?$AAe?$AAr?$AAn?$AAe?$AAl?$AA?2?$AAc?$AAr?$AAt?$AAs?$AA?2@ 0000000140059c90     libucrtd:mbtowc.obj
 0002:00007d00       ??_C@_1HA@KNBGJAIN@?$AAU?$AAT?$AAF?$AA?9?$AA8?$AA?5?$AAi?$AAs?$AAn?$AA?8?$AAt?$AA?5?$AAs?$AAu?$AAp@ 0000000140059d00     libucrtd:mbtowc.obj
 0002:00007d70       ??_C@_1OM@FCINAOPP@?$AAl?$AAo?$AAc?$AAa?$AAl?$AAe?$AA?9?$AA?$DO?$AAl?$AAo?$AAc?$AAi?$AAn?$AAf?$AAo@ 0000000140059d70     libucrtd:mbtowc.obj
 0002:00007e60       ??_C@_1GA@CPNOFAH@?$AAl?$AAo?$AAc?$AAa?$AAl?$AAe?$AA?9?$AA?$DO?$AAl?$AAo?$AAc?$AAi?$AAn?$AAf?$AAo@ 0000000140059e60     libucrtd:mbtowc.obj
 0002:00007ec0       ??_C@_1BO@MHPFFFJJ@?$AAs?$AAt?$AAr?$AAe?$AAa?$AAm?$AA?4?$AAv?$AAa?$AAl?$AAi?$AAd?$AA?$CI?$AA?$CJ@ 0000000140059ec0     libucrtd:fileno.obj
 0002:00007ee0       ??_C@_1GA@KCAHHNGP@?$AAm?$AAi?$AAn?$AAk?$AAe?$AAr?$AAn?$AAe?$AAl?$AA?2?$AAc?$AAr?$AAt?$AAs?$AA?2@ 0000000140059ee0     libucrtd:fileno.obj
 0002:00007f40       ??_C@_1BA@JGHIEKKM@?$AA_?$AAf?$AAi?$AAl?$AAe?$AAn?$AAo@ 0000000140059f40     libucrtd:fileno.obj
 0002:00007f50       ??_C@_0CP@GDJHIDC@minkernel?2crts?2ucrt?2src?2appcrt?2@ 0000000140059f50     libucrtd:_file.obj
 0002:00007f80       ??_C@_1DC@OGOLMDEL@?$AAp?$AAu?$AAb?$AAl?$AAi?$AAc?$AA_?$AAs?$AAt?$AAr?$AAe?$AAa?$AAm?$AA?5?$AA?$CB@ 0000000140059f80     libucrtd:_file.obj
 0002:000080a8       ??_C@_0DM@DKIFNNOL@minkernel?2crts?2ucrt?2src?2appcrt?2@ 000000014005a0a8     libucrtd:per_thread_data.obj
 0002:000080f0       __lc_time_c                000000014005a0f0     libucrtd:nlsdata.obj
 0002:000083b0       ??_C@_03KOEHGMDN@Sun@      000000014005a3b0     libucrtd:nlsdata.obj
 0002:000083b4       ??_C@_03PDAGKDH@Mon@       000000014005a3b4     libucrtd:nlsdata.obj
 0002:000083b8       ??_C@_03NAGEINEP@Tue@      000000014005a3b8     libucrtd:nlsdata.obj
 0002:000083bc       ??_C@_03MHOMLAJA@Wed@      000000014005a3bc     libucrtd:nlsdata.obj
 0002:000083c0       ??_C@_03IOFIKPDN@Thu@      000000014005a3c0     libucrtd:nlsdata.obj
 0002:000083c4       ??_C@_03IDIOELNC@Fri@      000000014005a3c4     libucrtd:nlsdata.obj
 0002:000083c8       ??_C@_03FEFJNEK@Sat@       000000014005a3c8     libucrtd:nlsdata.obj
 0002:000083cc       ??_C@_06OOPIFAJ@Sunday@    000000014005a3cc     libucrtd:nlsdata.obj
 0002:000083d4       ??_C@_06JLEDEDGH@Monday@   000000014005a3d4     libucrtd:nlsdata.obj
 0002:000083e0       ??_C@_07BAAGCFCM@Tuesday@  000000014005a3e0     libucrtd:nlsdata.obj
 0002:000083e8       ??_C@_09DLIGFAKA@Wednesday@ 000000014005a3e8     libucrtd:nlsdata.obj
 0002:000083f8       ??_C@_08HACCIKIA@Thursday@ 000000014005a3f8     libucrtd:nlsdata.obj
 0002:00008404       ??_C@_06JECMNKMI@Friday@   000000014005a404     libucrtd:nlsdata.obj
 0002:00008410       ??_C@_08INBOOONO@Saturday@ 000000014005a410     libucrtd:nlsdata.obj
 0002:0000841c       ??_C@_03JIHJHPIE@Jan@      000000014005a41c     libucrtd:nlsdata.obj
 0002:00008420       ??_C@_03HJBDCHOM@Feb@      000000014005a420     libucrtd:nlsdata.obj
 0002:00008424       ??_C@_03ODNJBKGA@Mar@      000000014005a424     libucrtd:nlsdata.obj
 0002:00008428       ??_C@_03LEOLGMJP@Apr@      000000014005a428     libucrtd:nlsdata.obj
 0002:0000842c       ??_C@_03CNMDKL@May@        000000014005a42c     libucrtd:nlsdata.obj
 0002:00008430       ??_C@_03IDFGHECI@Jun@      000000014005a430     libucrtd:nlsdata.obj
 0002:00008434       ??_C@_03LBGABGKK@Jul@      000000014005a434     libucrtd:nlsdata.obj
 0002:00008438       ??_C@_03IFJFEIGA@Aug@      000000014005a438     libucrtd:nlsdata.obj
 0002:0000843c       ??_C@_03GGCAPAJC@Sep@      000000014005a43c     libucrtd:nlsdata.obj
 0002:00008440       ??_C@_03BMAOKBAD@Oct@      000000014005a440     libucrtd:nlsdata.obj
 0002:00008444       ??_C@_03JPJOFNIA@Nov@      000000014005a444     libucrtd:nlsdata.obj
 0002:00008448       ??_C@_03MKABNOCG@Dec@      000000014005a448     libucrtd:nlsdata.obj
 0002:00008450       ??_C@_07CGJPFGJA@January@  000000014005a450     libucrtd:nlsdata.obj
 0002:00008458       ??_C@_08GNJGEPFN@February@ 000000014005a458     libucrtd:nlsdata.obj
 0002:00008464       ??_C@_05HPCKOFNC@March@    000000014005a464     libucrtd:nlsdata.obj
 0002:0000846c       ??_C@_05DMJDNLEJ@April@    000000014005a46c     libucrtd:nlsdata.obj
 0002:00008474       ??_C@_04CNLMGBGM@June@     000000014005a474     libucrtd:nlsdata.obj
 0002:0000847c       ??_C@_04MIEPOIFP@July@     000000014005a47c     libucrtd:nlsdata.obj
 0002:00008484       ??_C@_06LBBHFDDG@August@   000000014005a484     libucrtd:nlsdata.obj
 0002:00008490       ??_C@_09BHHEALKD@September@ 000000014005a490     libucrtd:nlsdata.obj
 0002:000084a0       ??_C@_07JJNFCEND@October@  000000014005a4a0     libucrtd:nlsdata.obj
 0002:000084a8       ??_C@_08HCHEGEOA@November@ 000000014005a4a8     libucrtd:nlsdata.obj
 0002:000084b8       ??_C@_08EDHMEBNP@December@ 000000014005a4b8     libucrtd:nlsdata.obj
 0002:000084c4       ??_C@_02DEDBPAFC@AM@       000000014005a4c4     libucrtd:nlsdata.obj
 0002:000084c8       ??_C@_02CJNFDJBF@PM@       000000014005a4c8     libucrtd:nlsdata.obj
 0002:000084d0       ??_C@_08BPBNCDIB@MM?1dd?1yy@ 000000014005a4d0     libucrtd:nlsdata.obj
 0002:000084e0       ??_C@_0BE@CKGJFCPC@dddd?0?5MMMM?5dd?0?5yyyy@ 000000014005a4e0     libucrtd:nlsdata.obj
 0002:000084f8       ??_C@_08JCCMCCIL@HH?3mm?3ss@ 000000014005a4f8     libucrtd:nlsdata.obj
 0002:00008508       ??_C@_17MBGCMIPB@?$AAS?$AAu?$AAn@ 000000014005a508     libucrtd:nlsdata.obj
 0002:00008510       ??_C@_17KBOMKBF@?$AAM?$AAo?$AAn@ 000000014005a510     libucrtd:nlsdata.obj
 0002:00008518       ??_C@_17BMKGEGOJ@?$AAT?$AAu?$AAe@ 000000014005a518     libucrtd:nlsdata.obj
 0002:00008520       ??_C@_17CJEDCEPE@?$AAW?$AAe?$AAd@ 000000014005a520     libucrtd:nlsdata.obj
 0002:00008528       ??_C@_17PDPHAADD@?$AAT?$AAh?$AAu@ 000000014005a528     libucrtd:nlsdata.obj
 0002:00008530       ??_C@_17HFOLPPLP@?$AAF?$AAr?$AAi@ 000000014005a530     libucrtd:nlsdata.obj
 0002:00008538       ??_C@_17GGIBDPIH@?$AAS?$AAa?$AAt@ 000000014005a538     libucrtd:nlsdata.obj
 0002:00008540       ??_C@_1O@IHNHDHPB@?$AAS?$AAu?$AAn?$AAd?$AAa?$AAy@ 000000014005a540     libucrtd:nlsdata.obj
 0002:00008550       ??_C@_1O@MMNBFLIA@?$AAM?$AAo?$AAn?$AAd?$AAa?$AAy@ 000000014005a550     libucrtd:nlsdata.obj
 0002:00008560       ??_C@_1BA@ENFBFFEK@?$AAT?$AAu?$AAe?$AAs?$AAd?$AAa?$AAy@ 000000014005a560     libucrtd:nlsdata.obj
 0002:00008570       ??_C@_1BE@EBOGMDOH@?$AAW?$AAe?$AAd?$AAn?$AAe?$AAs?$AAd?$AAa?$AAy@ 000000014005a570     libucrtd:nlsdata.obj
 0002:00008588       ??_C@_1BC@HHMNLIHE@?$AAT?$AAh?$AAu?$AAr?$AAs?$AAd?$AAa?$AAy@ 000000014005a588     libucrtd:nlsdata.obj
 0002:000085a0       ??_C@_1O@PDICJHAG@?$AAF?$AAr?$AAi?$AAd?$AAa?$AAy@ 000000014005a5a0     libucrtd:nlsdata.obj
 0002:000085b0       ??_C@_1BC@ENMNNPAJ@?$AAS?$AAa?$AAt?$AAu?$AAr?$AAd?$AAa?$AAy@ 000000014005a5b0     libucrtd:nlsdata.obj
 0002:000085c8       ??_C@_17DKNBKCHM@?$AAJ?$AAa?$AAn@ 000000014005a5c8     libucrtd:nlsdata.obj
 0002:000085d0       ??_C@_17LMDJEKJN@?$AAF?$AAe?$AAb@ 000000014005a5d0     libucrtd:nlsdata.obj
 0002:000085d8       ??_C@_17CKNLEDEC@?$AAM?$AAa?$AAr@ 000000014005a5d8     libucrtd:nlsdata.obj
 0002:000085e0       ??_C@_17LFPOIHDD@?$AAA?$AAp?$AAr@ 000000014005a5e0     libucrtd:nlsdata.obj
 0002:000085e8       ??_C@_17PNNKMEED@?$AAM?$AAa?$AAy@ 000000014005a5e8     libucrtd:nlsdata.obj
 0002:000085f0       ??_C@_17KCJGOCPB@?$AAJ?$AAu?$AAn@ 000000014005a5f0     libucrtd:nlsdata.obj
 0002:000085f8       ??_C@_17IJPCKHK@?$AAJ?$AAu?$AAl@ 000000014005a5f8     libucrtd:nlsdata.obj
 0002:00008600       ??_C@_17ICPELBCN@?$AAA?$AAu?$AAg@ 000000014005a600     libucrtd:nlsdata.obj
 0002:00008608       ??_C@_17HCHCOKMG@?$AAS?$AAe?$AAp@ 000000014005a608     libucrtd:nlsdata.obj
 0002:00008610       ??_C@_17FNLKOI@?$AAO?$AAc?$AAt@ 000000014005a610     libucrtd:nlsdata.obj
 0002:00008618       ??_C@_17BBDMLCIG@?$AAN?$AAo?$AAv@ 000000014005a618     libucrtd:nlsdata.obj
 0002:00008620       ??_C@_17EGKACKIF@?$AAD?$AAe?$AAc@ 000000014005a620     libucrtd:nlsdata.obj
 0002:00008628       ??_C@_1BA@EFMEIEBA@?$AAJ?$AAa?$AAn?$AAu?$AAa?$AAr?$AAy@ 000000014005a628     libucrtd:nlsdata.obj
 0002:00008638       ??_C@_1BC@JGDDFFAM@?$AAF?$AAe?$AAb?$AAr?$AAu?$AAa?$AAr?$AAy@ 000000014005a638     libucrtd:nlsdata.obj
 0002:00008650       ??_C@_1M@IKEENEDF@?$AAM?$AAa?$AAr?$AAc?$AAh@ 000000014005a650     libucrtd:nlsdata.obj
 0002:00008660       ??_C@_1M@GJNLMHFD@?$AAA?$AAp?$AAr?$AAi?$AAl@ 000000014005a660     libucrtd:nlsdata.obj
 0002:00008670       ??_C@_19EPFLPGAP@?$AAJ?$AAu?$AAn?$AAe@ 000000014005a670     libucrtd:nlsdata.obj
 0002:00008680       ??_C@_19BIFMLPCD@?$AAJ?$AAu?$AAl?$AAy@ 000000014005a680     libucrtd:nlsdata.obj
 0002:00008690       ??_C@_1O@PAHLKOAC@?$AAA?$AAu?$AAg?$AAu?$AAs?$AAt@ 000000014005a690     libucrtd:nlsdata.obj
 0002:000086a0       ??_C@_1BE@DKAAMBJL@?$AAS?$AAe?$AAp?$AAt?$AAe?$AAm?$AAb?$AAe?$AAr@ 000000014005a6a0     libucrtd:nlsdata.obj
 0002:000086b8       ??_C@_1BA@EPANDLNG@?$AAO?$AAc?$AAt?$AAo?$AAb?$AAe?$AAr@ 000000014005a6b8     libucrtd:nlsdata.obj
 0002:000086c8       ??_C@_1BC@BGLIFPF@?$AAN?$AAo?$AAv?$AAe?$AAm?$AAb?$AAe?$AAr@ 000000014005a6c8     libucrtd:nlsdata.obj
 0002:000086e0       ??_C@_1BC@FEMKIFH@?$AAD?$AAe?$AAc?$AAe?$AAm?$AAb?$AAe?$AAr@ 000000014005a6e0     libucrtd:nlsdata.obj
 0002:000086f4       ??_C@_15ODEHAHHF@?$AAA?$AAM@ 000000014005a6f4     libucrtd:nlsdata.obj
 0002:000086fc       ??_C@_15CLMNNGEL@?$AAP?$AAM@ 000000014005a6fc     libucrtd:nlsdata.obj
 0002:00008708       ??_C@_1BC@IEBCMHCM@?$AAM?$AAM?$AA?1?$AAd?$AAd?$AA?1?$AAy?$AAy@ 000000014005a708     libucrtd:nlsdata.obj
 0002:00008720       ??_C@_1CI@KNAKOEBC@?$AAd?$AAd?$AAd?$AAd?$AA?0?$AA?5?$AAM?$AAM?$AAM?$AAM?$AA?5?$AAd?$AAd?$AA?0?$AA?5@ 000000014005a720     libucrtd:nlsdata.obj
 0002:00008748       ??_C@_1BC@GDGBMEMK@?$AAH?$AAH?$AA?3?$AAm?$AAm?$AA?3?$AAs?$AAs@ 000000014005a748     libucrtd:nlsdata.obj
 0002:00008760       ??_C@_1M@BMHNFIME@?$AAe?$AAn?$AA?9?$AAU?$AAS@ 000000014005a760     libucrtd:nlsdata.obj
 0002:000088e0       ??_C@_04LAGPAAHP@sinf@     000000014005a8e0     libucrtd:sincos_special.obj
 0002:000088e8       ??_C@_04OBBKPIAC@cosf@     000000014005a8e8     libucrtd:sincos_special.obj
 0002:000088f0       ??_C@_04MHPLPEIA@tanf@     000000014005a8f0     libucrtd:sincos_special.obj
 0002:00008900       __Lcosfarray               000000014005a900     libucrtd:lsincosf_array.obj
 0002:00008930       __Lsinfarray               000000014005a930     libucrtd:lsincosf_array.obj
 0002:00008950       __L_2_by_pi_bits           000000014005a950     libucrtd:l2_by_pi_bits.obj
 0002:00008aa0       ??_C@_1DE@BCNCAIK@?$AA?$CI?$AA?$CC?$AAI?$AAn?$AAv?$AAa?$AAl?$AAi?$AAd?$AA?5?$AAe?$AAr?$AAr?$AAo?$AAr@ 000000014005aaa0     libucrtd:set_error_mode.obj
 0002:00008ae0       ??_C@_1GO@EBFPMMIJ@?$AAm?$AAi?$AAn?$AAk?$AAe?$AAr?$AAn?$AAe?$AAl?$AA?2?$AAc?$AAr?$AAt?$AAs?$AA?2@ 000000014005aae0     libucrtd:set_error_mode.obj
 0002:00008b50       ??_C@_1CA@LFDHAMEM@?$AA_?$AAs?$AAe?$AAt?$AA_?$AAe?$AAr?$AAr?$AAo?$AAr?$AA_?$AAm?$AAo?$AAd?$AAe@ 000000014005ab50     libucrtd:set_error_mode.obj
 0002:00008b70       ??_C@_1CA@EOJJMFA@?$AAc?$AAo?$AAm?$AAm?$AAo?$AAn?$AA_?$AAt?$AAc?$AAs?$AAc?$AAa?$AAt?$AA_?$AAs@ 000000014005ab70     libucrtd:wcscat_s.obj
 0002:00008b90       ??_C@_1DM@FHLMIEG@?$AAS?$AAt?$AAr?$AAi?$AAn?$AAg?$AA?5?$AAi?$AAs?$AA?5?$AAn?$AAo?$AAt?$AA?5?$AAn@ 000000014005ab90     libucrtd:wcscat_s.obj
 0002:00008bd0       ??_C@_1FA@MJKDNFFB@?$AA?$CI?$AAL?$AA?$CC?$AAS?$AAt?$AAr?$AAi?$AAn?$AAg?$AA?5?$AAi?$AAs?$AA?5?$AAn?$AAo@ 000000014005abd0     libucrtd:wcscat_s.obj
 0002:00008c20       ??_C@_1CC@CHNFGJIC@?$AAc?$AAo?$AAm?$AAm?$AAo?$AAn?$AA_?$AAt?$AAc?$AAs?$AAn?$AAc?$AAp?$AAy?$AA_@ 000000014005ac20     libucrtd:wcsncpy_s.obj
 0002:00008cc0       ??_C@_0DI@DNFGFCIK@minkernel?2crts?2ucrt?2inc?2corecrt@ 000000014005acc0     libucrtd:argv_wildcards.obj
 0002:00008d00       ??_C@_1HE@CEMHPOHH@?$AAm?$AAi?$AAn?$AAk?$AAe?$AAr?$AAn?$AAe?$AAl?$AA?2?$AAc?$AAr?$AAt?$AAs?$AA?2@ 000000014005ad00     libucrtd:argv_wildcards.obj
 0002:00008d78       ??_C@_1DK@IBFFOJGB@?$AAc?$AAo?$AAm?$AAm?$AAo?$AAn?$AA_?$AAe?$AAx?$AAp?$AAa?$AAn?$AAd?$AA_?$AAa@ 000000014005ad78     libucrtd:argv_wildcards.obj
 0002:00008dc0       ??_C@_1MC@FLPKOFON@?$AAt?$AAr?$AAa?$AAi?$AAt?$AAs?$AA?3?$AA?3?$AAt?$AAc?$AAs?$AAn?$AAc?$AAp?$AAy@ 000000014005adc0     libucrtd:argv_wildcards.obj
 0002:00008e88       ??_C@_0DK@FPFMIIJB@minkernel?2crts?2ucrt?2src?2appcrt?2@ 000000014005ae88     libucrtd:argv_wildcards.obj
 0002:00008ed0       ??_C@_1EA@KOCCBLAD@?$AAc?$AAo?$AAp?$AAy?$AA_?$AAa?$AAn?$AAd?$AA_?$AAa?$AAd?$AAd?$AA_?$AAa?$AAr@ 000000014005aed0     libucrtd:argv_wildcards.obj
 0002:00008f10       ??_C@_1KM@GDJIGAGL@?$AAt?$AAr?$AAa?$AAi?$AAt?$AAs?$AA?3?$AA?3?$AAt?$AAc?$AAs?$AAn?$AAc?$AAp?$AAy@ 000000014005af10     libucrtd:argv_wildcards.obj
 0002:00008fc0       ??_C@_1PI@FGFLAGCC@?$AAt?$AAr?$AAa?$AAi?$AAt?$AAs?$AA?3?$AA?3?$AAt?$AAc?$AAs?$AAn?$AAc?$AAp?$AAy@ 000000014005afc0     libucrtd:argv_wildcards.obj
 0002:00009100       ??_C@_1M@HPNHIDJI@?$AAj?$AAa?$AA?9?$AAJ?$AAP@ 000000014005b100     libucrtd:mbctype.obj
 0002:00009110       ??_C@_1M@BIBDDEMK@?$AAz?$AAh?$AA?9?$AAC?$AAN@ 000000014005b110     libucrtd:mbctype.obj
 0002:00009120       ??_C@_1M@JLOOOEGK@?$AAk?$AAo?$AA?9?$AAK?$AAR@ 000000014005b120     libucrtd:mbctype.obj
 0002:00009130       ??_C@_1M@CLNBBOPM@?$AAz?$AAh?$AA?9?$AAT?$AAW@ 000000014005b130     libucrtd:mbctype.obj
 0002:00009190       ??_C@_0DE@HGDKNBFD@minkernel?2crts?2ucrt?2src?2appcrt?2@ 000000014005b190     libucrtd:mbctype.obj
 0002:000091d0       ??_C@_0ED@BLPEHJAI@minkernel?2crts?2ucrt?2src?2desktop@ 000000014005b1d0     libucrtd:get_environment_from_os.obj
 0002:00009220       ??_C@_1FO@NMANMHOD@?$AAc?$AAa?$AAc?$AAh?$AAe?$AAd?$AA_?$AAs?$AAt?$AAa?$AAt?$AAe?$AA?5?$AA?$DN?$AA?$DN@ 000000014005b220     libucrtd:win_policies.obj
 0002:00009280       ??_C@_1HC@GHLNKBJK@?$AAm?$AAi?$AAn?$AAk?$AAe?$AAr?$AAn?$AAe?$AAl?$AA?2?$AAc?$AAr?$AAt?$AAs?$AA?2@ 000000014005b280     libucrtd:win_policies.obj
 0002:000092f8       ??_C@_0DB@JFFPGLDM@minkernel?2crts?2ucrt?2src?2appcrt?2@ 000000014005b2f8     libucrtd:osfinfo.obj
 0002:00009330       ??_C@_1EM@BPODPNEJ@?$AAs?$AAt?$AAa?$AAt?$AAi?$AAc?$AA_?$AAc?$AAa?$AAs?$AAt?$AA?$DM?$AAu?$AAn?$AAs@ 000000014005b330     libucrtd:osfinfo.obj
 0002:00009380       ??_C@_1GC@LDGKBAFM@?$AAm?$AAi?$AAn?$AAk?$AAe?$AAr?$AAn?$AAe?$AAl?$AA?2?$AAc?$AAr?$AAt?$AAs?$AA?2@ 000000014005b380     libucrtd:osfinfo.obj
 0002:000093e8       ??_C@_1DM@JELNOMLN@?$AA_?$AA_?$AAa?$AAc?$AAr?$AAt?$AA_?$AAl?$AAo?$AAw?$AAi?$AAo?$AA_?$AAe?$AAn@ 000000014005b3e8     libucrtd:osfinfo.obj
 0002:00009430       ??_C@_1FK@MGHFJLAL@?$AAf?$AAh?$AA?5?$AA?$DO?$AA?$DN?$AA?5?$AA0?$AA?5?$AA?$CG?$AA?$CG?$AA?5?$AA?$CI?$AAu?$AAn?$AAs@ 000000014005b430     libucrtd:osfinfo.obj
 0002:00009490       ??_C@_1BO@EMBOBGKE@?$AA_?$AAg?$AAe?$AAt?$AA_?$AAo?$AAs?$AAf?$AAh?$AAa?$AAn?$AAd?$AAl?$AAe@ 000000014005b490     libucrtd:osfinfo.obj
 0002:000094b0       ??_C@_1CI@ILOIOBLM@?$AA_?$AAo?$AAs?$AAf?$AAi?$AAl?$AAe?$AA?$CI?$AAf?$AAh?$AA?$CJ?$AA?5?$AA?$CG?$AA?5?$AAF@ 000000014005b4b0     libucrtd:osfinfo.obj
 0002:000094e0       __newctype                 000000014005b4e0     libucrtd:ctype.obj
 0002:000097e0       __newclmap                 000000014005b7e0     libucrtd:ctype.obj
 0002:00009960       __newcumap                 000000014005b960     libucrtd:ctype.obj
 0002:00009ae0       ??_C@_1CI@JELMFMDH@?$AAc?$AA?5?$AA?$DO?$AA?$DN?$AA?5?$AA?9?$AA1?$AA?5?$AA?$CG?$AA?$CG?$AA?5?$AAc?$AA?5?$AA?$DM?$AA?$DN@ 000000014005bae0     libucrtd:isctype.obj
 0002:00009b10       ??_C@_1GG@KPBGDFHJ@?$AAm?$AAi?$AAn?$AAk?$AAe?$AAr?$AAn?$AAe?$AAl?$AA?2?$AAc?$AAr?$AAt?$AAs?$AA?2@ 000000014005bb10     libucrtd:isctype.obj
 0002:00009b80       ??_C@_1FE@KNPCCODH@?$AA?$CI?$AA?$CC?$AAC?$AAo?$AAr?$AAr?$AAu?$AAp?$AAt?$AAe?$AAd?$AA?5?$AAp?$AAo?$AAi@ 000000014005bb80     libucrtd:getstringtypea.obj
 0002:00009be0       ??_C@_1EM@GPJLADAA@?$AAV?$AAC?$AAC?$AAR?$AAT?$AA?2?$AAv?$AAc?$AAr?$AAu?$AAn?$AAt?$AAi?$AAm?$AAe@ 000000014005bbe0     libucrtd:getstringtypea.obj
 0002:00009c30       ??_C@_0DJ@HCPJODDK@minkernel?2crts?2ucrt?2src?2appcrt?2@ 000000014005bc30     libucrtd:getstringtypea.obj
 0002:00009c70       ??_C@_1BKC@NBNHJIDM@?$AA?$CI?$AAp?$AAt?$AAl?$AAo?$AAc?$AAi?$AA?9?$AA?$DO?$AAl?$AAc?$AA_?$AAc?$AAa?$AAt@ 000000014005bc70     libucrtd:locale_refcounting.obj
 0002:00009e20       ??_C@_1HK@HCNMEOLA@?$AAm?$AAi?$AAn?$AAk?$AAe?$AAr?$AAn?$AAe?$AAl?$AA?2?$AAc?$AAr?$AAt?$AAs?$AA?2@ 000000014005be20     libucrtd:locale_refcounting.obj
 0002:00009e9c       ??_C@_15PJPFLCCM@?$AAu?$AAk@ 000000014005be9c     libucrtd:get_qualified_locale.obj
 0002:00009f50       ??_C@_1EA@JGEFHKEI@?$AAa?$AAp?$AAi?$AA?9?$AAm?$AAs?$AA?9?$AAw?$AAi?$AAn?$AA?9?$AAc?$AAo?$AAr?$AAe@ 000000014005bf50     libucrtd:winapi_thunks.obj
 0002:00009f90       ??_C@_1DI@IJCEHOCB@?$AAa?$AAp?$AAi?$AA?9?$AAm?$AAs?$AA?9?$AAw?$AAi?$AAn?$AA?9?$AAc?$AAo?$AAr?$AAe@ 000000014005bf90     libucrtd:winapi_thunks.obj
 0002:00009fd0       ??_C@_1EI@MPIAOHOC@?$AAa?$AAp?$AAi?$AA?9?$AAm?$AAs?$AA?9?$AAw?$AAi?$AAn?$AA?9?$AAc?$AAo?$AAr?$AAe@ 000000014005bfd0     libucrtd:winapi_thunks.obj
 0002:0000a020       ??_C@_1FK@FPHCKFIE@?$AAa?$AAp?$AAi?$AA?9?$AAm?$AAs?$AA?9?$AAw?$AAi?$AAn?$AA?9?$AAc?$AAo?$AAr?$AAe@ 000000014005c020     libucrtd:winapi_thunks.obj
 0002:0000a080       ??_C@_1EM@DILCGIIO@?$AAa?$AAp?$AAi?$AA?9?$AAm?$AAs?$AA?9?$AAw?$AAi?$AAn?$AA?9?$AAc?$AAo?$AAr?$AAe@ 000000014005c080     libucrtd:winapi_thunks.obj
 0002:0000a0d0       ??_C@_1DM@LNCGDDPN@?$AAa?$AAp?$AAi?$AA?9?$AAm?$AAs?$AA?9?$AAw?$AAi?$AAn?$AA?9?$AAc?$AAo?$AAr?$AAe@ 000000014005c0d0     libucrtd:winapi_thunks.obj
 0002:0000a110       ??_C@_1DO@FPAPJEMD@?$AAa?$AAp?$AAi?$AA?9?$AAm?$AAs?$AA?9?$AAw?$AAi?$AAn?$AA?9?$AAc?$AAo?$AAr?$AAe@ 000000014005c110     libucrtd:winapi_thunks.obj
 0002:0000a150       ??_C@_1DK@NDHNAHIO@?$AAa?$AAp?$AAi?$AA?9?$AAm?$AAs?$AA?9?$AAw?$AAi?$AAn?$AA?9?$AAc?$AAo?$AAr?$AAe@ 000000014005c150     libucrtd:winapi_thunks.obj
 0002:0000a190       ??_C@_1DM@KGHDGBCM@?$AAa?$AAp?$AAi?$AA?9?$AAm?$AAs?$AA?9?$AAw?$AAi?$AAn?$AA?9?$AAc?$AAo?$AAr?$AAe@ 000000014005c190     libucrtd:winapi_thunks.obj
 0002:0000a1d0       ??_C@_1EO@IJIOEFOH@?$AAa?$AAp?$AAi?$AA?9?$AAm?$AAs?$AA?9?$AAw?$AAi?$AAn?$AA?9?$AAr?$AAt?$AAc?$AAo@ 000000014005c1d0     libucrtd:winapi_thunks.obj
 0002:0000a220       ??_C@_1FG@HHGEKANL@?$AAa?$AAp?$AAi?$AA?9?$AAm?$AAs?$AA?9?$AAw?$AAi?$AAn?$AA?9?$AAs?$AAe?$AAc?$AAu@ 000000014005c220     libucrtd:winapi_thunks.obj
 0002:0000a280       ??_C@_1EG@DBIOJECG@?$AAe?$AAx?$AAt?$AA?9?$AAm?$AAs?$AA?9?$AAw?$AAi?$AAn?$AA?9?$AAn?$AAt?$AAu?$AAs@ 000000014005c280     libucrtd:winapi_thunks.obj
 0002:0000a2d0       ??_C@_1EO@FIHMJCLF@?$AAe?$AAx?$AAt?$AA?9?$AAm?$AAs?$AA?9?$AAw?$AAi?$AAn?$AA?9?$AAn?$AAt?$AAu?$AAs@ 000000014005c2d0     libucrtd:winapi_thunks.obj
 0002:0000a320       ??_C@_1BC@DNHGCMLG@?$AAa?$AAd?$AAv?$AAa?$AAp?$AAi?$AA3?$AA2@ 000000014005c320     libucrtd:winapi_thunks.obj
 0002:0000a338       ??_C@_1M@OAIMIKLP@?$AAn?$AAt?$AAd?$AAl?$AAl@ 000000014005c338     libucrtd:winapi_thunks.obj
 0002:0000a350       ??_C@_1EG@DPGNFKGC@?$AAa?$AAp?$AAi?$AA?9?$AAm?$AAs?$AA?9?$AAw?$AAi?$AAn?$AA?9?$AAa?$AAp?$AAp?$AAm@ 000000014005c350     libucrtd:winapi_thunks.obj
 0002:0000a398       ??_C@_1O@BCCLBEOE@?$AAu?$AAs?$AAe?$AAr?$AA3?$AA2@ 000000014005c398     libucrtd:winapi_thunks.obj
 0002:0000a3a8       ??_C@_1BA@IAIFMGEF@?$AAe?$AAx?$AAt?$AA?9?$AAm?$AAs?$AA?9@ 000000014005c3a8     libucrtd:winapi_thunks.obj
 0002:0000a3c0       ??_C@_1HE@OILMBOBA@?$AAm?$AAi?$AAn?$AAk?$AAe?$AAr?$AAn?$AAe?$AAl?$AA?2?$AAc?$AAr?$AAt?$AAs?$AA?2@ 000000014005c3c0     libucrtd:winapi_thunks.obj
 0002:0000a438       ??_C@_0BA@FHFNEAED@AreFileApisANSI@ 000000014005c438     libucrtd:winapi_thunks.obj
 0002:0000a450       ??_C@_0BA@HNOPNCHB@GetActiveWindow@ 000000014005c450     libucrtd:winapi_thunks.obj
 0002:0000a468       ??_C@_0BD@HHGDFDBJ@GetLastActivePopup@ 000000014005c468     libucrtd:winapi_thunks.obj
 0002:0000a488       ??_C@_0BI@DFKBFLJE@GetProcessWindowStation@ 000000014005c488     libucrtd:winapi_thunks.obj
 0002:0000a4a8       ??_C@_0BK@DEKFELLI@GetUserObjectInformationW@ 000000014005c4a8     libucrtd:winapi_thunks.obj
 0002:0000a4d8       ??_C@_0O@KKBNKAPF@LCMapStringEx@ 000000014005c4d8     libucrtd:winapi_thunks.obj
 0002:0000a4f0       ??_C@_0BB@HBDEELFH@LocaleNameToLCID@ 000000014005c4f0     libucrtd:winapi_thunks.obj
 0002:0000a510       ??_C@_0M@CHKKJDAI@MessageBoxA@ 000000014005c510     libucrtd:winapi_thunks.obj
 0002:0000a528       ??_C@_0M@DLDCCGNP@MessageBoxW@ 000000014005c528     libucrtd:winapi_thunks.obj
 0002:0000a538       ??_C@_0CF@OJOFEIGO@AppPolicyGetProcessTerminationM@ 000000014005c538     libucrtd:winapi_thunks.obj
 0002:0000a568       ??_C@_0CE@OICFMIKE@AppPolicyGetShowDeveloperDiagno@ 000000014005c568     libucrtd:winapi_thunks.obj
 0002:0000a590       ??_C@_0BL@ODDJNEDA@AppPolicyGetWindowingModel@ 000000014005c590     libucrtd:winapi_thunks.obj
 0002:0000a5d8       ??_C@_1DA@NBILLKNO@?$AAl?$AAo?$AAc?$AAa?$AAl?$AA_?$AAa?$AAc?$AAt?$AAi?$AAo?$AAn?$AA?5?$AA?$CB?$AA?$DN@ 000000014005c5d8     libucrtd:signal.obj
 0002:0000a610       ??_C@_1FO@CCGDPEKE@?$AAm?$AAi?$AAn?$AAk?$AAe?$AAr?$AAn?$AAe?$AAl?$AA?2?$AAc?$AAr?$AAt?$AAs?$AA?2@ 000000014005c610     libucrtd:signal.obj
 0002:0000a670       ??_C@_1M@DMJEIKHL@?$AAr?$AAa?$AAi?$AAs?$AAe@ 000000014005c670     libucrtd:signal.obj
 0002:0000a680       ??_C@_1DO@MLNEDKGB@?$AA?$CI?$AA?$CC?$AAI?$AAn?$AAv?$AAa?$AAl?$AAi?$AAd?$AA?5?$AAs?$AAi?$AAg?$AAn?$AAa@ 000000014005c680     libucrtd:signal.obj
 0002:0000a6c0       ??_C@_1FO@GEKPJHID@?$AAm?$AAi?$AAn?$AAk?$AAe?$AAr?$AAn?$AAe?$AAl?$AA?2?$AAc?$AAr?$AAt?$AAs?$AA?2@ 000000014005c6c0     libucrtd:expand.obj
 0002:0000a720       ??_C@_1BK@JMCGJOCC@?$AA_?$AAe?$AAx?$AAp?$AAa?$AAn?$AAd?$AA_?$AAb?$AAa?$AAs?$AAe@ 000000014005c720     libucrtd:expand.obj
 0002:0000a740       ??_C@_1GA@LFAOKOOP@?$AAm?$AAi?$AAn?$AAk?$AAe?$AAr?$AAn?$AAe?$AAl?$AA?2?$AAc?$AAr?$AAt?$AAs?$AA?2@ 000000014005c740     libucrtd:dbgrptt.obj
 0002:0000a7a0       ??_C@_1CA@KHJHLKA@?$AA_?$AAV?$AAC?$AAr?$AAt?$AAD?$AAb?$AAg?$AAR?$AAe?$AAp?$AAo?$AAr?$AAt?$AAA@ 000000014005c7a0     libucrtd:dbgrptt.obj
 0002:0000a7c0       ??_C@_1FA@JPHJBHEM@?$AA_?$AAi?$AAt?$AAo?$AAa?$AA_?$AAs?$AA?$CI?$AAn?$AAL?$AAi?$AAn?$AAe?$AA?0?$AA?5@ 000000014005c7c0     libucrtd:dbgrptt.obj
 0002:0000a810       ??_C@_0CG@BNGLOCEO@Second?5Chance?5Assertion?5Failed?3@ 000000014005c810     libucrtd:dbgrptt.obj
 0002:0000a838       ??_C@_0P@DFJNDPOP@?$DMfile?5unknown?$DO@ 000000014005c838     libucrtd:dbgrptt.obj
 0002:0000a848       ??_C@_07BHGABMGB@?0?5Line?5@ 000000014005c848     libucrtd:dbgrptt.obj
 0002:0000a850       ??_C@_01EEMJAFIK@?6@       000000014005c850     libucrtd:dbgrptt.obj
 0002:0000a860       ??_C@_1JI@GAALPGBM@?$AAs?$AAt?$AAr?$AAc?$AAp?$AAy?$AA_?$AAs?$AA?$CI?$AAs?$AAz?$AAU?$AAs?$AAe?$AAr@ 000000014005c860     libucrtd:dbgrptt.obj
 0002:0000a8f8       ??_C@_0CL@EACFGMNB@_CrtDbgReport?3?5String?5too?5long?5@ 000000014005c8f8     libucrtd:dbgrptt.obj
 0002:0000a930       ??_C@_1KK@GIGAEDMO@?$AAs?$AAt?$AAr?$AAc?$AAp?$AAy?$AA_?$AAs?$AA?$CI?$AAs?$AAz?$AAL?$AAi?$AAn?$AAe@ 000000014005c930     libucrtd:dbgrptt.obj
 0002:0000a9e0       ??_C@_0BD@CAENFOHP@Assertion?5failed?3?5@ 000000014005c9e0     libucrtd:dbgrptt.obj
 0002:0000a9f8       ??_C@_0BC@LAIDCHCH@Assertion?5failed?$CB@ 000000014005c9f8     libucrtd:dbgrptt.obj
 0002:0000aa10       ??_C@_1FK@NPGBPOFO@?$AAs?$AAt?$AAr?$AAc?$AAa?$AAt?$AA_?$AAs?$AA?$CI?$AAs?$AAz?$AAL?$AAi?$AAn?$AAe@ 000000014005ca10     libucrtd:dbgrptt.obj
 0002:0000aa70       ??_C@_1EI@CACDLAFK@?$AAs?$AAt?$AAr?$AAc?$AAa?$AAt?$AA_?$AAs?$AA?$CI?$AAs?$AAz?$AAL?$AAi?$AAn?$AAe@ 000000014005ca70     libucrtd:dbgrptt.obj
 0002:0000aab8       ??_C@_01LIIJDEN@?$AN@      000000014005cab8     libucrtd:dbgrptt.obj
 0002:0000aac0       ??_C@_1EI@LDHJEDO@?$AAs?$AAt?$AAr?$AAc?$AAa?$AAt?$AA_?$AAs?$AA?$CI?$AAs?$AAz?$AAL?$AAi?$AAn?$AAe@ 000000014005cac0     libucrtd:dbgrptt.obj
 0002:0000ab08       ??_C@_0M@IPILFDFN@?$CFs?$CI?$CFd?$CJ?5?3?5?$CFs@ 000000014005cb08     libucrtd:dbgrptt.obj
 0002:0000ab20       ??_C@_1JG@CPKCIOEE@?$AAs?$AAt?$AAr?$AAc?$AAp?$AAy?$AA_?$AAs?$AA?$CI?$AAs?$AAz?$AAO?$AAu?$AAt?$AAM@ 000000014005cb20     libucrtd:dbgrptt.obj
 0002:0000abc0       ??_C@_1FI@IBIOIHEG@?$AAs?$AAt?$AAr?$AAc?$AAp?$AAy?$AA_?$AAs?$AA?$CI?$AAs?$AAz?$AAO?$AAu?$AAt?$AAM@ 000000014005cbc0     libucrtd:dbgrptt.obj
 0002:0000ac20       ??_C@_1IM@OOKIFKOH@?$AAe?$AA?5?$AA?$DN?$AA?5?$AAm?$AAb?$AAs?$AAt?$AAo?$AAw?$AAc?$AAs?$AA_?$AAs?$AA?$CI@ 000000014005cc20     libucrtd:dbgrptt.obj
 0002:0000acb0       ??_C@_1MC@IGEECMDB@?$AAw?$AAc?$AAs?$AAc?$AAp?$AAy?$AA_?$AAs?$AA?$CI?$AAs?$AAz?$AAO?$AAu?$AAt?$AAM@ 000000014005ccb0     libucrtd:dbgrptt.obj
 0002:0000ad80       ??_C@_1HO@PJOFIKFE@?$AA_?$AAC?$AAr?$AAt?$AAD?$AAb?$AAg?$AAR?$AAe?$AAp?$AAo?$AAr?$AAt?$AA?3?$AA?5@ 000000014005cd80     libucrtd:dbgrptt.obj
 0002:0000ae00       ??_C@_1CA@HPALHDOD@?$AA_?$AAV?$AAC?$AAr?$AAt?$AAD?$AAb?$AAg?$AAR?$AAe?$AAp?$AAo?$AAr?$AAt?$AAW@ 000000014005ce00     libucrtd:dbgrptt.obj
 0002:0000ae20       ??_C@_1FA@CNLLOMHI@?$AA_?$AAi?$AAt?$AAo?$AAw?$AA_?$AAs?$AA?$CI?$AAn?$AAL?$AAi?$AAn?$AAe?$AA?0?$AA?5@ 000000014005ce20     libucrtd:dbgrptt.obj
 0002:0000ae70       ??_C@_1EM@MJFLEDMB@?$AAS?$AAe?$AAc?$AAo?$AAn?$AAd?$AA?5?$AAC?$AAh?$AAa?$AAn?$AAc?$AAe?$AA?5?$AAA@ 000000014005ce70     libucrtd:dbgrptt.obj
 0002:0000aec0       ??_C@_1BO@OCHMLCAG@?$AA?$DM?$AAf?$AAi?$AAl?$AAe?$AA?5?$AAu?$AAn?$AAk?$AAn?$AAo?$AAw?$AAn?$AA?$DO@ 000000014005cec0     libucrtd:dbgrptt.obj
 0002:0000aee0       ??_C@_1BA@ELMMDCFC@?$AA?0?$AA?5?$AAL?$AAi?$AAn?$AAe?$AA?5@ 000000014005cee0     libucrtd:dbgrptt.obj
 0002:0000aef0       ??_C@_13LBAGMAIH@?$AA?6@   000000014005cef0     libucrtd:dbgrptt.obj
 0002:0000af00       ??_C@_1JK@KHFABAEO@?$AAw?$AAc?$AAs?$AAc?$AAp?$AAy?$AA_?$AAs?$AA?$CI?$AAs?$AAz?$AAU?$AAs?$AAe?$AAr@ 000000014005cf00     libucrtd:dbgrptt.obj
 0002:0000afa0       ??_C@_1KO@DGAHENCH@?$AAw?$AAc?$AAs?$AAc?$AAp?$AAy?$AA_?$AAs?$AA?$CI?$AAs?$AAz?$AAL?$AAi?$AAn?$AAe@ 000000014005cfa0     libucrtd:dbgrptt.obj
 0002:0000b050       ??_C@_1CG@FFFGGODN@?$AAA?$AAs?$AAs?$AAe?$AAr?$AAt?$AAi?$AAo?$AAn?$AA?5?$AAf?$AAa?$AAi?$AAl?$AAe@ 000000014005d050     libucrtd:dbgrptt.obj
 0002:0000b078       ??_C@_1CE@OJBNHDMO@?$AAA?$AAs?$AAs?$AAe?$AAr?$AAt?$AAi?$AAo?$AAn?$AA?5?$AAf?$AAa?$AAi?$AAl?$AAe@ 000000014005d078     libucrtd:dbgrptt.obj
 0002:0000b0a0       ??_C@_1FK@HPADHBBD@?$AAw?$AAc?$AAs?$AAc?$AAa?$AAt?$AA_?$AAs?$AA?$CI?$AAs?$AAz?$AAL?$AAi?$AAn?$AAe@ 000000014005d0a0     libucrtd:dbgrptt.obj
 0002:0000b100       ??_C@_1EK@NMDFGHMF@?$AAw?$AAc?$AAs?$AAc?$AAa?$AAt?$AA_?$AAs?$AA?$CI?$AAs?$AAz?$AAL?$AAi?$AAn?$AAe@ 000000014005d100     libucrtd:dbgrptt.obj
 0002:0000b14c       ??_C@_13CMNBPIDO@?$AA?$AN@ 000000014005d14c     libucrtd:dbgrptt.obj
 0002:0000b150       ??_C@_1EK@PHCBEDKB@?$AAw?$AAc?$AAs?$AAc?$AAa?$AAt?$AA_?$AAs?$AA?$CI?$AAs?$AAz?$AAL?$AAi?$AAn?$AAe@ 000000014005d150     libucrtd:dbgrptt.obj
 0002:0000b1a0       ??_C@_1BM@GIBPMLNL@?$AA?$CF?$AAl?$AAs?$AA?$CI?$AA?$CF?$AAd?$AA?$CJ?$AA?5?$AA?3?$AA?5?$AA?$CF?$AAl?$AAs@ 000000014005d1a0     libucrtd:dbgrptt.obj
 0002:0000b1c0       ??_C@_1JI@EACPGHID@?$AAw?$AAc?$AAs?$AAc?$AAp?$AAy?$AA_?$AAs?$AA?$CI?$AAs?$AAz?$AAO?$AAu?$AAt?$AAM@ 000000014005d1c0     libucrtd:dbgrptt.obj
 0002:0000b260       ??_C@_1FI@DBAIJPJE@?$AAw?$AAc?$AAs?$AAc?$AAp?$AAy?$AA_?$AAs?$AA?$CI?$AAs?$AAz?$AAO?$AAu?$AAt?$AAM@ 000000014005d260     libucrtd:dbgrptt.obj
 0002:0000b2c0       ??_C@_1IK@LEBMBAP@?$AAw?$AAc?$AAs?$AAt?$AAo?$AAm?$AAb?$AAs?$AA_?$AAs?$AA?$CI?$AAn?$AAu?$AAl?$AAl@ 000000014005d2c0     libucrtd:dbgrptt.obj
 0002:0000b350       ??_C@_1MA@LBAMNNOB@?$AAs?$AAt?$AAr?$AAc?$AAp?$AAy?$AA_?$AAs?$AA?$CI?$AAs?$AAz?$AAO?$AAu?$AAt?$AAM@ 000000014005d350     libucrtd:dbgrptt.obj
 0002:0000b410       ??_C@_0DP@GNPEPHJD@_CrtDbgReport?3?5String?5too?5long?5@ 000000014005d410     libucrtd:dbgrptt.obj
 0002:0000b450       ??_C@_1IE@CPGKIAGP@?$AAw?$AAc?$AAs?$AAt?$AAo?$AAm?$AAb?$AAs?$AA_?$AAs?$AA?$CI?$AA?$CG?$AAr?$AAe?$AAt@ 000000014005d450     libucrtd:dbgrptt.obj
 0002:0000b4d8       ??_C@_1CE@MCCHPLBM@?$AAb?$AAu?$AAf?$AAf?$AAe?$AAr?$AA?5?$AA?$CB?$AA?$DN?$AA?5?$AAn?$AAu?$AAl?$AAl?$AAp@ 000000014005d4d8     libucrtd:_fptostr.obj
 0002:0000b500       ??_C@_1GI@IMEEHIAK@?$AAm?$AAi?$AAn?$AAk?$AAe?$AAr?$AAn?$AAe?$AAl?$AA?2?$AAc?$AAr?$AAt?$AAs?$AA?2@ 000000014005d500     libucrtd:_fptostr.obj
 0002:0000b568       ??_C@_1DG@NMGBKPMI@?$AA_?$AA_?$AAa?$AAc?$AAr?$AAt?$AA_?$AAf?$AAp?$AA_?$AAs?$AAt?$AAr?$AAf?$AAl@ 000000014005d568     libucrtd:_fptostr.obj
 0002:0000b5a0       ??_C@_1CC@ONIJBMJF@?$AAb?$AAu?$AAf?$AAf?$AAe?$AAr?$AA_?$AAc?$AAo?$AAu?$AAn?$AAt?$AA?5?$AA?$DO?$AA?5@ 000000014005d5a0     libucrtd:_fptostr.obj
 0002:0000b5d0       ??_C@_1IE@EAOKIIFP@?$AAb?$AAu?$AAf?$AAf?$AAe?$AAr?$AA_?$AAc?$AAo?$AAu?$AAn?$AAt?$AA?5?$AA?$DO?$AA?5@ 000000014005d5d0     libucrtd:_fptostr.obj
 0002:0000b658       ??_C@_1CA@EDEEBMBB@?$AAp?$AAf?$AAl?$AAt?$AA?5?$AA?$CB?$AA?$DN?$AA?5?$AAn?$AAu?$AAl?$AAl?$AAp?$AAt?$AAr@ 000000014005d658     libucrtd:_fptostr.obj
 0002:0000b680       ?large_power_data@?1??multiply_by_power_of_ten@__crt_strtox@@YA_NAEAUbig_integer@2@I@Z@4QBIB 000000014005d680     libucrtd:cfout.obj
 0002:0000bf90       ?large_power_indices@?1??multiply_by_power_of_ten@__crt_strtox@@YA_NAEAUbig_integer@2@I@Z@4QBUunpack_index@?1??12@YA_N0I@Z@B 000000014005df90     libucrtd:cfout.obj
 0002:0000c028       ?small_powers_of_ten@?1??multiply_by_power_of_ten@__crt_strtox@@YA_NAEAUbig_integer@2@I@Z@4QBIB 000000014005e028     libucrtd:cfout.obj
 0002:0000c050       ??_C@_1DI@GICAMMFM@?$AA?$CI?$AA?$CC?$AAD?$AAi?$AAv?$AAi?$AAs?$AAi?$AAo?$AAn?$AA?5?$AAb?$AAy?$AA?5?$AAz@ 000000014005e050     libucrtd:cfout.obj
 0002:0000c090       ??_C@_1GO@BFGDDONN@?$AAm?$AAi?$AAn?$AAk?$AAe?$AAr?$AAn?$AAe?$AAl?$AA?2?$AAc?$AAr?$AAt?$AAs?$AA?2@ 000000014005e090     libucrtd:cfout.obj
 0002:0000c100       ??_C@_1GC@DDAKNBNC@?$AAm?$AAi?$AAn?$AAk?$AAe?$AAr?$AAn?$AAe?$AAl?$AA?2?$AAc?$AAr?$AAt?$AAs?$AA?2@ 000000014005e100     libucrtd:cfout.obj
 0002:0000c168       ??_C@_1BM@FAAOAKKO@?$AA_?$AA_?$AAa?$AAc?$AAr?$AAt?$AA_?$AAf?$AAl?$AAt?$AAo?$AAu?$AAt@ 000000014005e168     libucrtd:cfout.obj
 0002:0000c190       ??_C@_1EI@OACEJKEP@?$AAs?$AAt?$AAr?$AAc?$AAp?$AAy?$AA_?$AAs?$AA?$CI?$AAr?$AAe?$AAs?$AAu?$AAl?$AAt@ 000000014005e190     libucrtd:cfout.obj
 0002:0000c1d8       ??_C@_01GBGANLPD@0@        000000014005e1d8     libucrtd:cfout.obj
 0002:0000c1e0       ??_C@_1FC@KIECGFMP@?$AAs?$AAt?$AAr?$AAc?$AAp?$AAy?$AA_?$AAs?$AA?$CI?$AAr?$AAe?$AAs?$AAu?$AAl?$AAt@ 000000014005e1e0     libucrtd:cfout.obj
 0002:0000c234       ??_C@_05DNEBIAHO@1?$CDINF@ 000000014005e234     libucrtd:cfout.obj
 0002:0000c240       ??_C@_1FC@NFPJEIBD@?$AAs?$AAt?$AAr?$AAc?$AAp?$AAy?$AA_?$AAs?$AA?$CI?$AAr?$AAe?$AAs?$AAu?$AAl?$AAt@ 000000014005e240     libucrtd:cfout.obj
 0002:0000c294       ??_C@_06IMKFLFPG@1?$CDQNAN@ 000000014005e294     libucrtd:cfout.obj
 0002:0000c2a0       ??_C@_1FC@DEJHIMLO@?$AAs?$AAt?$AAr?$AAc?$AAp?$AAy?$AA_?$AAs?$AA?$CI?$AAr?$AAe?$AAs?$AAu?$AAl?$AAt@ 000000014005e2a0     libucrtd:cfout.obj
 0002:0000c2f4       ??_C@_06PGGFOGJG@1?$CDSNAN@ 000000014005e2f4     libucrtd:cfout.obj
 0002:0000c300       ??_C@_1FC@KMLHLFPC@?$AAs?$AAt?$AAr?$AAc?$AAp?$AAy?$AA_?$AAs?$AA?$CI?$AAr?$AAe?$AAs?$AAu?$AAl?$AAt@ 000000014005e300     libucrtd:cfout.obj
 0002:0000c354       ??_C@_05PHHOCPM@1?$CDIND@  000000014005e354     libucrtd:cfout.obj
 0002:0000c360       ??_C@_1DE@KHKADFOO@?$AAm?$AAa?$AAn?$AAt?$AAi?$AAs?$AAs?$AAa?$AA_?$AAb?$AAu?$AAf?$AAf?$AAe?$AAr@ 000000014005e360     libucrtd:cfout.obj
 0002:0000c3a0       ??_C@_1FI@LFKLOPAC@?$AA?$CI?$AA?$CC?$AAu?$AAn?$AAe?$AAx?$AAp?$AAe?$AAc?$AAt?$AAe?$AAd?$AA?5?$AAi?$AAn@ 000000014005e3a0     libucrtd:cfout.obj
 0002:0000c400       ??_C@_1FG@MLHBDPBG@?$AAq?$AAu?$AAo?$AAt?$AAi?$AAe?$AAn?$AAt?$AA?5?$AA?$DM?$AA?5?$AAd?$AAi?$AAg?$AAi@ 000000014005e400     libucrtd:cfout.obj
 0002:0000c460       ??_C@_1EK@OANGPA@?$AA1?$AA?5?$AA?$DM?$AA?$DN?$AA?5?$AAt?$AAr?$AAa?$AAi?$AAl?$AA_?$AAb?$AAy?$AAt?$AAe@ 000000014005e460     libucrtd:c32rtomb.obj
 0002:0000c4b0       ??_C@_1GI@FBFKMNDD@?$AAm?$AAi?$AAn?$AAk?$AAe?$AAr?$AAn?$AAe?$AAl?$AA?2?$AAc?$AAr?$AAt?$AAs?$AA?2@ 000000014005e4b0     libucrtd:c32rtomb.obj
 0002:0000c520       ??_C@_1EA@DDDCIHI@?$AAc?$AA3?$AA2?$AA?5?$AA?$DM?$AA?5?$AA?$CI?$AA1?$AAu?$AA?5?$AA?$DM?$AA?$DM?$AA?5?$AA?$CI?$AA7@ 000000014005e520     libucrtd:c32rtomb.obj
 0002:0000c560       ??_C@_1GG@MCCIENJO@?$AAm?$AAi?$AAn?$AAk?$AAe?$AAr?$AAn?$AAe?$AAl?$AA?2?$AAc?$AAr?$AAt?$AAs?$AA?2@ 000000014005e560     libucrtd:mbrtowc.obj
 0002:0000c5d0       ??_C@_1EK@MCEFBPIK@?$AAr?$AAe?$AAt?$AAv?$AAa?$AAl?$AA?5?$AA?$CB?$AA?$DN?$AA?5?$AA_?$AA_?$AAc?$AAr?$AAt@ 000000014005e5d0     libucrtd:mbrtowc.obj
 0002:0000c6a0       ??_C@_1GE@GPOPIOIG@?$AAm?$AAi?$AAn?$AAk?$AAe?$AAr?$AAn?$AAe?$AAl?$AA?2?$AAc?$AAr?$AAt?$AAs?$AA?2@ 000000014005e6a0     libucrtd:_freebuf.obj
 0002:0000c710       ??_C@_1GA@DEPMKPD@?$AAm?$AAi?$AAn?$AAk?$AAe?$AAr?$AAn?$AAe?$AAl?$AA?2?$AAc?$AAr?$AAt?$AAs?$AA?2@ 000000014005e710     libucrtd:isatty.obj
 0002:0000c770       ??_C@_1BA@LEBDGIHM@?$AA_?$AAi?$AAs?$AAa?$AAt?$AAt?$AAy@ 000000014005e770     libucrtd:isatty.obj
 0002:0000c790       ??_C@_05HGHHAHAP@log10@    000000014005e790     libucrtd:fpexcept.obj
 0002:0000c7c0       ??_C@_1DI@OOEEHOBJ@?$AAb?$AAa?$AAs?$AAe?$AA?5?$AA?$CB?$AA?$DN?$AA?5?$AAn?$AAu?$AAl?$AAl?$AAp?$AAt?$AAr@ 000000014005e7c0     libucrtd:qsort.obj
 0002:0000c800       ??_C@_1GA@KPPCKKGE@?$AAm?$AAi?$AAn?$AAk?$AAe?$AAr?$AAn?$AAe?$AAl?$AA?2?$AAc?$AAr?$AAt?$AAs?$AA?2@ 000000014005e800     libucrtd:qsort.obj
 0002:0000c860       ??_C@_1M@INMHODIG@?$AAq?$AAs?$AAo?$AAr?$AAt@ 000000014005e860     libucrtd:qsort.obj
 0002:0000c870       ??_C@_1BE@NJBEBBME@?$AAw?$AAi?$AAd?$AAt?$AAh?$AA?5?$AA?$DO?$AA?5?$AA0@ 000000014005e870     libucrtd:qsort.obj
 0002:0000c888       ??_C@_1CA@LIDFOMIN@?$AAc?$AAo?$AAm?$AAp?$AA?5?$AA?$CB?$AA?$DN?$AA?5?$AAn?$AAu?$AAl?$AAl?$AAp?$AAt?$AAr@ 000000014005e888     libucrtd:qsort.obj
 0002:0000c8a8       ??_C@_1CE@BLLJFLOH@?$AAs?$AAt?$AAr?$AAi?$AAn?$AAg?$AA?5?$AA?$CB?$AA?$DN?$AA?5?$AAn?$AAu?$AAl?$AAl?$AAp@ 000000014005e8a8     libucrtd:mbsdec.obj
 0002:0000c8d0       ??_C@_1GO@DDOMFNGF@?$AAm?$AAi?$AAn?$AAk?$AAe?$AAr?$AAn?$AAe?$AAl?$AA?2?$AAc?$AAr?$AAt?$AAs?$AA?2@ 000000014005e8d0     libucrtd:mbsdec.obj
 0002:0000c940       ??_C@_1BE@KLNCOLCD@?$AA_?$AAm?$AAb?$AAs?$AAd?$AAe?$AAc?$AA_?$AAl@ 000000014005e940     libucrtd:mbsdec.obj
 0002:0000c958       ??_C@_1CG@CMGPGAOD@?$AAc?$AAu?$AAr?$AAr?$AAe?$AAn?$AAt?$AA?5?$AA?$CB?$AA?$DN?$AA?5?$AAn?$AAu?$AAl?$AAl@ 000000014005e958     libucrtd:mbsdec.obj
 0002:0000c980       ??_C@_0DH@IKPCBLP@minkernel?2crts?2ucrt?2src?2appcrt?2@ 000000014005e980     libucrtd:lcmapstringa.obj
 0002:0000c9c0       ??_C@_1GA@HBEFGMHK@?$AAm?$AAi?$AAn?$AAk?$AAe?$AAr?$AAn?$AAe?$AAl?$AA?2?$AAc?$AAr?$AAt?$AAs?$AA?2@ 000000014005e9c0     libucrtd:xtoa.obj
 0002:0000ca20       ??_C@_1BM@HMPEMLNP@?$AAc?$AAo?$AAm?$AAm?$AAo?$AAn?$AA_?$AAx?$AAt?$AAo?$AAx?$AA_?$AAs@ 000000014005ea20     libucrtd:xtoa.obj
 0002:0000ca40       ??_C@_1HA@JFIOFNKD@?$AAb?$AAu?$AAf?$AAf?$AAe?$AAr?$AA_?$AAc?$AAo?$AAu?$AAn?$AAt?$AA?5?$AA?$DO?$AA?5@ 000000014005ea40     libucrtd:xtoa.obj
 0002:0000cab0       ??_C@_1DE@PCJGDBBD@?$AA2?$AA?5?$AA?$DM?$AA?$DN?$AA?5?$AAr?$AAa?$AAd?$AAi?$AAx?$AA?5?$AA?$CG?$AA?$CG?$AA?5?$AAr@ 000000014005eab0     libucrtd:xtoa.obj
 0002:0000cae8       ??_C@_1CM@LONILNIJ@?$AAl?$AAe?$AAn?$AAg?$AAt?$AAh?$AA?5?$AA?$DM?$AA?5?$AAb?$AAu?$AAf?$AAf?$AAe?$AAr@ 000000014005eae8     libucrtd:xtoa.obj
 0002:0000cb18       ??_C@_1BI@OLPLFKOE@?$AAc?$AAo?$AAm?$AAm?$AAo?$AAn?$AA_?$AAx?$AAt?$AAo?$AAx@ 000000014005eb18     libucrtd:xtoa.obj
 0002:0000d970       ??_C@_15EMKDOKLE@?$AAa?$AAr@ 000000014005f970     libucrtd:lcidtoname_downlevel.obj
 0002:0000d978       ??_C@_15KNPADPLH@?$AAb?$AAg@ 000000014005f978     libucrtd:lcidtoname_downlevel.obj
 0002:0000d980       ??_C@_15EDMHLDMO@?$AAc?$AAa@ 000000014005f980     libucrtd:lcidtoname_downlevel.obj
 0002:0000d988       ??_C@_1O@BPEAJADD@?$AAz?$AAh?$AA?9?$AAC?$AAH?$AAS@ 000000014005f988     libucrtd:lcidtoname_downlevel.obj
 0002:0000d998       ??_C@_15LJNHCMNK@?$AAc?$AAs@ 000000014005f998     libucrtd:lcidtoname_downlevel.obj
 0002:0000d9a0       ??_C@_15FOMCIDHG@?$AAd?$AAa@ 000000014005f9a0     libucrtd:lcidtoname_downlevel.obj
 0002:0000d9a8       ??_C@_15NBKABECB@?$AAd?$AAe@ 000000014005f9a8     libucrtd:lcidtoname_downlevel.obj
 0002:0000d9b0       ??_C@_15GHPEIIAO@?$AAe?$AAl@ 000000014005f9b0     libucrtd:lcidtoname_downlevel.obj
 0002:0000d9b8       ??_C@_15MNPNEAIF@?$AAe?$AAn@ 000000014005f9b8     libucrtd:lcidtoname_downlevel.obj
 0002:0000d9c0       ??_C@_15GPIOMPMH@?$AAe?$AAs@ 000000014005f9c0     libucrtd:lcidtoname_downlevel.obj
 0002:0000d9c8       ??_C@_15NGLOAKJC@?$AAf?$AAi@ 000000014005f9c8     libucrtd:lcidtoname_downlevel.obj
 0002:0000d9d0       ??_C@_15FBKGNKAM@?$AAf?$AAr@ 000000014005f9d0     libucrtd:lcidtoname_downlevel.obj
 0002:0000d9d8       ??_C@_15KGGCNEFK@?$AAh?$AAe@ 000000014005f9d8     libucrtd:lcidtoname_downlevel.obj
 0002:0000d9e0       ??_C@_15PGHLIDMF@?$AAh?$AAu@ 000000014005f9e0     libucrtd:lcidtoname_downlevel.obj
 0002:0000d9e8       ??_C@_15BIEMAPLM@?$AAi?$AAs@ 000000014005f9e8     libucrtd:lcidtoname_downlevel.obj
 0002:0000d9f0       ??_C@_15IFJLDHAF@?$AAi?$AAt@ 000000014005f9f0     libucrtd:lcidtoname_downlevel.obj
 0002:0000d9f8       ??_C@_15GEMIOCAG@?$AAj?$AAa@ 000000014005f9f8     libucrtd:lcidtoname_downlevel.obj
 0002:0000da00       ??_C@_15EPELEGJA@?$AAk?$AAo@ 000000014005fa00     libucrtd:lcidtoname_downlevel.obj
 0002:0000da08       ??_C@_15NDDHIMN@?$AAn?$AAl@ 000000014005fa08     libucrtd:lcidtoname_downlevel.obj
 0002:0000da10       ??_C@_15BPIGNHCD@?$AAn?$AAo@ 000000014005fa10     libucrtd:lcidtoname_downlevel.obj
 0002:0000da18       ??_C@_15DEOPBLCG@?$AAp?$AAl@ 000000014005fa18     libucrtd:lcidtoname_downlevel.obj
 0002:0000da20       ??_C@_15KBECGEFG@?$AAp?$AAt@ 000000014005fa20     libucrtd:lcidtoname_downlevel.obj
 0002:0000da28       ??_C@_15GLJCBFMD@?$AAr?$AAo@ 000000014005fa28     libucrtd:lcidtoname_downlevel.obj
 0002:0000da30       ??_C@_15FEDGKCDI@?$AAr?$AAu@ 000000014005fa30     libucrtd:lcidtoname_downlevel.obj
 0002:0000da38       ??_C@_15GLKMLLHM@?$AAh?$AAr@ 000000014005fa38     libucrtd:lcidtoname_downlevel.obj
 0002:0000da40       ??_C@_15CPKMFBDB@?$AAs?$AAk@ 000000014005fa40     libucrtd:lcidtoname_downlevel.obj
 0002:0000da48       ??_C@_15BAAIOGMK@?$AAs?$AAq@ 000000014005fa48     libucrtd:lcidtoname_downlevel.obj
 0002:0000da50       ??_C@_15INNPNOHD@?$AAs?$AAv@ 000000014005fa50     libucrtd:lcidtoname_downlevel.obj
 0002:0000da58       ??_C@_15CABMMOGH@?$AAt?$AAh@ 000000014005fa58     libucrtd:lcidtoname_downlevel.obj
 0002:0000da60       ??_C@_15BPLIHJJM@?$AAt?$AAr@ 000000014005fa60     libucrtd:lcidtoname_downlevel.obj
 0002:0000da68       ??_C@_15NEOEKKDJ@?$AAu?$AAr@ 000000014005fa68     libucrtd:lcidtoname_downlevel.obj
 0002:0000da70       ??_C@_15NFICGAJK@?$AAi?$AAd@ 000000014005fa70     libucrtd:lcidtoname_downlevel.obj
 0002:0000da78       ??_C@_15HPJPHDM@?$AAb?$AAe@ 000000014005fa78     libucrtd:lcidtoname_downlevel.obj
 0002:0000da80       ??_C@_15LCHLGJII@?$AAs?$AAl@ 000000014005fa80     libucrtd:lcidtoname_downlevel.obj
 0002:0000da88       ??_C@_15PCFJPHHO@?$AAe?$AAt@ 000000014005fa88     libucrtd:lcidtoname_downlevel.obj
 0002:0000da90       ??_C@_15HPFPGODN@?$AAl?$AAv@ 000000014005fa90     libucrtd:lcidtoname_downlevel.obj
 0002:0000da98       ??_C@_15NFFGKGLG@?$AAl?$AAt@ 000000014005fa98     libucrtd:lcidtoname_downlevel.obj
 0002:0000daa0       ??_C@_15BDAKCCHN@?$AAf?$AAa@ 000000014005faa0     libucrtd:lcidtoname_downlevel.obj
 0002:0000daa8       ??_C@_15NFGIAIAJ@?$AAv?$AAi@ 000000014005faa8     libucrtd:lcidtoname_downlevel.obj
 0002:0000dab0       ??_C@_15LMKNDMHN@?$AAh?$AAy@ 000000014005fab0     libucrtd:lcidtoname_downlevel.obj
 0002:0000dab8       ??_C@_15IJBHMCFL@?$AAa?$AAz@ 000000014005fab8     libucrtd:lcidtoname_downlevel.obj
 0002:0000dac0       ??_C@_15EKOFJABL@?$AAe?$AAu@ 000000014005fac0     libucrtd:lcidtoname_downlevel.obj
 0002:0000dac8       ??_C@_15BGHADCNK@?$AAm?$AAk@ 000000014005fac8     libucrtd:lcidtoname_downlevel.obj
 0002:0000dad0       ??_C@_15JDNICKHM@?$AAa?$AAf@ 000000014005fad0     libucrtd:lcidtoname_downlevel.obj
 0002:0000dad8       ??_C@_15KPJEDBKD@?$AAk?$AAa@ 000000014005fad8     libucrtd:lcidtoname_downlevel.obj
 0002:0000dae0       ??_C@_15PDNFFFEO@?$AAf?$AAo@ 000000014005fae0     libucrtd:lcidtoname_downlevel.obj
 0002:0000dae8       ??_C@_15OMLEGLOC@?$AAh?$AAi@ 000000014005fae8     libucrtd:lcidtoname_downlevel.obj
 0002:0000daf0       ??_C@_15IDNNENKK@?$AAm?$AAs@ 000000014005faf0     libucrtd:lcidtoname_downlevel.obj
 0002:0000daf8       ??_C@_15MACJNBMH@?$AAk?$AAk@ 000000014005faf8     libucrtd:lcidtoname_downlevel.obj
 0002:0000db00       ??_C@_15DKDJEOND@?$AAk?$AAy@ 000000014005fb00     libucrtd:lcidtoname_downlevel.obj
 0002:0000db08       ??_C@_15DFGDLJBG@?$AAs?$AAw@ 000000014005fb08     libucrtd:lcidtoname_downlevel.obj
 0002:0000db10       ??_C@_15BBFAICNG@?$AAu?$AAz@ 000000014005fb10     libucrtd:lcidtoname_downlevel.obj
 0002:0000db18       ??_C@_15DKNDCGEA@?$AAt?$AAt@ 000000014005fb18     libucrtd:lcidtoname_downlevel.obj
 0002:0000db20       ??_C@_15MGIFMDPL@?$AAp?$AAa@ 000000014005fb20     libucrtd:lcidtoname_downlevel.obj
 0002:0000db28       ??_C@_15HCNDBBA@?$AAg?$AAu@ 000000014005fb28     libucrtd:lcidtoname_downlevel.obj
 0002:0000db30       ??_C@_15FNBEIBON@?$AAt?$AAa@ 000000014005fb30     libucrtd:lcidtoname_downlevel.obj
 0002:0000db38       ??_C@_15NCHGBGLK@?$AAt?$AAe@ 000000014005fb38     libucrtd:lcidtoname_downlevel.obj
 0002:0000db40       ??_C@_15PHPHCBPF@?$AAk?$AAn@ 000000014005fb40     libucrtd:lcidtoname_downlevel.obj
 0002:0000db48       ??_C@_15DLGBCKMP@?$AAm?$AAr@ 000000014005fb48     libucrtd:lcidtoname_downlevel.obj
 0002:0000db50       ??_C@_15EABBLBFF@?$AAs?$AAa@ 000000014005fb50     libucrtd:lcidtoname_downlevel.obj
 0002:0000db58       ??_C@_15CBKOMCOI@?$AAm?$AAn@ 000000014005fb58     libucrtd:lcidtoname_downlevel.obj
 0002:0000db60       ??_C@_15CKDMCJAF@?$AAg?$AAl@ 000000014005fb60     libucrtd:lcidtoname_downlevel.obj
 0002:0000db68       ??_C@_17CNJFBPG@?$AAk?$AAo?$AAk@ 000000014005fb68     libucrtd:lcidtoname_downlevel.obj
 0002:0000db70       ??_C@_17FFBJICPL@?$AAs?$AAy?$AAr@ 000000014005fb70     libucrtd:lcidtoname_downlevel.obj
 0002:0000db78       ??_C@_17KPNDCPAF@?$AAd?$AAi?$AAv@ 000000014005fb78     libucrtd:lcidtoname_downlevel.obj
 0002:0000db80       ??_C@_1M@OKAHONE@?$AAa?$AAr?$AA?9?$AAS?$AAA@ 000000014005fb80     libucrtd:lcidtoname_downlevel.obj
 0002:0000db90       ??_C@_1M@FFFIGIGK@?$AAb?$AAg?$AA?9?$AAB?$AAG@ 000000014005fb90     libucrtd:lcidtoname_downlevel.obj
 0002:0000dba0       ??_C@_1M@BJNKEDC@?$AAc?$AAa?$AA?9?$AAE?$AAS@ 000000014005fba0     libucrtd:lcidtoname_downlevel.obj
 0002:0000dbb0       ??_C@_1M@IJJHFJHA@?$AAc?$AAs?$AA?9?$AAC?$AAZ@ 000000014005fbb0     libucrtd:lcidtoname_downlevel.obj
 0002:0000dbc0       ??_C@_1M@CLPEOBGI@?$AAd?$AAa?$AA?9?$AAD?$AAK@ 000000014005fbc0     libucrtd:lcidtoname_downlevel.obj
 0002:0000dbd0       ??_C@_1M@MCMADGCB@?$AAd?$AAe?$AA?9?$AAD?$AAE@ 000000014005fbd0     libucrtd:lcidtoname_downlevel.obj
 0002:0000dbe0       ??_C@_1M@OOCKEMAM@?$AAe?$AAl?$AA?9?$AAG?$AAR@ 000000014005fbe0     libucrtd:lcidtoname_downlevel.obj
 0002:0000dbf0       ??_C@_1M@DDNJFGID@?$AAf?$AAi?$AA?9?$AAF?$AAI@ 000000014005fbf0     libucrtd:lcidtoname_downlevel.obj
 0002:0000dc00       ??_C@_1M@GLIPPMAC@?$AAf?$AAr?$AA?9?$AAF?$AAR@ 000000014005fc00     libucrtd:lcidtoname_downlevel.obj
 0002:0000dc10       ??_C@_1M@GFMCHPE@?$AAh?$AAe?$AA?9?$AAI?$AAL@ 000000014005fc10     libucrtd:lcidtoname_downlevel.obj
 0002:0000dc20       ??_C@_1M@MHLPGNKM@?$AAh?$AAu?$AA?9?$AAH?$AAU@ 000000014005fc20     libucrtd:lcidtoname_downlevel.obj
 0002:0000dc30       ??_C@_1M@LPDDNNPN@?$AAi?$AAs?$AA?9?$AAI?$AAS@ 000000014005fc30     libucrtd:lcidtoname_downlevel.obj
 0002:0000dc40       ??_C@_1M@MADIPODN@?$AAi?$AAt?$AA?9?$AAI?$AAT@ 000000014005fc40     libucrtd:lcidtoname_downlevel.obj
 0002:0000dc50       ??_C@_1M@IHBJJGG@?$AAn?$AAl?$AA?9?$AAN?$AAL@ 000000014005fc50     libucrtd:lcidtoname_downlevel.obj
 0002:0000dc60       ??_C@_1M@EANAGDL@?$AAn?$AAb?$AA?9?$AAN?$AAO@ 000000014005fc60     libucrtd:lcidtoname_downlevel.obj
 0002:0000dc70       ??_C@_1M@NEIEMEGP@?$AAp?$AAl?$AA?9?$AAP?$AAL@ 000000014005fc70     libucrtd:lcidtoname_downlevel.obj
 0002:0000dc80       ??_C@_1M@BOCFIGEP@?$AAp?$AAt?$AA?9?$AAB?$AAR@ 000000014005fc80     libucrtd:lcidtoname_downlevel.obj
 0002:0000dc90       ??_C@_1M@IMPFOPBG@?$AAr?$AAo?$AA?9?$AAR?$AAO@ 000000014005fc90     libucrtd:lcidtoname_downlevel.obj
 0002:0000dca0       ??_C@_1M@IDNNEJMM@?$AAr?$AAu?$AA?9?$AAR?$AAU@ 000000014005fca0     libucrtd:lcidtoname_downlevel.obj
 0002:0000dcb0       ??_C@_1M@LILEEOGM@?$AAh?$AAr?$AA?9?$AAH?$AAR@ 000000014005fcb0     libucrtd:lcidtoname_downlevel.obj
 0002:0000dcc0       ??_C@_1M@FKIFEHPB@?$AAs?$AAk?$AA?9?$AAS?$AAK@ 000000014005fcc0     libucrtd:lcidtoname_downlevel.obj
 0002:0000dcd0       ??_C@_1M@LJMAMNPJ@?$AAs?$AAq?$AA?9?$AAA?$AAL@ 000000014005fcd0     libucrtd:lcidtoname_downlevel.obj
 0002:0000dce0       ??_C@_1M@GIAKDKJK@?$AAs?$AAv?$AA?9?$AAS?$AAE@ 000000014005fce0     libucrtd:lcidtoname_downlevel.obj
 0002:0000dcf0       ??_C@_1M@MKJKIKCL@?$AAt?$AAh?$AA?9?$AAT?$AAH@ 000000014005fcf0     libucrtd:lcidtoname_downlevel.obj
 0002:0000dd00       ??_C@_1M@MFLCCMPB@?$AAt?$AAr?$AA?9?$AAT?$AAR@ 000000014005fd00     libucrtd:lcidtoname_downlevel.obj
 0002:0000dd10       ??_C@_1M@OIJHDKJN@?$AAu?$AAr?$AA?9?$AAP?$AAK@ 000000014005fd10     libucrtd:lcidtoname_downlevel.obj
 0002:0000dd20       ??_C@_1M@LHIPCIEK@?$AAi?$AAd?$AA?9?$AAI?$AAD@ 000000014005fd20     libucrtd:lcidtoname_downlevel.obj
 0002:0000dd30       ??_C@_1M@MFMOBGI@?$AAu?$AAk?$AA?9?$AAU?$AAA@ 000000014005fd30     libucrtd:lcidtoname_downlevel.obj
 0002:0000dd40       ??_C@_1M@OBGLJIPL@?$AAb?$AAe?$AA?9?$AAB?$AAY@ 000000014005fd40     libucrtd:lcidtoname_downlevel.obj
 0002:0000dd50       ??_C@_1M@BCFAJEAD@?$AAs?$AAl?$AA?9?$AAS?$AAI@ 000000014005fd50     libucrtd:lcidtoname_downlevel.obj
 0002:0000dd60       ??_C@_1M@FKFFEDDN@?$AAe?$AAt?$AA?9?$AAE?$AAE@ 000000014005fd60     libucrtd:lcidtoname_downlevel.obj
 0002:0000dd70       ??_C@_1M@KGKKAACI@?$AAl?$AAv?$AA?9?$AAL?$AAV@ 000000014005fd70     libucrtd:lcidtoname_downlevel.obj
 0002:0000dd80       ??_C@_1M@IFGBIJO@?$AAl?$AAt?$AA?9?$AAL?$AAT@ 000000014005fd80     libucrtd:lcidtoname_downlevel.obj
 0002:0000dd90       ??_C@_1M@FGEAHEDM@?$AAf?$AAa?$AA?9?$AAI?$AAR@ 000000014005fd90     libucrtd:lcidtoname_downlevel.obj
 0002:0000dda0       ??_C@_1M@KBMAIBFN@?$AAv?$AAi?$AA?9?$AAV?$AAN@ 000000014005fda0     libucrtd:lcidtoname_downlevel.obj
 0002:0000ddb0       ??_C@_1M@GPCBKDJK@?$AAh?$AAy?$AA?9?$AAA?$AAM@ 000000014005fdb0     libucrtd:lcidtoname_downlevel.obj
 0002:0000ddc0       ??_C@_1BG@BECMDDJB@?$AAa?$AAz?$AA?9?$AAA?$AAZ?$AA?9?$AAL?$AAa?$AAt?$AAn@ 000000014005fdc0     libucrtd:lcidtoname_downlevel.obj
 0002:0000ddd8       ??_C@_1M@MAOFCAEA@?$AAe?$AAu?$AA?9?$AAE?$AAS@ 000000014005fdd8     libucrtd:lcidtoname_downlevel.obj
 0002:0000dde8       ??_C@_1M@IGHABKPI@?$AAm?$AAk?$AA?9?$AAM?$AAK@ 000000014005fde8     libucrtd:lcidtoname_downlevel.obj
 0002:0000ddf8       ??_C@_1M@IAIGNEJG@?$AAt?$AAn?$AA?9?$AAZ?$AAA@ 000000014005fdf8     libucrtd:lcidtoname_downlevel.obj
 0002:0000de08       ??_C@_1M@IIJCOJFA@?$AAx?$AAh?$AA?9?$AAZ?$AAA@ 000000014005fe08     libucrtd:lcidtoname_downlevel.obj
 0002:0000de18       ??_C@_1M@LGPJHNJH@?$AAz?$AAu?$AA?9?$AAZ?$AAA@ 000000014005fe18     libucrtd:lcidtoname_downlevel.obj
 0002:0000de28       ??_C@_1M@HOKAOIO@?$AAa?$AAf?$AA?9?$AAZ?$AAA@ 000000014005fe28     libucrtd:lcidtoname_downlevel.obj
 0002:0000de38       ??_C@_1M@DPCLHLIE@?$AAk?$AAa?$AA?9?$AAG?$AAE@ 000000014005fe38     libucrtd:lcidtoname_downlevel.obj
 0002:0000de48       ??_C@_1M@BLKMHJBI@?$AAf?$AAo?$AA?9?$AAF?$AAO@ 000000014005fe48     libucrtd:lcidtoname_downlevel.obj
 0002:0000de58       ??_C@_1M@LGGJAPPB@?$AAh?$AAi?$AA?9?$AAI?$AAN@ 000000014005fe58     libucrtd:lcidtoname_downlevel.obj
 0002:0000de68       ??_C@_1M@FIKPIHFE@?$AAm?$AAt?$AA?9?$AAM?$AAT@ 000000014005fe68     libucrtd:lcidtoname_downlevel.obj
 0002:0000de78       ??_C@_1M@HEGGPBFA@?$AAs?$AAe?$AA?9?$AAN?$AAO@ 000000014005fe78     libucrtd:lcidtoname_downlevel.obj
 0002:0000de88       ??_C@_1M@EIBJEEPA@?$AAm?$AAs?$AA?9?$AAM?$AAY@ 000000014005fe88     libucrtd:lcidtoname_downlevel.obj
 0002:0000de98       ??_C@_1M@FHLBGMPP@?$AAk?$AAk?$AA?9?$AAK?$AAZ@ 000000014005fe98     libucrtd:lcidtoname_downlevel.obj
 0002:0000dea8       ??_C@_1M@NGJJLCGI@?$AAk?$AAy?$AA?9?$AAK?$AAG@ 000000014005fea8     libucrtd:lcidtoname_downlevel.obj
 0002:0000deb8       ??_C@_1M@GIENNBFC@?$AAs?$AAw?$AA?9?$AAK?$AAE@ 000000014005feb8     libucrtd:lcidtoname_downlevel.obj
 0002:0000dec8       ??_C@_1BG@NDGMJIMJ@?$AAu?$AAz?$AA?9?$AAU?$AAZ?$AA?9?$AAL?$AAa?$AAt?$AAn@ 000000014005fec8     libucrtd:lcidtoname_downlevel.obj
 0002:0000dee0       ??_C@_1M@IDCCIHBC@?$AAt?$AAt?$AA?9?$AAR?$AAU@ 000000014005fee0     libucrtd:lcidtoname_downlevel.obj
 0002:0000def0       ??_C@_1M@LOICPMOJ@?$AAb?$AAn?$AA?9?$AAI?$AAN@ 000000014005fef0     libucrtd:lcidtoname_downlevel.obj
 0002:0000df00       ??_C@_1M@KPKKNEAH@?$AAp?$AAa?$AA?9?$AAI?$AAN@ 000000014005ff00     libucrtd:lcidtoname_downlevel.obj
 0002:0000df10       ??_C@_1M@PJGPPBOG@?$AAg?$AAu?$AA?9?$AAI?$AAN@ 000000014005ff10     libucrtd:lcidtoname_downlevel.obj
 0002:0000df20       ??_C@_1M@KMKMOPHI@?$AAt?$AAa?$AA?9?$AAI?$AAN@ 000000014005ff20     libucrtd:lcidtoname_downlevel.obj
 0002:0000df30       ??_C@_1M@KFEHEPAC@?$AAt?$AAe?$AA?9?$AAI?$AAN@ 000000014005ff30     libucrtd:lcidtoname_downlevel.obj
 0002:0000df40       ??_C@_1M@CDCLMGHI@?$AAk?$AAn?$AA?9?$AAI?$AAN@ 000000014005ff40     libucrtd:lcidtoname_downlevel.obj
 0002:0000df50       ??_C@_1M@MIODLDKF@?$AAm?$AAl?$AA?9?$AAI?$AAN@ 000000014005ff50     libucrtd:lcidtoname_downlevel.obj
 0002:0000df60       ??_C@_1M@PBIEACPO@?$AAm?$AAr?$AA?9?$AAI?$AAN@ 000000014005ff60     libucrtd:lcidtoname_downlevel.obj
 0002:0000df70       ??_C@_1M@NIDEAGPH@?$AAs?$AAa?$AA?9?$AAI?$AAN@ 000000014005ff70     libucrtd:lcidtoname_downlevel.obj
 0002:0000df80       ??_C@_1M@FHIHCBIO@?$AAm?$AAn?$AA?9?$AAM?$AAN@ 000000014005ff80     libucrtd:lcidtoname_downlevel.obj
 0002:0000df90       ??_C@_1M@JAIJPENP@?$AAc?$AAy?$AA?9?$AAG?$AAB@ 000000014005ff90     libucrtd:lcidtoname_downlevel.obj
 0002:0000dfa0       ??_C@_1M@PHGFBEPN@?$AAg?$AAl?$AA?9?$AAE?$AAS@ 000000014005ffa0     libucrtd:lcidtoname_downlevel.obj
 0002:0000dfb0       ??_C@_1O@KPIPDNCP@?$AAk?$AAo?$AAk?$AA?9?$AAI?$AAN@ 000000014005ffb0     libucrtd:lcidtoname_downlevel.obj
 0002:0000dfc0       ??_C@_1O@KNHJLDJA@?$AAs?$AAy?$AAr?$AA?9?$AAS?$AAY@ 000000014005ffc0     libucrtd:lcidtoname_downlevel.obj
 0002:0000dfd0       ??_C@_1O@MKEKBLAH@?$AAd?$AAi?$AAv?$AA?9?$AAM?$AAV@ 000000014005ffd0     libucrtd:lcidtoname_downlevel.obj
 0002:0000dfe0       ??_C@_1O@OHDCKDDF@?$AAq?$AAu?$AAz?$AA?9?$AAB?$AAO@ 000000014005ffe0     libucrtd:lcidtoname_downlevel.obj
 0002:0000dff0       ??_C@_1M@LEPJNLFD@?$AAn?$AAs?$AA?9?$AAZ?$AAA@ 000000014005fff0     libucrtd:lcidtoname_downlevel.obj
 0002:0000e000       ??_C@_1M@OMLEIIJB@?$AAm?$AAi?$AA?9?$AAN?$AAZ@ 0000000140060000     libucrtd:lcidtoname_downlevel.obj
 0002:0000e010       ??_C@_1M@PMPEAILG@?$AAa?$AAr?$AA?9?$AAI?$AAQ@ 0000000140060010     libucrtd:lcidtoname_downlevel.obj
 0002:0000e020       ??_C@_1M@CNKPNOEE@?$AAd?$AAe?$AA?9?$AAC?$AAH@ 0000000140060020     libucrtd:lcidtoname_downlevel.obj
 0002:0000e030       ??_C@_1M@LKMGMLKO@?$AAe?$AAn?$AA?9?$AAG?$AAB@ 0000000140060030     libucrtd:lcidtoname_downlevel.obj
 0002:0000e040       ??_C@_1M@PGKJFFGL@?$AAe?$AAs?$AA?9?$AAM?$AAX@ 0000000140060040     libucrtd:lcidtoname_downlevel.obj
 0002:0000e050       ??_C@_1M@DNNANBDC@?$AAf?$AAr?$AA?9?$AAB?$AAE@ 0000000140060050     libucrtd:lcidtoname_downlevel.obj
 0002:0000e060       ??_C@_1M@HLGMDFHM@?$AAi?$AAt?$AA?9?$AAC?$AAH@ 0000000140060060     libucrtd:lcidtoname_downlevel.obj
 0002:0000e070       ??_C@_1M@CLLBGJH@?$AAn?$AAl?$AA?9?$AAB?$AAE@ 0000000140060070     libucrtd:lcidtoname_downlevel.obj
 0002:0000e080       ??_C@_1M@BODBOGLF@?$AAn?$AAn?$AA?9?$AAN?$AAO@ 0000000140060080     libucrtd:lcidtoname_downlevel.obj
 0002:0000e090       ??_C@_1M@HFFAHKAD@?$AAp?$AAt?$AA?9?$AAP?$AAT@ 0000000140060090     libucrtd:lcidtoname_downlevel.obj
 0002:0000e0a0       ??_C@_1BG@LNOAKHIE@?$AAs?$AAr?$AA?9?$AAS?$AAP?$AA?9?$AAL?$AAa?$AAt?$AAn@ 00000001400600a0     libucrtd:lcidtoname_downlevel.obj
 0002:0000e0b8       ??_C@_1M@HBMHBGAK@?$AAs?$AAv?$AA?9?$AAF?$AAI@ 00000001400600b8     libucrtd:lcidtoname_downlevel.obj
 0002:0000e0c8       ??_C@_1BG@DGCJGJBE@?$AAa?$AAz?$AA?9?$AAA?$AAZ?$AA?9?$AAC?$AAy?$AAr?$AAl@ 00000001400600c8     libucrtd:lcidtoname_downlevel.obj
 0002:0000e0e0       ??_C@_1M@KEJDAAHB@?$AAs?$AAe?$AA?9?$AAS?$AAE@ 00000001400600e0     libucrtd:lcidtoname_downlevel.obj
 0002:0000e0f0       ??_C@_1M@HEIBJJAD@?$AAm?$AAs?$AA?9?$AAB?$AAN@ 00000001400600f0     libucrtd:lcidtoname_downlevel.obj
 0002:0000e100       ??_C@_1BG@PBGJMCEM@?$AAu?$AAz?$AA?9?$AAU?$AAZ?$AA?9?$AAC?$AAy?$AAr?$AAl@ 0000000140060100     libucrtd:lcidtoname_downlevel.obj
 0002:0000e118       ??_C@_1O@LAOBCMDF@?$AAq?$AAu?$AAz?$AA?9?$AAE?$AAC@ 0000000140060118     libucrtd:lcidtoname_downlevel.obj
 0002:0000e128       ??_C@_1M@POEEMAIO@?$AAa?$AAr?$AA?9?$AAE?$AAG@ 0000000140060128     libucrtd:lcidtoname_downlevel.obj
 0002:0000e138       ??_C@_1M@EFAKDEDL@?$AAz?$AAh?$AA?9?$AAH?$AAK@ 0000000140060138     libucrtd:lcidtoname_downlevel.obj
 0002:0000e148       ??_C@_1M@HKKIJHGI@?$AAd?$AAe?$AA?9?$AAA?$AAT@ 0000000140060148     libucrtd:lcidtoname_downlevel.obj
 0002:0000e158       ??_C@_1M@KBFBEHJF@?$AAe?$AAn?$AA?9?$AAA?$AAU@ 0000000140060158     libucrtd:lcidtoname_downlevel.obj
 0002:0000e168       ??_C@_1M@MNPLFAAH@?$AAe?$AAs?$AA?9?$AAE?$AAS@ 0000000140060168     libucrtd:lcidtoname_downlevel.obj
 0002:0000e178       ??_C@_1M@HJOOJFMA@?$AAf?$AAr?$AA?9?$AAC?$AAA@ 0000000140060178     libucrtd:lcidtoname_downlevel.obj
 0002:0000e188       ??_C@_1BG@JPOFPNAB@?$AAs?$AAr?$AA?9?$AAS?$AAP?$AA?9?$AAC?$AAy?$AAr?$AAl@ 0000000140060188     libucrtd:lcidtoname_downlevel.obj
 0002:0000e1a0       ??_C@_1M@LNFOCMOB@?$AAs?$AAe?$AA?9?$AAF?$AAI@ 00000001400601a0     libucrtd:lcidtoname_downlevel.obj
 0002:0000e1b0       ??_C@_1O@MGJBOAMB@?$AAq?$AAu?$AAz?$AA?9?$AAP?$AAE@ 00000001400601b0     libucrtd:lcidtoname_downlevel.obj
 0002:0000e1c0       ??_C@_1M@GJINLBOK@?$AAa?$AAr?$AA?9?$AAL?$AAY@ 00000001400601c0     libucrtd:lcidtoname_downlevel.obj
 0002:0000e1d0       ??_C@_1M@GGMNHJNL@?$AAz?$AAh?$AA?9?$AAS?$AAG@ 00000001400601d0     libucrtd:lcidtoname_downlevel.obj
 0002:0000e1e0       ??_C@_1M@HOIKODND@?$AAd?$AAe?$AA?9?$AAL?$AAU@ 00000001400601e0     libucrtd:lcidtoname_downlevel.obj
 0002:0000e1f0       ??_C@_1M@DDOCCGFG@?$AAe?$AAn?$AA?9?$AAC?$AAA@ 00000001400601f0     libucrtd:lcidtoname_downlevel.obj
 0002:0000e200       ??_C@_1M@BNOEMJLF@?$AAe?$AAs?$AA?9?$AAG?$AAT@ 0000000140060200     libucrtd:lcidtoname_downlevel.obj
 0002:0000e210       ??_C@_1M@EOGNKEK@?$AAf?$AAr?$AA?9?$AAC?$AAH@ 0000000140060210     libucrtd:lcidtoname_downlevel.obj
 0002:0000e220       ??_C@_1M@FLIDJFHL@?$AAh?$AAr?$AA?9?$AAB?$AAA@ 0000000140060220     libucrtd:lcidtoname_downlevel.obj
 0002:0000e230       ??_C@_1O@FMCELNAJ@?$AAs?$AAm?$AAj?$AA?9?$AAN?$AAO@ 0000000140060230     libucrtd:lcidtoname_downlevel.obj
 0002:0000e240       ??_C@_1M@JHGLJMGJ@?$AAa?$AAr?$AA?9?$AAD?$AAZ@ 0000000140060240     libucrtd:lcidtoname_downlevel.obj
 0002:0000e250       ??_C@_1M@JKKFDCNP@?$AAz?$AAh?$AA?9?$AAM?$AAO@ 0000000140060250     libucrtd:lcidtoname_downlevel.obj
 0002:0000e260       ??_C@_1M@GEEFALPE@?$AAd?$AAe?$AA?9?$AAL?$AAI@ 0000000140060260     libucrtd:lcidtoname_downlevel.obj
 0002:0000e270       ??_C@_1M@IGEOFBG@?$AAe?$AAn?$AA?9?$AAN?$AAZ@ 0000000140060270     libucrtd:lcidtoname_downlevel.obj
 0002:0000e280       ??_C@_1M@KDBONEHP@?$AAe?$AAs?$AA?9?$AAC?$AAR@ 0000000140060280     libucrtd:lcidtoname_downlevel.obj
 0002:0000e290       ??_C@_1M@FHMDOHNN@?$AAf?$AAr?$AA?9?$AAL?$AAU@ 0000000140060290     libucrtd:lcidtoname_downlevel.obj
 0002:0000e2a0       ??_C@_1BG@NFKKMAFG@?$AAb?$AAs?$AA?9?$AAB?$AAA?$AA?9?$AAL?$AAa?$AAt?$AAn@ 00000001400602a0     libucrtd:lcidtoname_downlevel.obj
 0002:0000e2b8       ??_C@_1O@IMNBEMCI@?$AAs?$AAm?$AAj?$AA?9?$AAS?$AAE@ 00000001400602b8     libucrtd:lcidtoname_downlevel.obj
 0002:0000e2c8       ??_C@_1M@DHHMBNDP@?$AAa?$AAr?$AA?9?$AAM?$AAA@ 00000001400602c8     libucrtd:lcidtoname_downlevel.obj
 0002:0000e2d8       ??_C@_1M@BNBLJCGH@?$AAe?$AAn?$AA?9?$AAI?$AAE@ 00000001400602d8     libucrtd:lcidtoname_downlevel.obj
 0002:0000e2e8       ??_C@_1M@GEPAFMDL@?$AAe?$AAs?$AA?9?$AAP?$AAA@ 00000001400602e8     libucrtd:lcidtoname_downlevel.obj
 0002:0000e2f8       ??_C@_1M@OJONDMDL@?$AAf?$AAr?$AA?9?$AAM?$AAC@ 00000001400602f8     libucrtd:lcidtoname_downlevel.obj
 0002:0000e308       ??_C@_1BG@OBCNFJB@?$AAs?$AAr?$AA?9?$AAB?$AAA?$AA?9?$AAL?$AAa?$AAt?$AAn@ 0000000140060308     libucrtd:lcidtoname_downlevel.obj
 0002:0000e320       ??_C@_1O@KEMEEGPO@?$AAs?$AAm?$AAa?$AA?9?$AAN?$AAO@ 0000000140060320     libucrtd:lcidtoname_downlevel.obj
 0002:0000e330       ??_C@_1M@ELMGFODK@?$AAa?$AAr?$AA?9?$AAT?$AAN@ 0000000140060330     libucrtd:lcidtoname_downlevel.obj
 0002:0000e340       ??_C@_1M@BHDLHFAF@?$AAe?$AAn?$AA?9?$AAZ?$AAA@ 0000000140060340     libucrtd:lcidtoname_downlevel.obj
 0002:0000e350       ??_C@_1M@BMGIGLIF@?$AAe?$AAs?$AA?9?$AAD?$AAO@ 0000000140060350     libucrtd:lcidtoname_downlevel.obj
 0002:0000e360       ??_C@_1BG@CMBHIPBE@?$AAs?$AAr?$AA?9?$AAB?$AAA?$AA?9?$AAC?$AAy?$AAr?$AAl@ 0000000140060360     libucrtd:lcidtoname_downlevel.obj
 0002:0000e378       ??_C@_1O@HEDBLHNP@?$AAs?$AAm?$AAa?$AA?9?$AAS?$AAE@ 0000000140060378     libucrtd:lcidtoname_downlevel.obj
 0002:0000e388       ??_C@_1M@DAGCADIM@?$AAa?$AAr?$AA?9?$AAO?$AAM@ 0000000140060388     libucrtd:lcidtoname_downlevel.obj
 0002:0000e398       ??_C@_1M@FODLMICG@?$AAe?$AAn?$AA?9?$AAJ?$AAM@ 0000000140060398     libucrtd:lcidtoname_downlevel.obj
 0002:0000e3a8       ??_C@_1M@DNMLCIHB@?$AAe?$AAs?$AA?9?$AAV?$AAE@ 00000001400603a8     libucrtd:lcidtoname_downlevel.obj
 0002:0000e3b8       ??_C@_1O@EOKHMKJK@?$AAs?$AAm?$AAs?$AA?9?$AAF?$AAI@ 00000001400603b8     libucrtd:lcidtoname_downlevel.obj
 0002:0000e3c8       ??_C@_1M@CAFJMKOF@?$AAa?$AAr?$AA?9?$AAY?$AAE@ 00000001400603c8     libucrtd:lcidtoname_downlevel.obj
 0002:0000e3d8       ??_C@_1M@CBFHIJLI@?$AAe?$AAn?$AA?9?$AAC?$AAB@ 00000001400603d8     libucrtd:lcidtoname_downlevel.obj
 0002:0000e3e8       ??_C@_1M@BGNFLDN@?$AAe?$AAs?$AA?9?$AAC?$AAO@ 00000001400603e8     libucrtd:lcidtoname_downlevel.obj
 0002:0000e3f8       ??_C@_1O@JMPHMAMC@?$AAs?$AAm?$AAn?$AA?9?$AAF?$AAI@ 00000001400603f8     libucrtd:lcidtoname_downlevel.obj
 0002:0000e408       ??_C@_1M@JLANABKE@?$AAa?$AAr?$AA?9?$AAS?$AAY@ 0000000140060408     libucrtd:lcidtoname_downlevel.obj
 0002:0000e418       ??_C@_1M@HPKGCFGN@?$AAe?$AAn?$AA?9?$AAB?$AAZ@ 0000000140060418     libucrtd:lcidtoname_downlevel.obj
 0002:0000e428       ??_C@_1M@OLJCMLGM@?$AAe?$AAs?$AA?9?$AAP?$AAE@ 0000000140060428     libucrtd:lcidtoname_downlevel.obj
 0002:0000e438       ??_C@_1M@MKKGFKLE@?$AAa?$AAr?$AA?9?$AAJ?$AAO@ 0000000140060438     libucrtd:lcidtoname_downlevel.obj
 0002:0000e448       ??_C@_1M@EKPGLDNI@?$AAe?$AAn?$AA?9?$AAT?$AAT@ 0000000140060448     libucrtd:lcidtoname_downlevel.obj
 0002:0000e458       ??_C@_1M@OONGHFHE@?$AAe?$AAs?$AA?9?$AAA?$AAR@ 0000000140060458     libucrtd:lcidtoname_downlevel.obj
 0002:0000e468       ??_C@_1M@OOJFGBHE@?$AAa?$AAr?$AA?9?$AAL?$AAB@ 0000000140060468     libucrtd:lcidtoname_downlevel.obj
 0002:0000e478       ??_C@_1M@GCEJHNEG@?$AAe?$AAn?$AA?9?$AAZ?$AAW@ 0000000140060478     libucrtd:lcidtoname_downlevel.obj
 0002:0000e488       ??_C@_1M@JNOCAHJI@?$AAe?$AAs?$AA?9?$AAE?$AAC@ 0000000140060488     libucrtd:lcidtoname_downlevel.obj
 0002:0000e498       ??_C@_1M@JEFHPGGB@?$AAa?$AAr?$AA?9?$AAK?$AAW@ 0000000140060498     libucrtd:lcidtoname_downlevel.obj
 0002:0000e4a8       ??_C@_1M@MLKIBJOJ@?$AAe?$AAn?$AA?9?$AAP?$AAH@ 00000001400604a8     libucrtd:lcidtoname_downlevel.obj
 0002:0000e4b8       ??_C@_1M@BDNIPEND@?$AAe?$AAs?$AA?9?$AAC?$AAL@ 00000001400604b8     libucrtd:lcidtoname_downlevel.obj
 0002:0000e4c8       ??_C@_1M@MPNMEKBD@?$AAa?$AAr?$AA?9?$AAA?$AAE@ 00000001400604c8     libucrtd:lcidtoname_downlevel.obj
 0002:0000e4d8       ??_C@_1M@KBJALCPI@?$AAe?$AAs?$AA?9?$AAU?$AAY@ 00000001400604d8     libucrtd:lcidtoname_downlevel.obj
 0002:0000e4e8       ??_C@_1M@LLCCOAGA@?$AAa?$AAr?$AA?9?$AAB?$AAH@ 00000001400604e8     libucrtd:lcidtoname_downlevel.obj
 0002:0000e4f8       ??_C@_1M@PBFNCDEL@?$AAe?$AAs?$AA?9?$AAP?$AAY@ 00000001400604f8     libucrtd:lcidtoname_downlevel.obj
 0002:0000e508       ??_C@_1M@EDGINPNP@?$AAa?$AAr?$AA?9?$AAQ?$AAA@ 0000000140060508     libucrtd:lcidtoname_downlevel.obj
 0002:0000e518       ??_C@_1M@MKDBIIJI@?$AAe?$AAs?$AA?9?$AAB?$AAO@ 0000000140060518     libucrtd:lcidtoname_downlevel.obj
 0002:0000e528       ??_C@_1M@CPKKEBLD@?$AAe?$AAs?$AA?9?$AAS?$AAV@ 0000000140060528     libucrtd:lcidtoname_downlevel.obj
 0002:0000e538       ??_C@_1M@NDBGMMJL@?$AAe?$AAs?$AA?9?$AAH?$AAN@ 0000000140060538     libucrtd:lcidtoname_downlevel.obj
 0002:0000e548       ??_C@_1M@JIJIBHDP@?$AAe?$AAs?$AA?9?$AAN?$AAI@ 0000000140060548     libucrtd:lcidtoname_downlevel.obj
 0002:0000e558       ??_C@_1M@CGFMKEEK@?$AAe?$AAs?$AA?9?$AAP?$AAR@ 0000000140060558     libucrtd:lcidtoname_downlevel.obj
 0002:0000e568       ??_C@_1O@ICJHKIIK@?$AAz?$AAh?$AA?9?$AAC?$AAH?$AAT@ 0000000140060568     libucrtd:lcidtoname_downlevel.obj
 0002:0000e578       ??_C@_15CLNEJCE@?$AAs?$AAr@ 0000000140060578     libucrtd:lcidtoname_downlevel.obj
 0002:0000f3c0       ??_C@_1M@KAHEKEIG@?$AAa?$AAf?$AA?9?$AAz?$AAa@ 00000001400613c0     libucrtd:lcidtoname_downlevel.obj
 0002:0000f3d0       ??_C@_1M@GIECOABL@?$AAa?$AAr?$AA?9?$AAa?$AAe@ 00000001400613d0     libucrtd:lcidtoname_downlevel.obj
 0002:0000f3e0       ??_C@_1M@BMLMEKGI@?$AAa?$AAr?$AA?9?$AAb?$AAh@ 00000001400613e0     libucrtd:lcidtoname_downlevel.obj
 0002:0000f3f0       ??_C@_1M@DAPFDGGB@?$AAa?$AAr?$AA?9?$AAd?$AAz@ 00000001400613f0     libucrtd:lcidtoname_downlevel.obj
 0002:0000f400       ??_C@_1M@FJNKGKIG@?$AAa?$AAr?$AA?9?$AAe?$AAg@ 0000000140061400     libucrtd:lcidtoname_downlevel.obj
 0002:0000f410       ??_C@_1M@FLGKKCLO@?$AAa?$AAr?$AA?9?$AAi?$AAq@ 0000000140061410     libucrtd:lcidtoname_downlevel.obj
 0002:0000f420       ??_C@_1M@GNDIPALM@?$AAa?$AAr?$AA?9?$AAj?$AAo@ 0000000140061420     libucrtd:lcidtoname_downlevel.obj
 0002:0000f430       ??_C@_1M@DDMJFMGJ@?$AAa?$AAr?$AA?9?$AAk?$AAw@ 0000000140061430     libucrtd:lcidtoname_downlevel.obj
 0002:0000f440       ??_C@_1M@EJALMLHM@?$AAa?$AAr?$AA?9?$AAl?$AAb@ 0000000140061440     libucrtd:lcidtoname_downlevel.obj
 0002:0000f450       ??_C@_1M@MOBDBLOC@?$AAa?$AAr?$AA?9?$AAl?$AAy@ 0000000140061450     libucrtd:lcidtoname_downlevel.obj
 0002:0000f460       ??_C@_1M@JAOCLHDH@?$AAa?$AAr?$AA?9?$AAm?$AAa@ 0000000140061460     libucrtd:lcidtoname_downlevel.obj
 0002:0000f470       ??_C@_1M@JHPMKJIE@?$AAa?$AAr?$AA?9?$AAo?$AAm@ 0000000140061470     libucrtd:lcidtoname_downlevel.obj
 0002:0000f480       ??_C@_1M@OEPGHFNH@?$AAa?$AAr?$AA?9?$AAq?$AAa@ 0000000140061480     libucrtd:lcidtoname_downlevel.obj
 0002:0000f490       ??_C@_1M@KJDONENM@?$AAa?$AAr?$AA?9?$AAs?$AAa@ 0000000140061490     libucrtd:lcidtoname_downlevel.obj
 0002:0000f4a0       ??_C@_1M@DMJDKLKM@?$AAa?$AAr?$AA?9?$AAs?$AAy@ 00000001400614a0     libucrtd:lcidtoname_downlevel.obj
 0002:0000f4b0       ??_C@_1M@OMFIPEDC@?$AAa?$AAr?$AA?9?$AAt?$AAn@ 00000001400614b0     libucrtd:lcidtoname_downlevel.obj
 0002:0000f4c0       ??_C@_1M@IHMHGAON@?$AAa?$AAr?$AA?9?$AAy?$AAe@ 00000001400614c0     libucrtd:lcidtoname_downlevel.obj
 0002:0000f4d0       ??_C@_1BG@KDCPGJGB@?$AAa?$AAz?$AA?9?$AAa?$AAz?$AA?9?$AAc?$AAy?$AAr?$AAl@ 00000001400614d0     libucrtd:lcidtoname_downlevel.obj
 0002:0000f4e8       ??_C@_1BG@IBCKDDOE@?$AAa?$AAz?$AA?9?$AAa?$AAz?$AA?9?$AAl?$AAa?$AAt?$AAn@ 00000001400614e8     libucrtd:lcidtoname_downlevel.obj
 0002:0000f500       ??_C@_1M@EGPFDCPD@?$AAb?$AAe?$AA?9?$AAb?$AAy@ 0000000140061500     libucrtd:lcidtoname_downlevel.obj
 0002:0000f510       ??_C@_1M@PCMGMCGC@?$AAb?$AAg?$AA?9?$AAb?$AAg@ 0000000140061510     libucrtd:lcidtoname_downlevel.obj
 0002:0000f520       ??_C@_1M@BJBMFGOB@?$AAb?$AAn?$AA?9?$AAi?$AAn@ 0000000140061520     libucrtd:lcidtoname_downlevel.obj
 0002:0000f530       ??_C@_1BG@EAKMMACD@?$AAb?$AAs?$AA?9?$AAb?$AAa?$AA?9?$AAl?$AAa?$AAt?$AAn@ 0000000140061530     libucrtd:lcidtoname_downlevel.obj
 0002:0000f548       ??_C@_1M@KGADAODK@?$AAc?$AAa?$AA?9?$AAe?$AAs@ 0000000140061548     libucrtd:lcidtoname_downlevel.obj
 0002:0000f558       ??_C@_1M@COAJPDHI@?$AAc?$AAs?$AA?9?$AAc?$AAz@ 0000000140061558     libucrtd:lcidtoname_downlevel.obj
 0002:0000f568       ??_C@_1M@DHBHFONH@?$AAc?$AAy?$AA?9?$AAg?$AAb@ 0000000140061568     libucrtd:lcidtoname_downlevel.obj
 0002:0000f578       ??_C@_1M@IMGKELGA@?$AAd?$AAa?$AA?9?$AAd?$AAk@ 0000000140061578     libucrtd:lcidtoname_downlevel.obj
 0002:0000f588       ??_C@_1M@NNDGDNGA@?$AAd?$AAe?$AA?9?$AAa?$AAt@ 0000000140061588     libucrtd:lcidtoname_downlevel.obj
 0002:0000f598       ??_C@_1M@IKDBHEEM@?$AAd?$AAe?$AA?9?$AAc?$AAh@ 0000000140061598     libucrtd:lcidtoname_downlevel.obj
 0002:0000f5a8       ??_C@_1M@GFFOJMCJ@?$AAd?$AAe?$AA?9?$AAd?$AAe@ 00000001400615a8     libucrtd:lcidtoname_downlevel.obj
 0002:0000f5b8       ??_C@_1M@MDNLKBPM@?$AAd?$AAe?$AA?9?$AAl?$AAi@ 00000001400615b8     libucrtd:lcidtoname_downlevel.obj
 0002:0000f5c8       ??_C@_1M@NJBEEJNL@?$AAd?$AAe?$AA?9?$AAl?$AAu@ 00000001400615c8     libucrtd:lcidtoname_downlevel.obj
 0002:0000f5d8       ??_C@_1O@GNNELBAP@?$AAd?$AAi?$AAv?$AA?9?$AAm?$AAv@ 00000001400615d8     libucrtd:lcidtoname_downlevel.obj
 0002:0000f5e8       ??_C@_1M@EJLEOGAE@?$AAe?$AAl?$AA?9?$AAg?$AAr@ 00000001400615e8     libucrtd:lcidtoname_downlevel.obj
 0002:0000f5f8       ??_C@_1M@GMPONJN@?$AAe?$AAn?$AA?9?$AAa?$AAu@ 00000001400615f8     libucrtd:lcidtoname_downlevel.obj
 0002:0000f608       ??_C@_1M@NIDIIPGF@?$AAe?$AAn?$AA?9?$AAb?$AAz@ 0000000140061608     libucrtd:lcidtoname_downlevel.obj
 0002:0000f618       ??_C@_1M@JEHMIMFO@?$AAe?$AAn?$AA?9?$AAc?$AAa@ 0000000140061618     libucrtd:lcidtoname_downlevel.obj
 0002:0000f628       ??_C@_1M@IGMJCDLA@?$AAe?$AAn?$AA?9?$AAc?$AAb@ 0000000140061628     libucrtd:lcidtoname_downlevel.obj
 0002:0000f638       ??_C@_1M@BNFIGBKG@?$AAe?$AAn?$AA?9?$AAg?$AAb@ 0000000140061638     libucrtd:lcidtoname_downlevel.obj
 0002:0000f648       ??_C@_1M@LKIFDIGP@?$AAe?$AAn?$AA?9?$AAi?$AAe@ 0000000140061648     libucrtd:lcidtoname_downlevel.obj
 0002:0000f658       ??_C@_1M@PJKFGCCO@?$AAe?$AAn?$AA?9?$AAj?$AAm@ 0000000140061658     libucrtd:lcidtoname_downlevel.obj
 0002:0000f668       ??_C@_1M@KPPKEPBO@?$AAe?$AAn?$AA?9?$AAn?$AAz@ 0000000140061668     libucrtd:lcidtoname_downlevel.obj
 0002:0000f678       ??_C@_1M@GMDGLDOB@?$AAe?$AAn?$AA?9?$AAp?$AAh@ 0000000140061678     libucrtd:lcidtoname_downlevel.obj
 0002:0000f688       ??_C@_1M@ONGIBJNA@?$AAe?$AAn?$AA?9?$AAt?$AAt@ 0000000140061688     libucrtd:lcidtoname_downlevel.obj
 0002:0000f698       ??_C@_1M@LLODPCMM@?$AAe?$AAn?$AA?9?$AAu?$AAs@ 0000000140061698     libucrtd:lcidtoname_downlevel.obj
 0002:0000f6a8       ??_C@_1M@LAKFNPAN@?$AAe?$AAn?$AA?9?$AAz?$AAa@ 00000001400616a8     libucrtd:lcidtoname_downlevel.obj
 0002:0000f6b8       ??_C@_1M@MFNHNHEO@?$AAe?$AAn?$AA?9?$AAz?$AAw@ 00000001400616b8     libucrtd:lcidtoname_downlevel.obj
 0002:0000f6c8       ??_C@_1M@EJEINPHM@?$AAe?$AAs?$AA?9?$AAa?$AAr@ 00000001400616c8     libucrtd:lcidtoname_downlevel.obj
 0002:0000f6d8       ??_C@_1M@GNKPCCJA@?$AAe?$AAs?$AA?9?$AAb?$AAo@ 00000001400616d8     libucrtd:lcidtoname_downlevel.obj
 0002:0000f6e8       ??_C@_1M@LEEGFONL@?$AAe?$AAs?$AA?9?$AAc?$AAl@ 00000001400616e8     libucrtd:lcidtoname_downlevel.obj
 0002:0000f6f8       ??_C@_1M@KGPDPBDF@?$AAe?$AAs?$AA?9?$AAc?$AAo@ 00000001400616f8     libucrtd:lcidtoname_downlevel.obj
 0002:0000f708       ??_C@_1M@EIAHOHH@?$AAe?$AAs?$AA?9?$AAc?$AAr@ 0000000140061708     libucrtd:lcidtoname_downlevel.obj
 0002:0000f718       ??_C@_1M@LLPGMBIN@?$AAe?$AAs?$AA?9?$AAd?$AAo@ 0000000140061718     libucrtd:lcidtoname_downlevel.obj
 0002:0000f728       ??_C@_1M@DKHMKNJA@?$AAe?$AAs?$AA?9?$AAe?$AAc@ 0000000140061728     libucrtd:lcidtoname_downlevel.obj
 0002:0000f738       ??_C@_1M@GKGFPKAP@?$AAe?$AAs?$AA?9?$AAe?$AAs@ 0000000140061738     libucrtd:lcidtoname_downlevel.obj
 0002:0000f748       ??_C@_1M@LKHKGDLN@?$AAe?$AAs?$AA?9?$AAg?$AAt@ 0000000140061748     libucrtd:lcidtoname_downlevel.obj
 0002:0000f758       ??_C@_1M@HEIIGGJD@?$AAe?$AAs?$AA?9?$AAh?$AAn@ 0000000140061758     libucrtd:lcidtoname_downlevel.obj
 0002:0000f768       ??_C@_1M@FBDHPPGD@?$AAe?$AAs?$AA?9?$AAm?$AAx@ 0000000140061768     libucrtd:lcidtoname_downlevel.obj
 0002:0000f778       ??_C@_1M@DPAGLNDH@?$AAe?$AAs?$AA?9?$AAn?$AAi@ 0000000140061778     libucrtd:lcidtoname_downlevel.obj
 0002:0000f788       ??_C@_1M@MDGOPGDD@?$AAe?$AAs?$AA?9?$AAp?$AAa@ 0000000140061788     libucrtd:lcidtoname_downlevel.obj
 0002:0000f798       ??_C@_1M@EMAMGBGE@?$AAe?$AAs?$AA?9?$AAp?$AAe@ 0000000140061798     libucrtd:lcidtoname_downlevel.obj
 0002:0000f7a8       ??_C@_1M@IBMCAOEC@?$AAe?$AAs?$AA?9?$AAp?$AAr@ 00000001400617a8     libucrtd:lcidtoname_downlevel.obj
 0002:0000f7b8       ??_C@_1M@FGMDIJED@?$AAe?$AAs?$AA?9?$AAp?$AAy@ 00000001400617b8     libucrtd:lcidtoname_downlevel.obj
 0002:0000f7c8       ??_C@_1M@IIDEOLLL@?$AAe?$AAs?$AA?9?$AAs?$AAv@ 00000001400617c8     libucrtd:lcidtoname_downlevel.obj
 0002:0000f7d8       ??_C@_1M@GAOBIPA@?$AAe?$AAs?$AA?9?$AAu?$AAy@ 00000001400617d8     libucrtd:lcidtoname_downlevel.obj
 0002:0000f7e8       ??_C@_1M@JKFFICHJ@?$AAe?$AAs?$AA?9?$AAv?$AAe@ 00000001400617e8     libucrtd:lcidtoname_downlevel.obj
 0002:0000f7f8       ??_C@_1M@PNMLOJDF@?$AAe?$AAt?$AA?9?$AAe?$AAe@ 00000001400617f8     libucrtd:lcidtoname_downlevel.obj
 0002:0000f808       ??_C@_1M@GHHLIKEI@?$AAe?$AAu?$AA?9?$AAe?$AAs@ 0000000140061808     libucrtd:lcidtoname_downlevel.obj
 0002:0000f818       ??_C@_1M@PBNONODE@?$AAf?$AAa?$AA?9?$AAi?$AAr@ 0000000140061818     libucrtd:lcidtoname_downlevel.obj
 0002:0000f828       ??_C@_1M@JEEHPMIL@?$AAf?$AAi?$AA?9?$AAf?$AAi@ 0000000140061828     libucrtd:lcidtoname_downlevel.obj
 0002:0000f838       ??_C@_1M@LMDCNDBA@?$AAf?$AAo?$AA?9?$AAf?$AAo@ 0000000140061838     libucrtd:lcidtoname_downlevel.obj
 0002:0000f848       ??_C@_1M@JKEOHLDK@?$AAf?$AAr?$AA?9?$AAb?$AAe@ 0000000140061848     libucrtd:lcidtoname_downlevel.obj
 0002:0000f858       ??_C@_1M@NOHADPMI@?$AAf?$AAr?$AA?9?$AAc?$AAa@ 0000000140061858     libucrtd:lcidtoname_downlevel.obj
 0002:0000f868       ??_C@_1M@KDHIHAEC@?$AAf?$AAr?$AA?9?$AAc?$AAh@ 0000000140061868     libucrtd:lcidtoname_downlevel.obj
 0002:0000f878       ??_C@_1M@MMBBFGAK@?$AAf?$AAr?$AA?9?$AAf?$AAr@ 0000000140061878     libucrtd:lcidtoname_downlevel.obj
 0002:0000f888       ??_C@_1M@PAFNENNF@?$AAf?$AAr?$AA?9?$AAl?$AAu@ 0000000140061888     libucrtd:lcidtoname_downlevel.obj
 0002:0000f898       ??_C@_1M@EOHDJGDD@?$AAf?$AAr?$AA?9?$AAm?$AAc@ 0000000140061898     libucrtd:lcidtoname_downlevel.obj
 0002:0000f8a8       ??_C@_1M@FAPLLOPF@?$AAg?$AAl?$AA?9?$AAe?$AAs@ 00000001400618a8     libucrtd:lcidtoname_downlevel.obj
 0002:0000f8b8       ??_C@_1M@FOPBFLOO@?$AAg?$AAu?$AA?9?$AAi?$AAn@ 00000001400618b8     libucrtd:lcidtoname_downlevel.obj
 0002:0000f8c8       ??_C@_1M@KBMCINPM@?$AAh?$AAe?$AA?9?$AAi?$AAl@ 00000001400618c8     libucrtd:lcidtoname_downlevel.obj
 0002:0000f8d8       ??_C@_1M@BBPHKFPJ@?$AAh?$AAi?$AA?9?$AAi?$AAn@ 00000001400618d8     libucrtd:lcidtoname_downlevel.obj
 0002:0000f8e8       ??_C@_1M@PMBNDPHD@?$AAh?$AAr?$AA?9?$AAb?$AAa@ 00000001400618e8     libucrtd:lcidtoname_downlevel.obj
 0002:0000f8f8       ??_C@_1M@BPCKOEGE@?$AAh?$AAr?$AA?9?$AAh?$AAr@ 00000001400618f8     libucrtd:lcidtoname_downlevel.obj
 0002:0000f908       ??_C@_1M@GACBMHKE@?$AAh?$AAu?$AA?9?$AAh?$AAu@ 0000000140061908     libucrtd:lcidtoname_downlevel.obj
 0002:0000f918       ??_C@_1M@MILPAJJC@?$AAh?$AAy?$AA?9?$AAa?$AAm@ 0000000140061918     libucrtd:lcidtoname_downlevel.obj
 0002:0000f928       ??_C@_1M@BABBICEC@?$AAi?$AAd?$AA?9?$AAi?$AAd@ 0000000140061928     libucrtd:lcidtoname_downlevel.obj
 0002:0000f938       ??_C@_1M@BIKNHHPF@?$AAi?$AAs?$AA?9?$AAi?$AAs@ 0000000140061938     libucrtd:lcidtoname_downlevel.obj
 0002:0000f948       ??_C@_1M@NMPCJPHE@?$AAi?$AAt?$AA?9?$AAc?$AAh@ 0000000140061948     libucrtd:lcidtoname_downlevel.obj
 0002:0000f958       ??_C@_1M@GHKGFEDF@?$AAi?$AAt?$AA?9?$AAi?$AAt@ 0000000140061958     libucrtd:lcidtoname_downlevel.obj
 0002:0000f968       ??_C@_1M@NIEJCJJA@?$AAj?$AAa?$AA?9?$AAj?$AAp@ 0000000140061968     libucrtd:lcidtoname_downlevel.obj
 0002:0000f978       ??_C@_1M@JILFNBIM@?$AAk?$AAa?$AA?9?$AAg?$AAe@ 0000000140061978     libucrtd:lcidtoname_downlevel.obj
 0002:0000f988       ??_C@_1M@PACPMGPH@?$AAk?$AAk?$AA?9?$AAk?$AAz@ 0000000140061988     libucrtd:lcidtoname_downlevel.obj
 0002:0000f998       ??_C@_1M@IELFGMHA@?$AAk?$AAn?$AA?9?$AAi?$AAn@ 0000000140061998     libucrtd:lcidtoname_downlevel.obj
 0002:0000f9a8       ??_C@_1O@IBBJHCH@?$AAk?$AAo?$AAk?$AA?9?$AAi?$AAn@ 00000001400619a8     libucrtd:lcidtoname_downlevel.obj
 0002:0000f9b8       ??_C@_1M@DMHAEOGC@?$AAk?$AAo?$AA?9?$AAk?$AAr@ 00000001400619b8     libucrtd:lcidtoname_downlevel.obj
 0002:0000f9c8       ??_C@_1M@HBAHBIGA@?$AAk?$AAy?$AA?9?$AAk?$AAg@ 00000001400619c8     libucrtd:lcidtoname_downlevel.obj
 0002:0000f9d8       ??_C@_1M@KPMILCJG@?$AAl?$AAt?$AA?9?$AAl?$AAt@ 00000001400619d8     libucrtd:lcidtoname_downlevel.obj
 0002:0000f9e8       ??_C@_1M@BDEKKCA@?$AAl?$AAv?$AA?9?$AAl?$AAv@ 00000001400619e8     libucrtd:lcidtoname_downlevel.obj
 0002:0000f9f8       ??_C@_1M@ELCKCCJJ@?$AAm?$AAi?$AA?9?$AAn?$AAz@ 00000001400619f8     libucrtd:lcidtoname_downlevel.obj
 0002:0000fa08       ??_C@_1M@CBOOLAPA@?$AAm?$AAk?$AA?9?$AAm?$AAk@ 0000000140061a08     libucrtd:lcidtoname_downlevel.obj
 0002:0000fa18       ??_C@_1M@GPHNBJKN@?$AAm?$AAl?$AA?9?$AAi?$AAn@ 0000000140061a18     libucrtd:lcidtoname_downlevel.obj
 0002:0000fa28       ??_C@_1M@PABJILIG@?$AAm?$AAn?$AA?9?$AAm?$AAn@ 0000000140061a28     libucrtd:lcidtoname_downlevel.obj
 0002:0000fa38       ??_C@_1M@FGBKKIPG@?$AAm?$AAr?$AA?9?$AAi?$AAn@ 0000000140061a38     libucrtd:lcidtoname_downlevel.obj
 0002:0000fa48       ??_C@_1M@NDBPDDAL@?$AAm?$AAs?$AA?9?$AAb?$AAn@ 0000000140061a48     libucrtd:lcidtoname_downlevel.obj
 0002:0000fa58       ??_C@_1M@OPIHOOPI@?$AAm?$AAs?$AA?9?$AAm?$AAy@ 0000000140061a58     libucrtd:lcidtoname_downlevel.obj
 0002:0000fa68       ??_C@_1M@PPDBCNFM@?$AAm?$AAt?$AA?9?$AAm?$AAt@ 0000000140061a68     libucrtd:lcidtoname_downlevel.obj
 0002:0000fa78       ??_C@_1M@KDJDKMDD@?$AAn?$AAb?$AA?9?$AAn?$AAo@ 0000000140061a78     libucrtd:lcidtoname_downlevel.obj
 0002:0000fa88       ??_C@_1M@KFCFLMJP@?$AAn?$AAl?$AA?9?$AAb?$AAe@ 0000000140061a88     libucrtd:lcidtoname_downlevel.obj
 0002:0000fa98       ??_C@_1M@KPOPDDGO@?$AAn?$AAl?$AA?9?$AAn?$AAl@ 0000000140061a98     libucrtd:lcidtoname_downlevel.obj
 0002:0000faa8       ??_C@_1M@LJKPEMLN@?$AAn?$AAn?$AA?9?$AAn?$AAo@ 0000000140061aa8     libucrtd:lcidtoname_downlevel.obj
 0002:0000fab8       ??_C@_1M@BDGHHBFL@?$AAn?$AAs?$AA?9?$AAz?$AAa@ 0000000140061ab8     libucrtd:lcidtoname_downlevel.obj
 0002:0000fac8       ??_C@_1M@IDEHOAP@?$AAp?$AAa?$AA?9?$AAi?$AAn@ 0000000140061ac8     libucrtd:lcidtoname_downlevel.obj
 0002:0000fad8       ??_C@_1M@HDBKGOGH@?$AAp?$AAl?$AA?9?$AAp?$AAl@ 0000000140061ad8     libucrtd:lcidtoname_downlevel.obj
 0002:0000fae8       ??_C@_1M@LJLLCMEH@?$AAp?$AAt?$AA?9?$AAb?$AAr@ 0000000140061ae8     libucrtd:lcidtoname_downlevel.obj
 0002:0000faf8       ??_C@_1M@NCMONAAL@?$AAp?$AAt?$AA?9?$AAp?$AAt@ 0000000140061af8     libucrtd:lcidtoname_downlevel.obj
 0002:0000fb08       ??_C@_1O@EAKMAJDN@?$AAq?$AAu?$AAz?$AA?9?$AAb?$AAo@ 0000000140061b08     libucrtd:lcidtoname_downlevel.obj
 0002:0000fb18       ??_C@_1O@BHHPIGDN@?$AAq?$AAu?$AAz?$AA?9?$AAe?$AAc@ 0000000140061b18     libucrtd:lcidtoname_downlevel.obj
 0002:0000fb28       ??_C@_1O@GBAPEKMJ@?$AAq?$AAu?$AAz?$AA?9?$AAp?$AAe@ 0000000140061b28     libucrtd:lcidtoname_downlevel.obj
 0002:0000fb38       ??_C@_1M@CLGLEFBO@?$AAr?$AAo?$AA?9?$AAr?$AAo@ 0000000140061b38     libucrtd:lcidtoname_downlevel.obj
 0002:0000fb48       ??_C@_1M@CEEDODME@?$AAr?$AAu?$AA?9?$AAr?$AAu@ 0000000140061b48     libucrtd:lcidtoname_downlevel.obj
 0002:0000fb58       ??_C@_1M@HPKKKMPP@?$AAs?$AAa?$AA?9?$AAi?$AAn@ 0000000140061b58     libucrtd:lcidtoname_downlevel.obj
 0002:0000fb68       ??_C@_1M@BKMAIGOJ@?$AAs?$AAe?$AA?9?$AAf?$AAi@ 0000000140061b68     libucrtd:lcidtoname_downlevel.obj
 0002:0000fb78       ??_C@_1M@NDPIFLFI@?$AAs?$AAe?$AA?9?$AAn?$AAo@ 0000000140061b78     libucrtd:lcidtoname_downlevel.obj
 0002:0000fb88       ??_C@_1M@DANKKHJ@?$AAs?$AAe?$AA?9?$AAs?$AAe@ 0000000140061b88     libucrtd:lcidtoname_downlevel.obj
 0002:0000fb98       ??_C@_1M@PNBLONPJ@?$AAs?$AAk?$AA?9?$AAs?$AAk@ 0000000140061b98     libucrtd:lcidtoname_downlevel.obj
 0002:0000fba8       ??_C@_1M@LFMODOAL@?$AAs?$AAl?$AA?9?$AAs?$AAi@ 0000000140061ba8     libucrtd:lcidtoname_downlevel.obj
 0002:0000fbb8       ??_C@_1O@DFKOMPG@?$AAs?$AAm?$AAa?$AA?9?$AAn?$AAo@ 0000000140061bb8     libucrtd:lcidtoname_downlevel.obj
 0002:0000fbc8       ??_C@_1O@NDKPBNNH@?$AAs?$AAm?$AAa?$AA?9?$AAs?$AAe@ 0000000140061bc8     libucrtd:lcidtoname_downlevel.obj
 0002:0000fbd8       ??_C@_1O@PLLKBHAB@?$AAs?$AAm?$AAj?$AA?9?$AAn?$AAo@ 0000000140061bd8     libucrtd:lcidtoname_downlevel.obj
 0002:0000fbe8       ??_C@_1O@CLEPOGCA@?$AAs?$AAm?$AAj?$AA?9?$AAs?$AAe@ 0000000140061be8     libucrtd:lcidtoname_downlevel.obj
 0002:0000fbf8       ??_C@_1O@DLGJGKMK@?$AAs?$AAm?$AAn?$AA?9?$AAf?$AAi@ 0000000140061bf8     libucrtd:lcidtoname_downlevel.obj
 0002:0000fc08       ??_C@_1O@OJDJGAJC@?$AAs?$AAm?$AAs?$AA?9?$AAf?$AAi@ 0000000140061c08     libucrtd:lcidtoname_downlevel.obj
 0002:0000fc18       ??_C@_1M@BOFOGHPB@?$AAs?$AAq?$AA?9?$AAa?$AAl@ 0000000140061c18     libucrtd:lcidtoname_downlevel.obj
 0002:0000fc28       ??_C@_1BG@LJBBIPGB@?$AAs?$AAr?$AA?9?$AAb?$AAa?$AA?9?$AAc?$AAy?$AAr?$AAl@ 0000000140061c28     libucrtd:lcidtoname_downlevel.obj
 0002:0000fc40       ??_C@_1BG@JLBENFOE@?$AAs?$AAr?$AA?9?$AAb?$AAa?$AA?9?$AAl?$AAa?$AAt?$AAn@ 0000000140061c40     libucrtd:lcidtoname_downlevel.obj
 0002:0000fc58       ??_C@_1BG@KODPNHE@?$AAs?$AAr?$AA?9?$AAs?$AAp?$AA?9?$AAc?$AAy?$AAr?$AAl@ 0000000140061c58     libucrtd:lcidtoname_downlevel.obj
 0002:0000fc70       ??_C@_1BG@CIOGKHPB@?$AAs?$AAr?$AA?9?$AAs?$AAp?$AA?9?$AAl?$AAa?$AAt?$AAn@ 0000000140061c70     libucrtd:lcidtoname_downlevel.obj
 0002:0000fc88       ??_C@_1M@NGFJLMAC@?$AAs?$AAv?$AA?9?$AAf?$AAi@ 0000000140061c88     libucrtd:lcidtoname_downlevel.obj
 0002:0000fc98       ??_C@_1M@MPJEJAJC@?$AAs?$AAv?$AA?9?$AAs?$AAe@ 0000000140061c98     libucrtd:lcidtoname_downlevel.obj
 0002:0000fca8       ??_C@_1M@MPNDHLFK@?$AAs?$AAw?$AA?9?$AAk?$AAe@ 0000000140061ca8     libucrtd:lcidtoname_downlevel.obj
 0002:0000fcb8       ??_C@_1O@KOHBJJI@?$AAs?$AAy?$AAr?$AA?9?$AAs?$AAy@ 0000000140061cb8     libucrtd:lcidtoname_downlevel.obj
 0002:0000fcc8       ??_C@_1M@LDCEFHA@?$AAt?$AAa?$AA?9?$AAi?$AAn@ 0000000140061cc8     libucrtd:lcidtoname_downlevel.obj
 0002:0000fcd8       ??_C@_1M@CNJOFAK@?$AAt?$AAe?$AA?9?$AAi?$AAn@ 0000000140061cd8     libucrtd:lcidtoname_downlevel.obj
 0002:0000fce8       ??_C@_1M@GNAECACD@?$AAt?$AAh?$AA?9?$AAt?$AAh@ 0000000140061ce8     libucrtd:lcidtoname_downlevel.obj
 0002:0000fcf8       ??_C@_1M@CHBIHOJO@?$AAt?$AAn?$AA?9?$AAz?$AAa@ 0000000140061cf8     libucrtd:lcidtoname_downlevel.obj
 0002:0000fd08       ??_C@_1M@GCCMIGPJ@?$AAt?$AAr?$AA?9?$AAt?$AAr@ 0000000140061d08     libucrtd:lcidtoname_downlevel.obj
 0002:0000fd18       ??_C@_1M@CELMCNBK@?$AAt?$AAt?$AA?9?$AAr?$AAu@ 0000000140061d18     libucrtd:lcidtoname_downlevel.obj
 0002:0000fd28       ??_C@_1M@KLMCELGA@?$AAu?$AAk?$AA?9?$AAu?$AAa@ 0000000140061d28     libucrtd:lcidtoname_downlevel.obj
 0002:0000fd38       ??_C@_1M@EPAJJAJF@?$AAu?$AAr?$AA?9?$AAp?$AAk@ 0000000140061d38     libucrtd:lcidtoname_downlevel.obj
 0002:0000fd48       ??_C@_1BG@GEGPMCDJ@?$AAu?$AAz?$AA?9?$AAu?$AAz?$AA?9?$AAc?$AAy?$AAr?$AAl@ 0000000140061d48     libucrtd:lcidtoname_downlevel.obj
 0002:0000fd60       ??_C@_1BG@EGGKJILM@?$AAu?$AAz?$AA?9?$AAu?$AAz?$AA?9?$AAl?$AAa?$AAt?$AAn@ 0000000140061d60     libucrtd:lcidtoname_downlevel.obj
 0002:0000fd78       ??_C@_1M@GFOCLFF@?$AAv?$AAi?$AA?9?$AAv?$AAn@ 0000000140061d78     libucrtd:lcidtoname_downlevel.obj
 0002:0000fd88       ??_C@_1M@CPAMEDFI@?$AAx?$AAh?$AA?9?$AAz?$AAa@ 0000000140061d88     libucrtd:lcidtoname_downlevel.obj
 0002:0000fd98       ??_C@_1O@EBKIFIGN@?$AAz?$AAh?$AA?9?$AAc?$AAh?$AAs@ 0000000140061d98     libucrtd:lcidtoname_downlevel.obj
 0002:0000fda8       ??_C@_1O@NMHPGANE@?$AAz?$AAh?$AA?9?$AAc?$AAh?$AAt@ 0000000140061da8     libucrtd:lcidtoname_downlevel.obj
 0002:0000fdb8       ??_C@_1M@LPINJOMC@?$AAz?$AAh?$AA?9?$AAc?$AAn@ 0000000140061db8     libucrtd:lcidtoname_downlevel.obj
 0002:0000fdc8       ??_C@_1M@OCJEJODD@?$AAz?$AAh?$AA?9?$AAh?$AAk@ 0000000140061dc8     libucrtd:lcidtoname_downlevel.obj
 0002:0000fdd8       ??_C@_1M@DNDLJINH@?$AAz?$AAh?$AA?9?$AAm?$AAo@ 0000000140061dd8     libucrtd:lcidtoname_downlevel.obj
 0002:0000fde8       ??_C@_1M@MBFDNDND@?$AAz?$AAh?$AA?9?$AAs?$AAg@ 0000000140061de8     libucrtd:lcidtoname_downlevel.obj
 0002:0000fdf8       ??_C@_1M@IMEPLEPE@?$AAz?$AAh?$AA?9?$AAt?$AAw@ 0000000140061df8     libucrtd:lcidtoname_downlevel.obj
 0002:0000fe08       ??_C@_1M@BBGHNHJP@?$AAz?$AAu?$AA?9?$AAz?$AAa@ 0000000140061e08     libucrtd:lcidtoname_downlevel.obj
 0002:0000fe40       ??_C@_1BK@FPAMLIDG@?$AAs?$AA?5?$AA?$CB?$AA?$DN?$AA?5?$AAn?$AAu?$AAl?$AAl?$AAp?$AAt?$AAr@ 0000000140061e40     libucrtd:mbstowcs.obj
 0002:0000fe60       ??_C@_1GI@KABMHNPH@?$AAm?$AAi?$AAn?$AAk?$AAe?$AAr?$AAn?$AAe?$AAl?$AA?2?$AAc?$AAr?$AAt?$AAs?$AA?2@ 0000000140061e60     libucrtd:mbstowcs.obj
 0002:0000fec8       ??_C@_1CG@JEHFHLNG@?$AA_?$AAm?$AAb?$AAs?$AAt?$AAo?$AAw?$AAc?$AAs?$AA_?$AAl?$AA_?$AAh?$AAe?$AAl@ 0000000140061ec8     libucrtd:mbstowcs.obj
 0002:0000fef0       ??_C@_1JM@MEKBACIG@?$AA?$CI?$AAp?$AAw?$AAc?$AAs?$AA?5?$AA?$DN?$AA?$DN?$AA?5?$AAn?$AAu?$AAl?$AAl?$AAp?$AAt@ 0000000140061ef0     libucrtd:mbstowcs.obj
 0002:0000ff90       ??_C@_1CG@BILJJDPK@?$AA_?$AAm?$AAb?$AAs?$AAt?$AAo?$AAw?$AAc?$AAs?$AA_?$AAi?$AAn?$AAt?$AAe?$AAr@ 0000000140061f90     libucrtd:mbstowcs.obj
 0002:0000ffb8       ??_C@_1CM@LLECFMFH@?$AAb?$AAu?$AAf?$AAf?$AAe?$AAr?$AAS?$AAi?$AAz?$AAe?$AA?5?$AA?$DM?$AA?$DN?$AA?5?$AAI@ 0000000140061fb8     libucrtd:mbstowcs.obj
 0002:0000ffe8       ??_C@_1CO@JNPEPJAL@?$AAr?$AAe?$AAt?$AAs?$AAi?$AAz?$AAe?$AA?5?$AA?$DM?$AA?$DN?$AA?5?$AAs?$AAi?$AAz?$AAe@ 0000000140061fe8     libucrtd:mbstowcs.obj
 0002:00010018       ??_C@_1CA@NOKNKDIG@?$AAp?$AAw?$AAc?$AAs?$AA?5?$AA?$CB?$AA?$DN?$AA?5?$AAn?$AAu?$AAl?$AAl?$AAp?$AAt?$AAr@ 0000000140062018     libucrtd:wcstombs.obj
 0002:00010040       ??_C@_1GI@EEJDEALP@?$AAm?$AAi?$AAn?$AAk?$AAe?$AAr?$AAn?$AAe?$AAl?$AA?2?$AAc?$AAr?$AAt?$AAs?$AA?2@ 0000000140062040     libucrtd:wcstombs.obj
 0002:000100a8       ??_C@_1CG@LLJCAOHF@?$AA_?$AAw?$AAc?$AAs?$AAt?$AAo?$AAm?$AAb?$AAs?$AA_?$AAl?$AA_?$AAh?$AAe?$AAl@ 00000001400620a8     libucrtd:wcstombs.obj
 0002:000100d0       ??_C@_1JI@DFNKFCLG@?$AA?$CI?$AAd?$AAs?$AAt?$AA?5?$AA?$CB?$AA?$DN?$AA?5?$AAn?$AAu?$AAl?$AAl?$AAp?$AAt?$AAr@ 00000001400620d0     libucrtd:wcstombs.obj
 0002:00010168       ??_C@_1CG@DHFOOGFJ@?$AA_?$AAw?$AAc?$AAs?$AAt?$AAo?$AAm?$AAb?$AAs?$AA_?$AAi?$AAn?$AAt?$AAe?$AAr@ 0000000140062168     libucrtd:wcstombs.obj
 0002:00010190       ??_C@_1CM@KEOGBFLI@?$AAs?$AAi?$AAz?$AAe?$AAI?$AAn?$AAB?$AAy?$AAt?$AAe?$AAs?$AA?5?$AA?$DO?$AA?5?$AAr@ 0000000140062190     libucrtd:wcstombs.obj
 0002:00010410       ??_C@_1DG@JNDMIEJL@?$AA?$CI?$AA?$CC?$AAI?$AAn?$AAv?$AAa?$AAl?$AAi?$AAd?$AA?5?$AAi?$AAn?$AAp?$AAu?$AAt@ 0000000140062410     libucrtd:contrlfp.obj
 0002:00010450       ??_C@_1FO@HHLKCIKB@?$AAm?$AAi?$AAn?$AAk?$AAe?$AAr?$AAn?$AAe?$AAl?$AA?2?$AAc?$AAr?$AAt?$AAs?$AA?2@ 0000000140062450     libucrtd:contrlfp.obj
 0002:000104b0       ??_C@_1BK@CDOALEA@?$AA_?$AAc?$AAo?$AAn?$AAt?$AAr?$AAo?$AAl?$AAf?$AAp?$AA_?$AAs@ 00000001400624b0     libucrtd:contrlfp.obj
 0002:000104d0       ??_C@_1GA@DKNOMDCL@?$AAm?$AAi?$AAn?$AAk?$AAe?$AAr?$AAn?$AAe?$AAl?$AA?2?$AAc?$AAr?$AAt?$AAs?$AA?2@ 00000001400624d0     libucrtd:fclose.obj
 0002:00010530       ??_C@_1DA@IHIKPHIN@?$AA_?$AAf?$AAc?$AAl?$AAo?$AAs?$AAe?$AA_?$AAn?$AAo?$AAl?$AAo?$AAc?$AAk?$AA_@ 0000000140062530     libucrtd:fclose.obj
 0002:00010560       ??_C@_1CC@LPELGHFC@?$AA_?$AAf?$AAc?$AAl?$AAo?$AAs?$AAe?$AA_?$AAi?$AAn?$AAt?$AAe?$AAr?$AAn?$AAa@ 0000000140062560     libucrtd:fclose.obj
 0002:000105b0       ??_C@_1GA@MPOOLHCO@?$AAm?$AAi?$AAn?$AAk?$AAe?$AAr?$AAn?$AAe?$AAl?$AA?2?$AAc?$AAr?$AAt?$AAs?$AA?2@ 00000001400625b0     libucrtd:commit.obj
 0002:00010610       ??_C@_1BA@FLNMBBIM@?$AA_?$AAc?$AAo?$AAm?$AAm?$AAi?$AAt@ 0000000140062610     libucrtd:commit.obj
 0002:00010650       ??_C@_1FO@CAMPMGCN@?$AAm?$AAi?$AAn?$AAk?$AAe?$AAr?$AAn?$AAe?$AAl?$AA?2?$AAc?$AAr?$AAt?$AAs?$AA?2@ 0000000140062650     libucrtd:write.obj
 0002:000106b0       ??_C@_1CA@PNHCPGNO@?$AA_?$AAw?$AAr?$AAi?$AAt?$AAe?$AA_?$AAi?$AAn?$AAt?$AAe?$AAr?$AAn?$AAa?$AAl@ 00000001400626b0     libucrtd:write.obj
 0002:000106d0       ??_C@_1CK@MMEFCHHN@?$AA?$CB?$AA_?$AAd?$AAb?$AAc?$AAs?$AAB?$AAu?$AAf?$AAf?$AAe?$AAr?$AAU?$AAs?$AAe@ 00000001400626d0     libucrtd:write.obj
 0002:00010700       ??_C@_1EG@LICJGLJJ@?$AA1?$AA?5?$AA?$DM?$AA?5?$AAm?$AAb?$AA_?$AAl?$AAe?$AAn?$AA?5?$AA?$CG?$AA?$CG?$AA?5?$AAm@ 0000000140062700     libucrtd:write.obj
 0002:00010750       ??_C@_1FC@NFILPJB@?$AAm?$AAb?$AA_?$AAb?$AAu?$AAf?$AA_?$AAu?$AAs?$AAe?$AAd?$AA?5?$AA?$CL?$AA?5?$AAb@ 0000000140062750     libucrtd:write.obj
 0002:000107b0       ??_C@_1FC@HEJOPHLA@?$AAa?$AAv?$AAa?$AAi?$AAl?$AAa?$AAb?$AAl?$AAe?$AA_?$AAb?$AAy?$AAt?$AAe?$AAs@ 00000001400627b0     libucrtd:write.obj
 0002:00010810       ??_C@_1GG@JOGHJGBM@?$AA_?$AAi?$AAs?$AAl?$AAe?$AAa?$AAd?$AAb?$AAy?$AAt?$AAe?$AA_?$AAf?$AAa?$AAs@ 0000000140062810     libucrtd:write.obj
 0002:00010878       ??_C@_1BM@NCANHCIP@?$AA_?$AAw?$AAr?$AAi?$AAt?$AAe?$AA_?$AAn?$AAo?$AAl?$AAo?$AAc?$AAk@ 0000000140062878     libucrtd:write.obj
 0002:00010898       ??_C@_1CK@CPEAGIIP@?$AAb?$AAu?$AAf?$AAf?$AAe?$AAr?$AA_?$AAs?$AAi?$AAz?$AAe?$AA?5?$AA?$CF?$AA?5?$AA2@ 0000000140062898     libucrtd:write.obj
 0002:000108d0       ??_C@_1FO@KIIHJNFN@?$AAm?$AAi?$AAn?$AAk?$AAe?$AAr?$AAn?$AAe?$AAl?$AA?2?$AAc?$AAr?$AAt?$AAs?$AA?2@ 00000001400628d0     libucrtd:lseek.obj
 0002:00010930       ??_C@_1DM@LMLOLGJ@?$AA?$CI?$AA?$CC?$AAI?$AAn?$AAv?$AAa?$AAl?$AAi?$AAd?$AA?5?$AAf?$AAi?$AAl?$AAe?$AA?5@ 0000000140062930     libucrtd:lseek.obj
 0002:00010970       __log10_256_lead           0000000140062970     libucrtd:log10_256_lead_tail_table.obj
 0002:00011180       __log10_256_tail           0000000140063180     libucrtd:log10_256_lead_tail_table.obj
 0002:00011990       __log_F_inv_qword          0000000140063990     libucrtd:log_f_inv_qword_table.obj
 0002:000121a0       ??_C@_1EK@PDBKILLM@?$AA?$CI?$AAm?$AAa?$AAs?$AAk?$AA?$CG?$AA?$HO?$AA?$CI?$AA_?$AAM?$AAC?$AAW?$AA_?$AAD?$AAN@ 00000001400641a0     libucrtd:ieee.obj
 0002:000121f0       ??_C@_1GC@IEFABLII@?$AAm?$AAi?$AAn?$AAk?$AAe?$AAr?$AAn?$AAe?$AAl?$AA?2?$AAc?$AAr?$AAt?$AAs?$AA?2@ 00000001400641f0     libucrtd:ieee.obj
 0002:00012280       ??_C@_1FO@IPDGALOE@?$AAm?$AAi?$AAn?$AAk?$AAe?$AAr?$AAn?$AAe?$AAl?$AA?2?$AAc?$AAr?$AAt?$AAs?$AA?2@ 0000000140064280     libucrtd:close.obj
 0002:000122e0       ??_C@_1CA@GBJHJLEM@?$AA_?$AAc?$AAl?$AAo?$AAs?$AAe?$AA_?$AAi?$AAn?$AAt?$AAe?$AAr?$AAn?$AAa?$AAl@ 00000001400642e0     libucrtd:close.obj
 0002:00012328       ??_C@_1BA@BALFACEM@?$AAC?$AAO?$AAN?$AAO?$AAU?$AAT?$AA$@ 0000000140064328     libucrtd:initcon.obj
 0002:00012340       ??_7type_info@@6B@         0000000140064340     LIBCMTD:std_type_info_static.obj
 0002:00012350       __xmm@00000000000000000000000000000000 0000000140064350     libvcruntimed:strrchr.obj
 0002:00012360       _load_config_used          0000000140064360     LIBCMTD:loadcfg.obj
 0002:00012680       _tls_used                  0000000140064680     LIBCMTD:tlssup.obj
 0002:000126a8       ??_R4exception@std@@6B@    00000001400646a8     libvcruntimed:frame.obj
 0002:000126d0       ??_R3exception@std@@8      00000001400646d0     libvcruntimed:frame.obj
 0002:000126e8       ??_R2exception@std@@8      00000001400646e8     libvcruntimed:frame.obj
 0002:000126f8       ??_R1A@?0A@EA@exception@std@@8 00000001400646f8     libvcruntimed:frame.obj
 0002:00012720       ??_R4bad_exception@std@@6B@ 0000000140064720     libvcruntimed:frame.obj
 0002:00012748       ??_R3bad_exception@std@@8  0000000140064748     libvcruntimed:frame.obj
 0002:00012760       ??_R2bad_exception@std@@8  0000000140064760     libvcruntimed:frame.obj
 0002:00012778       ??_R1A@?0A@EA@bad_exception@std@@8 0000000140064778     libvcruntimed:frame.obj
 0002:000127a0       ??_R4type_info@@6B@        00000001400647a0     LIBCMTD:std_type_info_static.obj
 0002:000127c8       ??_R3type_info@@8          00000001400647c8     LIBCMTD:std_type_info_static.obj
 0002:000127e0       ??_R2type_info@@8          00000001400647e0     LIBCMTD:std_type_info_static.obj
 0002:000127f0       ??_R1A@?0A@EA@type_info@@8 00000001400647f0     LIBCMTD:std_type_info_static.obj
 0002:00012814       __volatile_metadata        0000000140064814     <linker-defined>
 0002:00012e00       __rtc_iaa                  0000000140064e00     LIBCMTD:initsect.obj
 0002:00012e08       __rtc_izz                  0000000140064e08     LIBCMTD:initsect.obj
 0002:00012e10       __rtc_taa                  0000000140064e10     LIBCMTD:initsect.obj
 0002:00012e18       __rtc_tzz                  0000000140064e18     LIBCMTD:initsect.obj
 0002:00012e20       _tls_start                 0000000140064e20     LIBCMTD:tlssup.obj
 0002:00012e24       _Init_thread_epoch         0000000140064e24     LIBCMTD:thread_safe_statics.obj
 0002:00012e28       _tls_end                   0000000140064e28     LIBCMTD:tlssup.obj
 0002:00014500       _TI2?AVbad_exception@std@@ 0000000140066500     libvcruntimed:frame.obj
 0002:00014520       _CTA2?AVbad_exception@std@@ 0000000140066520     libvcruntimed:frame.obj
 0002:00014538       _CT??_R0?AVbad_exception@std@@@8??0bad_exception@std@@QEAA@AEBV01@@Z24 0000000140066538     libvcruntimed:frame.obj
 0002:00014560       _CT??_R0?AVexception@std@@@8??0exception@std@@QEAA@AEBV01@@Z24 0000000140066560     libvcruntimed:frame.obj
 0002:00014584       __IMPORT_DESCRIPTOR_USER32 0000000140066584     user32:USER32.dll
 0002:00014598       __IMPORT_DESCRIPTOR_GDI32  0000000140066598     gdi32:GDI32.dll
 0002:000145ac       __IMPORT_DESCRIPTOR_KERNEL32 00000001400665ac     kernel32:KERNEL32.dll
 0002:000145c0       __IMPORT_DESCRIPTOR_WINMM  00000001400665c0     winmm:WINMM.dll
 0002:000145d4       __NULL_IMPORT_DESCRIPTOR   00000001400665d4     user32:USER32.dll
 0003:00000000       _Init_global_epoch         0000000140068000     LIBCMTD:thread_safe_statics.obj
 0003:00000040       __security_cookie          0000000140068040     LIBCMTD:gs_cookie.obj
 0003:00000080       __security_cookie_complement 0000000140068080     LIBCMTD:gs_cookie.obj
 0003:00000088       _fltused                   0000000140068088     LIBCMTD:fltused.obj
 0003:0000008c       __scrt_native_dllmain_reason 000000014006808c     LIBCMTD:utility.obj
 0003:00000090       __scrt_default_matherr     0000000140068090     LIBCMTD:matherr.obj
 0003:00000098       __isa_inverted             0000000140068098     LIBCMTD:cpu_disp.obj
 0003:000000a0       __isa_available            00000001400680a0     LIBCMTD:cpu_disp.obj
 0003:000000a4       __isa_enabled              00000001400680a4     LIBCMTD:cpu_disp.obj
 0003:000000a8       __memset_fast_string_threshold 00000001400680a8     LIBCMTD:cpu_disp.obj
 0003:000000b0       __memset_nt_threshold      00000001400680b0     LIBCMTD:cpu_disp.obj
 0003:000000d0       __abort_behavior           00000001400680d0     libucrtd:abort.obj
 0003:000000d8       _crtDbgFlag                00000001400680d8     libucrtd:debug_heap.obj
 0003:000000dc       _crtBreakAlloc             00000001400680dc     libucrtd:debug_heap.obj
 0003:000000f0       _iob                       00000001400680f0     libucrtd:_file.obj
 0003:00000200       __acrt_initial_locale_data 0000000140068200     libucrtd:nlsdata.obj
 0003:00000358       __acrt_initial_locale_pointers 0000000140068358     libucrtd:nlsdata.obj
 0003:00000368       __acrt_wide_c_locale_string 0000000140068368     libucrtd:nlsdata.obj
 0003:00000380       __acrt_initial_multibyte_data 0000000140068380     libucrtd:mbctype.obj
 0003:000008c0       __acrt_lconv_c             00000001400688c0     libucrtd:localeconv.obj
 0003:00000958       __acrt_lconv_static_decimal 0000000140068958     libucrtd:localeconv.obj
 0003:0000095c       __acrt_lconv_static_W_decimal 000000014006895c     libucrtd:localeconv.obj
 0003:00000960       __globallocalestatus       0000000140068960     libucrtd:glstatus.obj
 0003:00000968       _pfnAllocHook              0000000140068968     libucrtd:debug_heap_hook.obj
 0003:00000970       _crtAssertBusy             0000000140068970     libucrtd:dbgrptt.obj
 0003:00000978       _CrtDbgMode                0000000140068978     libucrtd:dbgrptt.obj
 0003:00000988       _CrtDbgFile                0000000140068988     libucrtd:dbgrptt.obj
 0003:000009b0       _lookuptrailbytes          00000001400689b0     libucrtd:read.obj
 0003:00000ac0       ??_R0?AVbad_exception@std@@@8 0000000140068ac0     libvcruntimed:frame.obj
 0003:00000ae8       ??_R0?AVexception@std@@@8  0000000140068ae8     libvcruntimed:frame.obj
 0003:00000b10       ??_R0?AVtype_info@@@8      0000000140068b10     LIBCMTD:std_type_info_static.obj
 0003:00000b30       ?keymap@@3PAEA             0000000140068b30     main.obj
 0003:00000c30       ?input@@3PEAUInput@@EA     0000000140068c30     main.obj
 0003:00000c38       ?globals@@3PEAUGlobals@@EA 0000000140068c38     main.obj
 0003:00000c40       ?_OptionsStorage@?1??__local_stdio_printf_options@@9@4_KA 0000000140068c40     main.obj
 0003:00000c60       _tls_index                 0000000140068c60     LIBCMTD:tlssup.obj
 0003:000011e0       __scrt_current_native_startup_state 00000001400691e0     LIBCMTD:utility.obj
 0003:000011e8       __scrt_native_startup_lock 00000001400691e8     LIBCMTD:utility.obj
 0003:00001230       ?__type_info_root_node@@3U__type_info_node@@A 0000000140069230     LIBCMTD:tncleanup.obj
 0003:00001240       ?_OptionsStorage@?1??__local_stdio_scanf_options@@9@4_KA 0000000140069240     LIBCMTD:default_local_stdio_options.obj
 0003:00001248       __scrt_debugger_hook_flag  0000000140069248     LIBCMTD:utility_desktop.obj
 0003:0000124c       __avx10_version            000000014006924c     LIBCMTD:cpu_disp.obj
 0003:00001250       __favor                    0000000140069250     LIBCMTD:cpu_disp.obj
 0003:00001258       ?__WinRTOutOfMemoryExceptionCallback@@3P6APEAXXZEA 0000000140069258     libvcruntimed:ehhelpers.obj
 0003:00001310       ?pArgList@UnDecorator@@0PEAVReplicator@@EA 0000000140069310     libvcruntimed:undname.obj
 0003:00001318       ?pZNameList@UnDecorator@@0PEAVReplicator@@EA 0000000140069318     libvcruntimed:undname.obj
 0003:00001320       ?pTemplateArgList@UnDecorator@@0PEAVReplicator@@EA 0000000140069320     libvcruntimed:undname.obj
 0003:00001328       ?gName@UnDecorator@@0PEBDEB 0000000140069328     libvcruntimed:undname.obj
 0003:00001330       ?name@UnDecorator@@0PEBDEB 0000000140069330     libvcruntimed:undname.obj
 0003:00001338       ?disableFlags@UnDecorator@@0KA 0000000140069338     libvcruntimed:undname.obj
 0003:0000133c       ?fExplicitTemplateParams@UnDecorator@@0_NA 000000014006933c     libvcruntimed:undname.obj
 0003:0000133d       ?fGetTemplateArgumentList@UnDecorator@@0_NA 000000014006933d     libvcruntimed:undname.obj
 0003:00001340       ?m_pGetParameter@UnDecorator@@0P6APEADJ@ZEA 0000000140069340     libvcruntimed:undname.obj
 0003:00001348       ?m_CHPENameOffset@UnDecorator@@0KA 0000000140069348     libvcruntimed:undname.obj
 0003:0000134c       ?m_recursionLevel@UnDecorator@@0KA 000000014006934c     libvcruntimed:undname.obj
 0003:000013b8       __pPurecall                00000001400693b8     libvcruntimed:purevirt_data.obj
 0003:00001b08       _environ_table             0000000140069b08     libucrtd:environment_initialization.obj
 0003:00001b10       _wenviron_table            0000000140069b10     libucrtd:environment_initialization.obj
 0003:00001b18       __dcrt_initial_wide_environment 0000000140069b18     libucrtd:environment_initialization.obj
 0003:00001b20       __dcrt_initial_narrow_environment 0000000140069b20     libucrtd:environment_initialization.obj
 0003:00001b38       ?c_exit_complete@?1???R<lambda_6e4b09c48022b2350581041d5f6b0c4c>@@QEBA@XZ@4_NA 0000000140069b38     libucrtd:exit.obj
 0003:00001b3c       __acrt_locale_changed_data 0000000140069b3c     libucrtd:wsetlocale.obj
 0003:00001b44       _commode                   0000000140069b44     libucrtd:ncommode.obj
 0003:00001b48       __acrt_atexit_table        0000000140069b48     libucrtd:onexit.obj
 0003:00001b60       __acrt_at_quick_exit_table 0000000140069b60     libucrtd:onexit.obj
 0003:00001ba8       _pfnDumpClient             0000000140069ba8     libucrtd:debug_heap.obj
 0003:00001bc8       _nstream                   0000000140069bc8     libucrtd:_file.obj
 0003:00001bd0       __piob                     0000000140069bd0     libucrtd:_file.obj
 0003:00001be0       __acrt_stdout_buffer       0000000140069be0     libucrtd:_sftbuf.obj
 0003:00001be8       __acrt_stderr_buffer       0000000140069be8     libucrtd:_sftbuf.obj
 0003:00001bf0       __acrt_current_locale_data 0000000140069bf0     libucrtd:nlsdata.obj
 0003:00001c00       __pioinfo                  0000000140069c00     libucrtd:ioinit.obj
 0003:00002000       _nhandle                   000000014006a000     libucrtd:ioinit.obj
 0003:00002004       __fma3_is_available        000000014006a004     libucrtd:fma3_available.obj
 0003:00002008       __use_fma3_lib             000000014006a008     libucrtd:fma3_available.obj
 0003:00002010       _mbctype                   000000014006a010     libucrtd:mbctype.obj
 0003:00002018       _mbcasemap                 000000014006a018     libucrtd:mbctype.obj
 0003:00002020       __acrt_current_multibyte_data 000000014006a020     libucrtd:mbctype.obj
 0003:00002030       _pgmptr                    000000014006a030     libucrtd:argv_data.obj
 0003:00002038       __argc                     000000014006a038     libucrtd:argv_data.obj
 0003:00002040       __argv                     000000014006a040     libucrtd:argv_data.obj
 0003:00002048       __wargv                    000000014006a048     libucrtd:argv_data.obj
 0003:00002050       _acmdln                    000000014006a050     libucrtd:argv_data.obj
 0003:00002058       _wcmdln                    000000014006a058     libucrtd:argv_data.obj
 0003:0000229c       _fmode                     000000014006a29c     libucrtd:txtmode.obj
 0003:00002430       __acrt_lconv_static_null   000000014006a430     libucrtd:localeconv.obj
 0003:00002434       __acrt_lconv_static_W_null 000000014006a434     libucrtd:localeconv.obj
 0003:00002438       __acrt_heap                000000014006a438     libucrtd:heap_handle.obj
 0003:00002468       _pfnReportHook             000000014006a468     libucrtd:dbgrptt.obj
 0003:00002470       _pReportHookList           000000014006a470     libucrtd:dbgrptt.obj
 0003:00002478       _pReportHookListW          000000014006a478     libucrtd:dbgrptt.obj
 0003:00002490       __scrt_ucrt_dll_is_in_use  000000014006a490     <common>
 0003:00002498       __dyn_tls_dtor_callback    000000014006a498     <common>
 0003:000024a0       __dyn_tls_init_callback    000000014006a4a0     <common>

 entry point at        0001:0000cca0

 Static symbols

 0000:fff90000       .debug$S                   0000000140000000     gdi32:GDI32.dll
 0000:fff90000       .debug$S                   0000000140000000     gdi32:GDI32.dll
 0000:fff90000       .debug$S                   0000000140000000     gdi32:GDI32.dll
 0000:fff90000       .debug$S                   0000000140000000     gdi32:GDI32.dll
 0000:fff90000       .debug$S                   0000000140000000     gdi32:GDI32.dll
 0000:fff90000       .debug$S                   0000000140000000     gdi32:GDI32.dll
 0000:fff90000       .debug$S                   0000000140000000     gdi32:GDI32.dll
 0000:fff90000       .debug$S                   0000000140000000     gdi32:GDI32.dll
 0000:fff90000       .debug$S                   0000000140000000     gdi32:GDI32.dll
 0000:fff90000       .debug$S                   0000000140000000     gdi32:GDI32.dll
 0000:fff90000       .debug$S                   0000000140000000     gdi32:GDI32.dll
 0000:fff90000       .debug$S                   0000000140000000     gdi32:GDI32.dll
 0000:fff90000       .debug$S                   0000000140000000     gdi32:GDI32.dll
 0000:fff90000       .debug$S                   0000000140000000     gdi32:GDI32.dll
 0000:fff90000       .debug$S                   0000000140000000     kernel32:KERNEL32.dll
 0000:fff90000       .debug$S                   0000000140000000     kernel32:KERNEL32.dll
 0000:fff90000       .debug$S                   0000000140000000     kernel32:KERNEL32.dll
 0000:fff90000       .debug$S                   0000000140000000     kernel32:KERNEL32.dll
 0000:fff90000       .debug$S                   0000000140000000     kernel32:KERNEL32.dll
 0000:fff90000       .debug$S                   0000000140000000     kernel32:KERNEL32.dll
 0000:fff90000       .debug$S                   0000000140000000     kernel32:KERNEL32.dll
 0000:fff90000       .debug$S                   0000000140000000     kernel32:KERNEL32.dll
 0000:fff90000       .debug$S                   0000000140000000     kernel32:KERNEL32.dll
 0000:fff90000       .debug$S                   0000000140000000     kernel32:KERNEL32.dll
 0000:fff90000       .debug$S                   0000000140000000     kernel32:KERNEL32.dll
 0000:fff90000       .debug$S                   0000000140000000     kernel32:KERNEL32.dll
 0000:fff90000       .debug$S                   0000000140000000     kernel32:KERNEL32.dll
 0000:fff90000       .debug$S                   0000000140000000     kernel32:KERNEL32.dll
 0000:fff90000       .debug$S                   0000000140000000     kernel32:KERNEL32.dll
 0000:fff90000       .debug$S                   0000000140000000     kernel32:KERNEL32.dll
 0000:fff90000       .debug$S                   0000000140000000     kernel32:KERNEL32.dll
 0000:fff90000       .debug$S                   0000000140000000     kernel32:KERNEL32.dll
 0000:fff90000       .debug$S                   0000000140000000     kernel32:KERNEL32.dll
 0000:fff90000       .debug$S                   0000000140000000     kernel32:KERNEL32.dll
 0000:fff90000       .debug$S                   0000000140000000     kernel32:KERNEL32.dll
 0000:fff90000       .debug$S                   0000000140000000     kernel32:KERNEL32.dll
 0000:fff90000       .debug$S                   0000000140000000     kernel32:KERNEL32.dll
 0000:fff90000       .debug$S                   0000000140000000     kernel32:KERNEL32.dll
 0000:fff90000       .debug$S                   0000000140000000     kernel32:KERNEL32.dll
 0000:fff90000       .debug$S                   0000000140000000     kernel32:KERNEL32.dll
 0000:fff90000       .debug$S                   0000000140000000     kernel32:KERNEL32.dll
 0000:fff90000       .debug$S                   0000000140000000     kernel32:KERNEL32.dll
 0000:fff90000       .debug$S                   0000000140000000     kernel32:KERNEL32.dll
 0000:fff90000       .debug$S                   0000000140000000     kernel32:KERNEL32.dll
 0000:fff90000       .debug$S                   0000000140000000     kernel32:KERNEL32.dll
 0000:fff90000       .debug$S                   0000000140000000     kernel32:KERNEL32.dll
 0000:fff90000       .debug$S                   0000000140000000     kernel32:KERNEL32.dll
 0000:fff90000       .debug$S                   0000000140000000     kernel32:KERNEL32.dll
 0000:fff90000       .debug$S                   0000000140000000     kernel32:KERNEL32.dll
 0000:fff90000       .debug$S                   0000000140000000     kernel32:KERNEL32.dll
 0000:fff90000       .debug$S                   0000000140000000     kernel32:KERNEL32.dll
 0000:fff90000       .debug$S                   0000000140000000     kernel32:KERNEL32.dll
 0000:fff90000       .debug$S                   0000000140000000     kernel32:KERNEL32.dll
 0000:fff90000       .debug$S                   0000000140000000     kernel32:KERNEL32.dll
 0000:fff90000       .debug$S                   0000000140000000     kernel32:KERNEL32.dll
 0000:fff90000       .debug$S                   0000000140000000     kernel32:KERNEL32.dll
 0000:fff90000       .debug$S                   0000000140000000     kernel32:KERNEL32.dll
 0000:fff90000       .debug$S                   0000000140000000     kernel32:KERNEL32.dll
 0000:fff90000       .debug$S                   0000000140000000     kernel32:KERNEL32.dll
 0000:fff90000       .debug$S                   0000000140000000     kernel32:KERNEL32.dll
 0000:fff90000       .debug$S                   0000000140000000     kernel32:KERNEL32.dll
 0000:fff90000       .debug$S                   0000000140000000     kernel32:KERNEL32.dll
 0000:fff90000       .debug$S                   0000000140000000     kernel32:KERNEL32.dll
 0000:fff90000       .debug$S                   0000000140000000     kernel32:KERNEL32.dll
 0000:fff90000       .debug$S                   0000000140000000     kernel32:KERNEL32.dll
 0000:fff90000       .debug$S                   0000000140000000     kernel32:KERNEL32.dll
 0000:fff90000       .debug$S                   0000000140000000     kernel32:KERNEL32.dll
 0000:fff90000       .debug$S                   0000000140000000     kernel32:KERNEL32.dll
 0000:fff90000       .debug$S                   0000000140000000     kernel32:KERNEL32.dll
 0000:fff90000       .debug$S                   0000000140000000     kernel32:KERNEL32.dll
 0000:fff90000       .debug$S                   0000000140000000     kernel32:KERNEL32.dll
 0000:fff90000       .debug$S                   0000000140000000     kernel32:KERNEL32.dll
 0000:fff90000       .debug$S                   0000000140000000     kernel32:KERNEL32.dll
 0000:fff90000       .debug$S                   0000000140000000     kernel32:KERNEL32.dll
 0000:fff90000       .debug$S                   0000000140000000     kernel32:KERNEL32.dll
 0000:fff90000       .debug$S                   0000000140000000     kernel32:KERNEL32.dll
 0000:fff90000       .debug$S                   0000000140000000     kernel32:KERNEL32.dll
 0000:fff90000       .debug$S                   0000000140000000     kernel32:KERNEL32.dll
 0000:fff90000       .debug$S                   0000000140000000     kernel32:KERNEL32.dll
 0000:fff90000       .debug$S                   0000000140000000     kernel32:KERNEL32.dll
 0000:fff90000       .debug$S                   0000000140000000     kernel32:KERNEL32.dll
 0000:fff90000       .debug$S                   0000000140000000     kernel32:KERNEL32.dll
 0000:fff90000       .debug$S                   0000000140000000     kernel32:KERNEL32.dll
 0000:fff90000       .debug$S                   0000000140000000     kernel32:KERNEL32.dll
 0000:fff90000       .debug$S                   0000000140000000     kernel32:KERNEL32.dll
 0000:fff90000       .debug$S                   0000000140000000     kernel32:KERNEL32.dll
 0000:fff90000       .debug$S                   0000000140000000     kernel32:KERNEL32.dll
 0000:fff90000       .debug$S                   0000000140000000     kernel32:KERNEL32.dll
 0000:fff90000       .debug$S                   0000000140000000     kernel32:KERNEL32.dll
 0000:fff90000       .debug$S                   0000000140000000     kernel32:KERNEL32.dll
 0000:fff90000       .debug$S                   0000000140000000     kernel32:KERNEL32.dll
 0000:fff90000       .debug$S                   0000000140000000     kernel32:KERNEL32.dll
 0000:fff90000       .debug$S                   0000000140000000     kernel32:KERNEL32.dll
 0000:fff90000       .debug$S                   0000000140000000     kernel32:KERNEL32.dll
 0000:fff90000       .debug$S                   0000000140000000     kernel32:KERNEL32.dll
 0000:fff90000       .debug$S                   0000000140000000     kernel32:KERNEL32.dll
 0000:fff90000       .debug$S                   0000000140000000     kernel32:KERNEL32.dll
 0000:fff90000       .debug$S                   0000000140000000     kernel32:KERNEL32.dll
 0000:fff90000       .debug$S                   0000000140000000     kernel32:KERNEL32.dll
 0000:fff90000       .debug$S                   0000000140000000     kernel32:KERNEL32.dll
 0000:fff90000       .debug$S                   0000000140000000     kernel32:KERNEL32.dll
 0000:fff90000       .debug$S                   0000000140000000     kernel32:KERNEL32.dll
 0000:fff90000       .debug$S                   0000000140000000     kernel32:KERNEL32.dll
 0000:fff90000       .debug$S                   0000000140000000     kernel32:KERNEL32.dll
 0000:fff90000       .debug$S                   0000000140000000     kernel32:KERNEL32.dll
 0000:fff90000       .debug$S                   0000000140000000     kernel32:KERNEL32.dll
 0000:fff90000       .debug$S                   0000000140000000     kernel32:KERNEL32.dll
 0000:fff90000       .debug$S                   0000000140000000     kernel32:KERNEL32.dll
 0000:fff90000       .debug$S                   0000000140000000     kernel32:KERNEL32.dll
 0000:fff90000       .debug$S                   0000000140000000     kernel32:KERNEL32.dll
 0000:fff90000       .debug$S                   0000000140000000     kernel32:KERNEL32.dll
 0000:fff90000       .debug$S                   0000000140000000     kernel32:KERNEL32.dll
 0000:fff90000       .debug$S                   0000000140000000     kernel32:KERNEL32.dll
 0000:fff90000       .debug$S                   0000000140000000     kernel32:KERNEL32.dll
 0000:fff90000       .debug$S                   0000000140000000     user32:USER32.dll
 0000:fff90000       .debug$S                   0000000140000000     user32:USER32.dll
 0000:fff90000       .debug$S                   0000000140000000     user32:USER32.dll
 0000:fff90000       .debug$S                   0000000140000000     user32:USER32.dll
 0000:fff90000       .debug$S                   0000000140000000     user32:USER32.dll
 0000:fff90000       .debug$S                   0000000140000000     user32:USER32.dll
 0000:fff90000       .debug$S                   0000000140000000     user32:USER32.dll
 0000:fff90000       .debug$S                   0000000140000000     user32:USER32.dll
 0000:fff90000       .debug$S                   0000000140000000     user32:USER32.dll
 0000:fff90000       .debug$S                   0000000140000000     user32:USER32.dll
 0000:fff90000       .debug$S                   0000000140000000     user32:USER32.dll
 0000:fff90000       .debug$S                   0000000140000000     user32:USER32.dll
 0000:fff90000       .debug$S                   0000000140000000     user32:USER32.dll
 0000:fff90000       .debug$S                   0000000140000000     user32:USER32.dll
 0000:fff90000       .debug$S                   0000000140000000     user32:USER32.dll
 0000:fff90000       .debug$S                   0000000140000000     user32:USER32.dll
 0000:fff90000       .debug$S                   0000000140000000     user32:USER32.dll
 0000:fff90000       .debug$S                   0000000140000000     user32:USER32.dll
 0000:fff90000       .debug$S                   0000000140000000     user32:USER32.dll
 0000:fff90000       .debug$S                   0000000140000000     user32:USER32.dll
 0000:fff90000       .debug$S                   0000000140000000     user32:USER32.dll
 0000:fff90000       .debug$S                   0000000140000000     user32:USER32.dll
 0000:fff90000       .debug$S                   0000000140000000     user32:USER32.dll
 0000:fff90000       .debug$S                   0000000140000000     user32:USER32.dll
 0000:fff90000       .debug$S                   0000000140000000     user32:USER32.dll
 0000:fff90000       .debug$S                   0000000140000000     user32:USER32.dll
 0000:fff90000       .debug$S                   0000000140000000     winmm:WINMM.dll
 0001:00009ed0       ?get@?$__crt_unique_handle_t@Uenvironment_strings_traits@?A0x1bf47908@@@@QEBAPEA_WXZ 000000014000aed0 f i libucrtd:get_environment_from_os.obj
 0001:00009ed0       ?begin@?$argument_list@D@?A0x5f5c8891@@QEBAPEAPEADXZ 000000014000aed0 f i libucrtd:argv_wildcards.obj
 0001:0000c8e0       $$000000                   000000014000d8e0     LIBCMTD:amdsecgs.obj
 0001:0000c910       ?pre_c_initialization@@YAHXZ 000000014000d910 f   LIBCMTD:exe_winmain.obj
 0001:0000c9d0       ?post_pgo_initialization@@YAHXZ 000000014000d9d0 f   LIBCMTD:exe_winmain.obj
 0001:0000c9e0       ?pre_cpp_initialization@@YAXXZ 000000014000d9e0 f   LIBCMTD:exe_winmain.obj
 0001:0000ca00       ?__scrt_common_main@@YAHXZ 000000014000da00 f   LIBCMTD:exe_winmain.obj
 0001:0000ca20       ?__scrt_common_main_seh@@YAHXZ 000000014000da20 f   LIBCMTD:exe_winmain.obj
 0001:0000cc00       ?invoke_main@@YAHXZ        000000014000dc00 f   LIBCMTD:exe_winmain.obj
 0001:0000cea0       capture_current_context    000000014000dea0 f   LIBCMTD:gs_report.obj
 0001:0000cf40       capture_previous_context   000000014000df40 f   LIBCMTD:gs_report.obj
 0001:0000d000       ?find_pe_section@@YAPEAU_IMAGE_SECTION_HEADER@@QEAE_K@Z 000000014000e000 f   LIBCMTD:utility.obj
 0001:0000d0d0       ?is_potentially_valid_image_base@@YA_NQEAX@Z 000000014000e0d0 f   LIBCMTD:utility.obj
 0001:0000d500       __get_entropy              000000014000e500 f   LIBCMTD:gs_support.obj
 0001:0000d660       ?get_invalid_value@environment_strings_traits@?A0x1bf47908@@SAPEA_WXZ 000000014000e660 f   libucrtd:get_environment_from_os.obj
 0001:0000d6a0       initialize_environment     000000014000e6a0 f   libucrtd:initialization.obj
 0001:0000d6a0       initialize_global_state_isolation 000000014000e6a0 f   libucrtd:initialization.obj
 0001:0000d6b0       init_string_functions      000000014000e6b0 f   libvcruntimed:initialization.obj
 0001:0000e190       ??$SehTransFilter@V__FrameHandler3@@@@YAHPEAU_EXCEPTION_POINTERS@@PEAUEHExceptionRecord@@PEA_KPEAU_CONTEXT@@PEAU_xDISPATCHER_CONTEXT@@PEBU_s_FuncInfo@@HPEAH@Z 000000014000f190 f   libvcruntimed:risctrnsctrl.obj
 0001:0000e260       ??$SehTransFilter@V__FrameHandler4@@@@YAHPEAU_EXCEPTION_POINTERS@@PEAUEHExceptionRecord@@PEA_KPEAU_CONTEXT@@PEAU_xDISPATCHER_CONTEXT@@PEAUFuncInfo4@FH4@@HPEAH@Z 000000014000f260 f   libvcruntimed:risctrnsctrl.obj
 0001:0000fdf0       ??0?$__crt_unique_handle_t@Uenvironment_strings_traits@?A0x1bf47908@@@@QEAA@QEA_W@Z 0000000140010df0 f i libucrtd:get_environment_from_os.obj
 0001:0000fdf0       ??0<lambda_8d0ee55de4b1038c4002e0adecdf1839>@@QEAA@AEBQEAU__acrt_ptd@@@Z 0000000140010df0 f i libucrtd:per_thread_data.obj
 0001:0000fdf0       ??0<lambda_8f455de75cd7d7f24b4096f044d8b9e6>@@QEAA@AEBQEAU__acrt_ptd@@@Z 0000000140010df0 f i libucrtd:per_thread_data.obj
 0001:0000fdf0       ??0<lambda_e157831efee4ea0afb0a2ace5dd5fd0d>@@QEAA@AEBQEAU__acrt_ptd@@@Z 0000000140010df0 f i libucrtd:per_thread_data.obj
 0001:0000fdf0       ??0<lambda_3e4146214822e0ea86c47ff907aef2ff>@@QEAA@AEBH@Z 0000000140010df0 f i libucrtd:commit.obj
 0001:0000fdf0       ??0<lambda_df1553121bfa390f1154bd84936f2730>@@QEAA@AEAV?$__crt_unique_heap_ptr@PEADU__crt_internal_free_policy@@@@@Z 0000000140010df0 f i libucrtd:argv_parsing.obj
 0001:0000fdf0       ??0<lambda_d121dba8a4adeaf3a9819e48611155df>@@QEAA@AEBQEAU_onexit_table_t@@@Z 0000000140010df0 f i libucrtd:onexit.obj
 0001:00010050       ?_FilterSetCurrentException@@YAKPEAU_EXCEPTION_POINTERS@@E@Z 0000000140011050 f   libvcruntimed:ehhelpers.obj
 0001:000102b0       ??0scoped_get_last_error_reset@?A0xf875a351@@QEAA@XZ 00000001400112b0 f   libvcruntimed:per_thread_data.obj
 0001:000102d0       ??1scoped_get_last_error_reset@?A0xf875a351@@QEAA@XZ 00000001400112d0 f   libvcruntimed:per_thread_data.obj
 0001:00010320       ?store_and_initialize_ptd@@YA_NQEAU__vcrt_ptd@@@Z 0000000140011320 f   libvcruntimed:per_thread_data.obj
 0001:00010a00       ?adjustIp@@YA_KPEAU_xDISPATCHER_CONTEXT@@_K@Z 0000000140011a00 f   libvcruntimed:ehstate.obj
 0001:00010a10       ??$BuildCatchObjectHelperInternal@V__FrameHandler3@@@@YAHPEAUEHExceptionRecord@@PEAXPEBU_s_HandlerType@@PEBU_s_CatchableType@@@Z 0000000140011a10 f   libvcruntimed:frame.obj
 0001:00010e00       ??$BuildCatchObjectHelperInternal@V__FrameHandler4@@@@YAHPEAUEHExceptionRecord@@PEAXPEAUHandlerType4@FH4@@PEBU_s_CatchableType@@@Z 0000000140011e00 f   libvcruntimed:frame.obj
 0001:000111f0       ??$BuildCatchObjectInternal@V__FrameHandler3@@@@YAXPEAUEHExceptionRecord@@PEAXPEBU_s_HandlerType@@PEBU_s_CatchableType@@@Z 00000001400121f0 f   libvcruntimed:frame.obj
 0001:00011340       ??$BuildCatchObjectInternal@V__FrameHandler4@@@@YAXPEAUEHExceptionRecord@@PEAXPEAUHandlerType4@FH4@@PEBU_s_CatchableType@@@Z 0000000140012340 f   libvcruntimed:frame.obj
 0001:00011490       ??$CatchIt@V__FrameHandler3@@@@YAXPEAUEHExceptionRecord@@PEA_KPEAU_CONTEXT@@PEAU_xDISPATCHER_CONTEXT@@PEBU_s_FuncInfo@@PEBU_s_HandlerType@@PEBU_s_CatchableType@@PEBU_s_TryBlockMapEntry@@H1EE@Z 0000000140012490 f   libvcruntimed:frame.obj
 0001:000115d0       ??$CatchIt@V__FrameHandler4@@@@YAXPEAUEHExceptionRecord@@PEA_KPEAU_CONTEXT@@PEAU_xDISPATCHER_CONTEXT@@PEAUFuncInfo4@FH4@@PEAUHandlerType4@4@PEBU_s_CatchableType@@PEAUTryBlockMapEntry4@4@H1EE@Z 00000001400125d0 f   libvcruntimed:frame.obj
 0001:00011710       ??$FindHandler@V__FrameHandler3@@@@YAXPEAUEHExceptionRecord@@PEA_KPEAU_CONTEXT@@PEAU_xDISPATCHER_CONTEXT@@PEBU_s_FuncInfo@@EH1@Z 0000000140012710 f   libvcruntimed:frame.obj
 0001:00011ef0       ??$FindHandler@V__FrameHandler4@@@@YAXPEAUEHExceptionRecord@@PEA_KPEAU_CONTEXT@@PEAU_xDISPATCHER_CONTEXT@@PEAUFuncInfo4@FH4@@EH1@Z 0000000140012ef0 f   libvcruntimed:frame.obj
 0001:000125b0       ??$FindHandlerForForeignException@V__FrameHandler3@@@@YAXPEAUEHExceptionRecord@@PEA_KPEAU_CONTEXT@@PEAU_xDISPATCHER_CONTEXT@@PEBU_s_FuncInfo@@HH1@Z 00000001400135b0 f   libvcruntimed:frame.obj
 0001:00012910       ??$FindHandlerForForeignException@V__FrameHandler4@@@@YAXPEAUEHExceptionRecord@@PEA_KPEAU_CONTEXT@@PEAU_xDISPATCHER_CONTEXT@@PEAUFuncInfo4@FH4@@HH1@Z 0000000140013910 f   libvcruntimed:frame.obj
 0001:00013cc0       ??0<lambda_92619d2358a28f41a33ba319515a20b9>@@QEAA@AEBQEAU__acrt_ptd@@AEBQEAPEAU__crt_locale_data@@@Z 0000000140014cc0 f i libucrtd:per_thread_data.obj
 0001:00013cc0       ??0<lambda_af29824b49a67d335554598d6cad2be6>@@QEAA@AEBHAEAV__crt_cached_ptd_host@@@Z 0000000140014cc0 f i libucrtd:close.obj
 0001:00013cc0       ??0<lambda_bd5a608237428601b7e45fbdc72b1ae8>@@QEAA@AEBQEAU__acrt_ptd@@AEBQEAPEAU__crt_multibyte_data@@@Z 0000000140014cc0 f i libucrtd:mbctype.obj
 0001:00013cc0       ??0<lambda_208ce30acdd7200aa596f2796f4d5154>@@QEAA@AEBQEAU_onexit_table_t@@AEBQ6AHXZ@Z 0000000140014cc0 f i libucrtd:onexit.obj
 0001:00014c20       ?ExFilterRethrow@@YAHPEAU_EXCEPTION_POINTERS@@PEAUEHExceptionRecord@@PEAH@Z 0000000140015c20 f   libvcruntimed:frame.obj
 0001:00014d20       ?ExFilterRethrowFH4@@YAHPEAU_EXCEPTION_POINTERS@@PEAUEHExceptionRecord@@HPEAH@Z 0000000140015d20 f   libvcruntimed:frame.obj
 0001:00015490       ?IsInExceptionSpec@@YAEPEAUEHExceptionRecord@@PEBU_s_ESTypeList@@@Z 0000000140016490 f   libvcruntimed:frame.obj
 0001:000155b0       ?Is_bad_exception_allowed@@YAEPEBU_s_ESTypeList@@@Z 00000001400165b0 f   libvcruntimed:frame.obj
 0001:000158d0       ?__RethrowException@@YAXPEAUEHExceptionRecord@@@Z 00000001400168d0 f   libvcruntimed:frame.obj
 0001:00015ed0       $$000000                   0000000140016ed0     libvcruntimed:notify.obj
 0001:00015ef0       $$000000                   0000000140016ef0     libvcruntimed:notify.obj
 0001:00015f00       $$000000                   0000000140016f00     libvcruntimed:notify.obj
 0001:00016150       ?invalid_function_sentinel@@YAPEAXXZ 0000000140017150 f   libucrtd:winapi_thunks.obj
 0001:00016150       ?invalid_function_sentinel@@YAPEAXXZ 0000000140017150 f   libvcruntimed:winapi_downlevel.obj
 0001:00016160       ?try_get_FlsAlloc@@YAP6AKP6AXPEAX@Z@ZXZ 0000000140017160 f   libvcruntimed:winapi_downlevel.obj
 0001:00016190       ?try_get_FlsFree@@YAP6AHK@ZXZ 0000000140017190 f   libvcruntimed:winapi_downlevel.obj
 0001:000161c0       ?try_get_FlsGetValue@@YAP6APEAXK@ZXZ 00000001400171c0 f   libvcruntimed:winapi_downlevel.obj
 0001:000161f0       ?try_get_FlsSetValue@@YAP6AHKPEAX@ZXZ 00000001400171f0 f   libvcruntimed:winapi_downlevel.obj
 0001:00016220       ?try_get_InitializeCriticalSectionEx@@YAP6AHPEAU_RTL_CRITICAL_SECTION@@KK@ZXZ 0000000140017220 f   libvcruntimed:winapi_downlevel.obj
 0001:00016250       ?try_get_first_available_module@@YAPEAUHINSTANCE__@@QEBW4module_id@?A0x14174aea@@0@Z 0000000140017250 f   libvcruntimed:winapi_downlevel.obj
 0001:000162b0       ?try_get_function@@YAPEAXW4function_id@?A0x14174aea@@QEBDQEBW4module_id@2@2@Z 00000001400172b0 f   libvcruntimed:winapi_downlevel.obj
 0001:00016420       ?try_get_module@@YAPEAUHINSTANCE__@@W4module_id@?A0x14174aea@@@Z 0000000140017420 f   libvcruntimed:winapi_downlevel.obj
 0001:00016580       ?try_get_proc_address_from_first_available_module@@YAPEAXQEBDQEBW4module_id@?A0x14174aea@@1@Z 0000000140017580 f   libvcruntimed:winapi_downlevel.obj
 0001:000165d0       ?try_load_library_from_system_directory@@YAPEAUHINSTANCE__@@QEB_W@Z 00000001400175d0 f   libvcruntimed:winapi_downlevel.obj
 0001:00016840       $$000000                   0000000140017840     libvcruntimed:handlers.obj
 0001:00016880       $$000000                   0000000140017880     libvcruntimed:handlers.obj
 0001:000168b0       $$000000                   00000001400178b0     libvcruntimed:handlers.obj
 0001:000168e0       $$000000                   00000001400178e0     libvcruntimed:handlers.obj
 0001:00016ea0       ??$common_vsnprintf_s@D@@YAH_KQEAD00QEBDAEAV__crt_cached_ptd_host@@1@Z 0000000140017ea0 f   libucrtd:output.obj
 0001:00017580       ??$common_vsnprintf_s@_W@@YAH_KQEA_W00QEB_WAEAV__crt_cached_ptd_host@@QEAD@Z 0000000140018580 f   libucrtd:output.obj
 0001:00017c70       ??$common_vsprintf@Vformat_validation_base@__crt_stdio_output@@D@@YAH_KQEAD0QEBDAEAV__crt_cached_ptd_host@@1@Z 0000000140018c70 f   libucrtd:output.obj
 0001:00018130       ??$common_vsprintf@Vformat_validation_base@__crt_stdio_output@@_W@@YAH_KQEA_W0QEB_WAEAV__crt_cached_ptd_host@@QEAD@Z 0000000140019130 f   libucrtd:output.obj
 0001:000185e0       ??$common_vsprintf@Vstandard_base@__crt_stdio_output@@D@@YAH_KQEAD0QEBDAEAV__crt_cached_ptd_host@@1@Z 00000001400195e0 f   libucrtd:output.obj
 0001:00018aa0       ??$common_vsprintf_s@D@@YAH_KQEAD0QEBDAEAV__crt_cached_ptd_host@@1@Z 0000000140019aa0 f   libucrtd:output.obj
 0001:0001f074       $LN39                      0000000140020074     libucrtd:output.obj
 0001:0001f434       $LN39                      0000000140020434     libucrtd:output.obj
 0001:0001f7f8       $LN39                      00000001400207f8     libucrtd:output.obj
 0001:0002071c       $LN54                      000000014002171c     libucrtd:output.obj
 0001:00020744       $LN53                      0000000140021744     libucrtd:output.obj
 0001:00020bdc       $LN54                      0000000140021bdc     libucrtd:output.obj
 0001:00020c04       $LN53                      0000000140021c04     libucrtd:output.obj
 0001:0002109c       $LN54                      000000014002209c     libucrtd:output.obj
 0001:000210c4       $LN53                      00000001400220c4     libucrtd:output.obj
 0001:00021558       $LN44                      0000000140022558     libucrtd:output.obj
 0001:00021588       $LN43                      0000000140022588     libucrtd:output.obj
 0001:00021a18       $LN44                      0000000140022a18     libucrtd:output.obj
 0001:00021a48       $LN43                      0000000140022a48     libucrtd:output.obj
 0001:00021f9c       $LN44                      0000000140022f9c     libucrtd:output.obj
 0001:00021fcc       $LN43                      0000000140022fcc     libucrtd:output.obj
 0001:00022270       $LN19                      0000000140023270     libucrtd:output.obj
 0001:00025670       $$000000                   0000000140026670     libucrtd:cosf.obj
 0001:00025b70       $$000000                   0000000140026b70     libucrtd:sinf.obj
 0001:000263b0       $$000000                   00000001400273b0     libucrtd:tanf.obj
 0001:00026a30       ?xcptlookup@@YAPEAU__crt_signal_action_t@@KQEAU1@@Z 0000000140027a30 f   libucrtd:exception_filter.obj
 0001:00026d4c       $LN33                      0000000140027d4c     libucrtd:exception_filter.obj
 0001:00026d70       ?issue_debug_notification@@YA_NQEB_W@Z 0000000140027d70 f   libucrtd:report_runtime_error.obj
 0001:00026dd0       ?should_write_error_to_console@@YA_NXZ 0000000140027dd0 f   libucrtd:report_runtime_error.obj
 0001:00026e10       ?write_string_to_console@@YAXQEB_W@Z 0000000140027e10 f   libucrtd:report_runtime_error.obj
 0001:00027480       ??$common_configure_argv@D@@YAHW4_crt_argv_mode@@@Z 0000000140028480 f   libucrtd:argv_parsing.obj
 0001:00027850       ??$parse_command_line@D@@YAXPEADPEAPEAD0PEA_K2@Z 0000000140028850 f   libucrtd:argv_parsing.obj
 0001:00027d60       ??R<lambda_df1553121bfa390f1154bd84936f2730>@@QEBAHXZ 0000000140028d60 f   libucrtd:argv_parsing.obj
 0001:00027dc0       ?pre_initialize@@YAXD@Z    0000000140028dc0 f   libucrtd:environment_initialization.obj
 0001:00027dc0       ?do_locale_initialization@@YAXD@Z 0000000140028dc0 f   libucrtd:argv_parsing.obj
 0001:00027dc0       ?do_locale_initialization@@YAXE@Z 0000000140028dc0 f   libucrtd:argv_winmain.obj
 0001:00027de0       ?expand_argv_wildcards@@YAHQEAPEADQEAPEAPEAD@Z 0000000140028de0 f   libucrtd:argv_parsing.obj
 0001:00027e20       ?get_argv@@YAAEAPEAPEADD@Z 0000000140028e20 f   libucrtd:argv_parsing.obj
 0001:00027e30       ?get_command_line@@YAPEADD@Z 0000000140028e30 f   libucrtd:argv_parsing.obj
 0001:00027e30       ?get_command_line@@YAPEAEE@Z 0000000140028e30 f   libucrtd:argv_winmain.obj
 0001:00027e70       ?should_copy_another_character@@YA_ND@Z 0000000140028e70 f   libucrtd:argv_parsing.obj
 0001:00028010       ??$common_initialize_environment_nolock@D@@YAHXZ 0000000140029010 f   libucrtd:environment_initialization.obj
 0001:00028130       ??$count_variables_in_environment_block@D@@YA?B_KQEAD@Z 0000000140029130 f   libucrtd:environment_initialization.obj
 0001:000281b0       ??$create_environment@D@@YAQEAPEADQEAD@Z 00000001400291b0 f   libucrtd:environment_initialization.obj
 0001:000283c0       ??$free_environment@D@@YAXQEAPEAD@Z 00000001400293c0 f   libucrtd:environment_initialization.obj
 0001:000283c0       ??$free_environment@_W@@YAXQEAPEA_W@Z 00000001400293c0 f   libucrtd:environment_initialization.obj
 0001:00028590       ??$uninitialize_environment_internal@D@@YAXAEAPEAPEAD@Z 0000000140029590 f   libucrtd:environment_initialization.obj
 0001:000285d0       ??$uninitialize_environment_internal@_W@@YAXAEAPEAPEA_W@Z 00000001400295d0 f   libucrtd:environment_initialization.obj
 0001:00028610       ?get_dual_state_environment_nolock@@YAAEAV?$dual_state_global@PEAPEAD@__crt_state_management@@D@Z 0000000140029610 f   libucrtd:environment_initialization.obj
 0001:00028620       ?get_environment_nolock@@YAAEAPEAPEADD@Z 0000000140029620 f   libucrtd:environment_initialization.obj
 0001:00028640       ?get_initial_environment@@YAAEAPEAPEADD@Z 0000000140029640 f   libucrtd:environment_initialization.obj
 0001:00028650       ?get_initial_environment@@YAAEAPEAPEA_W_W@Z 0000000140029650 f   libucrtd:environment_initialization.obj
 0001:000286c0       ??$common_wincmdln@E@@YAPEAEXZ 00000001400296c0 f   libucrtd:argv_winmain.obj
 0001:000287c0       ?should_copy_another_character@@YA_NE@Z 00000001400297c0 f   libucrtd:argv_winmain.obj
 0001:00028920       ??$?RV<lambda_d80eeec6fff315bfe5c115232f3240e3>@@AEAV<lambda_6e4b09c48022b2350581041d5f6b0c4c>@@V<lambda_2358e3775559c9db80273638284d5e45>@@@?$__crt_seh_guarded_call@X@@QEAAX$$QEAV<lambda_d80eeec6fff315bfe5c115232f3240e3>@@AEAV<lambda_6e4b09c48022b2350581041d5f6b0c4c>@@$$QEAV<lambda_2358e3775559c9db80273638284d5e45>@@@Z 0000000140029920 f   libucrtd:exit.obj
 0001:00028960       ??$__acrt_lock_and_call@V<lambda_6e4b09c48022b2350581041d5f6b0c4c>@@@@YAXW4__acrt_lock_id@@$$QEAV<lambda_6e4b09c48022b2350581041d5f6b0c4c>@@@Z 0000000140029960 f   libucrtd:exit.obj
 0001:000289f0       ??0<lambda_04ddeca75b7c13fd67716e8dfcef87ee>@@QEAA@AEBW4__acrt_lock_id@@@Z 00000001400299f0 f   libucrtd:per_thread_data.obj
 0001:000289f0       ??0<lambda_0ae27a3a962d80f24befdcbee591983d>@@QEAA@AEBW4__acrt_lock_id@@@Z 00000001400299f0 f   libucrtd:per_thread_data.obj
 0001:000289f0       ??0<lambda_2d41944a1d46af3157314b8a01080d33>@@QEAA@AEBW4__acrt_lock_id@@@Z 00000001400299f0 f   libucrtd:per_thread_data.obj
 0001:000289f0       ??0<lambda_6992ecaafeb10aed2b74cb1fae11a551>@@QEAA@AEBW4__acrt_lock_id@@@Z 00000001400299f0 f   libucrtd:per_thread_data.obj
 0001:000289f0       ??0<lambda_74a0ef281e44d15e1136f792f539efb3>@@QEAA@AEBW4__acrt_lock_id@@@Z 00000001400299f0 f   libucrtd:per_thread_data.obj
 0001:000289f0       ??0<lambda_aa500f224e6afead328df44964fe2772>@@QEAA@AEBW4__acrt_lock_id@@@Z 00000001400299f0 f   libucrtd:per_thread_data.obj
 0001:000289f0       ??0<lambda_aa87e3671a710a21b5dc78c0bdf72e11>@@QEAA@AEBW4__acrt_lock_id@@@Z 00000001400299f0 f   libucrtd:per_thread_data.obj
 0001:000289f0       ??0<lambda_dc504788e8f1664fe9b84e20bfb512f2>@@QEAA@AEBW4__acrt_lock_id@@@Z 00000001400299f0 f   libucrtd:per_thread_data.obj
 0001:000289f0       ??0<lambda_38119f0e861e05405d8a144b9b982f0a>@@QEAA@AEBW4__acrt_lock_id@@@Z 00000001400299f0 f   libucrtd:wsetlocale.obj
 0001:000289f0       ??0<lambda_410d79af7f07d98d83a3f525b3859a53>@@QEAA@AEBW4__acrt_lock_id@@@Z 00000001400299f0 f   libucrtd:wsetlocale.obj
 0001:000289f0       ??0<lambda_19eaff14c5fe7be5b1b106a862eb1091>@@QEAA@AEBH@Z 00000001400299f0 f   libucrtd:close.obj
 0001:000289f0       ??0<lambda_3ce37f5b621ab310299ea5f68cbdf3bb>@@QEAA@AEBH@Z 00000001400299f0 f   libucrtd:close.obj
 0001:000289f0       ??0<lambda_7d29013d608e9f25a034de83c9b9e983>@@QEAA@AEBH@Z 00000001400299f0 f   libucrtd:commit.obj
 0001:000289f0       ??0<lambda_b869e5a4e1069fcb5c3da79c0d999133>@@QEAA@AEBH@Z 00000001400299f0 f   libucrtd:commit.obj
 0001:000289f0       ??0<lambda_728235dc0fc2b1f82d1fa5b3e7102d8f>@@QEAA@AEBW4__acrt_lock_id@@@Z 00000001400299f0 f   libucrtd:mbctype.obj
 0001:000289f0       ??0<lambda_efa02eb69bf647d2f7ff0dd6f1103f72>@@QEAA@AEBW4__acrt_lock_id@@@Z 00000001400299f0 f   libucrtd:mbctype.obj
 0001:000289f0       ??0<lambda_450d765d439847d4c735a33c368b5fc0>@@QEAA@AEBW4__acrt_lock_id@@@Z 00000001400299f0 f   libucrtd:signal.obj
 0001:000289f0       ??0<lambda_601a2a7da3b7a96e9554ac7215c4b07c>@@QEAA@AEBW4__acrt_lock_id@@@Z 00000001400299f0 f   libucrtd:signal.obj
 0001:000289f0       ??0<lambda_2358e3775559c9db80273638284d5e45>@@QEAA@AEBW4__acrt_lock_id@@@Z 00000001400299f0 f   libucrtd:exit.obj
 0001:000289f0       ??0<lambda_d80eeec6fff315bfe5c115232f3240e3>@@QEAA@AEBW4__acrt_lock_id@@@Z 00000001400299f0 f   libucrtd:exit.obj
 0001:000289f0       ??0<lambda_6a47f4c8fd0152770a780fc1d70204eb>@@QEAA@AEBW4__acrt_lock_id@@@Z 00000001400299f0 f   libucrtd:onexit.obj
 0001:000289f0       ??0<lambda_6aaa2265f5b6a89667e7d7630012e97a>@@QEAA@AEBW4__acrt_lock_id@@@Z 00000001400299f0 f   libucrtd:onexit.obj
 0001:000289f0       ??0<lambda_80060f20ac3990516b753a27f211934c>@@QEAA@AEBW4__acrt_lock_id@@@Z 00000001400299f0 f   libucrtd:onexit.obj
 0001:000289f0       ??0<lambda_fd91b99c0687e8936f1d70d7d9b78e69>@@QEAA@AEBW4__acrt_lock_id@@@Z 00000001400299f0 f   libucrtd:onexit.obj
 0001:000289f0       ??0<lambda_886d6c58226a84441f68b9f2b8217b83>@@QEAA@AEBW4__acrt_lock_id@@@Z 00000001400299f0 f   libucrtd:fflush.obj
 0001:000289f0       ??0<lambda_f7f22ab5edc0698d5f6905b0d3f44752>@@QEAA@AEBW4__acrt_lock_id@@@Z 00000001400299f0 f   libucrtd:fflush.obj
 0001:00028a10       ??0<lambda_6e4b09c48022b2350581041d5f6b0c4c>@@QEAA@AEBW4_crt_exit_cleanup_mode@@AEBW4_crt_exit_return_mode@@AEA_N@Z 0000000140029a10 f   libucrtd:exit.obj
 0001:00028a10       ??0<lambda_ab61a845afdef5b7c387490eaf3616ee>@@QEAA@AEAHAEB_N0@Z 0000000140029a10 f   libucrtd:fflush.obj
 0001:00028a80       ??R<lambda_04ddeca75b7c13fd67716e8dfcef87ee>@@QEBAXXZ 0000000140029a80 f   libucrtd:per_thread_data.obj
 0001:00028a80       ??R<lambda_6992ecaafeb10aed2b74cb1fae11a551>@@QEBAXXZ 0000000140029a80 f   libucrtd:per_thread_data.obj
 0001:00028a80       ??R<lambda_aa500f224e6afead328df44964fe2772>@@QEBAXXZ 0000000140029a80 f   libucrtd:per_thread_data.obj
 0001:00028a80       ??R<lambda_dc504788e8f1664fe9b84e20bfb512f2>@@QEBAXXZ 0000000140029a80 f   libucrtd:per_thread_data.obj
 0001:00028a80       ??R<lambda_38119f0e861e05405d8a144b9b982f0a>@@QEBAXXZ 0000000140029a80 f   libucrtd:wsetlocale.obj
 0001:00028a80       ??R<lambda_728235dc0fc2b1f82d1fa5b3e7102d8f>@@QEBAXXZ 0000000140029a80 f   libucrtd:mbctype.obj
 0001:00028a80       ??R<lambda_601a2a7da3b7a96e9554ac7215c4b07c>@@QEBAXXZ 0000000140029a80 f   libucrtd:signal.obj
 0001:00028a80       ??R<lambda_2358e3775559c9db80273638284d5e45>@@QEBAXXZ 0000000140029a80 f   libucrtd:exit.obj
 0001:00028a80       ??R<lambda_6aaa2265f5b6a89667e7d7630012e97a>@@QEBAXXZ 0000000140029a80 f   libucrtd:onexit.obj
 0001:00028a80       ??R<lambda_fd91b99c0687e8936f1d70d7d9b78e69>@@QEBAXXZ 0000000140029a80 f   libucrtd:onexit.obj
 0001:00028a80       ??R<lambda_f7f22ab5edc0698d5f6905b0d3f44752>@@QEBAXXZ 0000000140029a80 f   libucrtd:fflush.obj
 0001:00028aa0       ??R<lambda_6e4b09c48022b2350581041d5f6b0c4c>@@QEBA@XZ 0000000140029aa0 f   libucrtd:exit.obj
 0001:00028bc0       ??R<lambda_0ae27a3a962d80f24befdcbee591983d>@@QEBAXXZ 0000000140029bc0 f   libucrtd:per_thread_data.obj
 0001:00028bc0       ??R<lambda_2d41944a1d46af3157314b8a01080d33>@@QEBAXXZ 0000000140029bc0 f   libucrtd:per_thread_data.obj
 0001:00028bc0       ??R<lambda_74a0ef281e44d15e1136f792f539efb3>@@QEBAXXZ 0000000140029bc0 f   libucrtd:per_thread_data.obj
 0001:00028bc0       ??R<lambda_aa87e3671a710a21b5dc78c0bdf72e11>@@QEBAXXZ 0000000140029bc0 f   libucrtd:per_thread_data.obj
 0001:00028bc0       ??R<lambda_410d79af7f07d98d83a3f525b3859a53>@@QEBAXXZ 0000000140029bc0 f   libucrtd:wsetlocale.obj
 0001:00028bc0       ??R<lambda_efa02eb69bf647d2f7ff0dd6f1103f72>@@QEBAXXZ 0000000140029bc0 f   libucrtd:mbctype.obj
 0001:00028bc0       ??R<lambda_450d765d439847d4c735a33c368b5fc0>@@QEBAXXZ 0000000140029bc0 f   libucrtd:signal.obj
 0001:00028bc0       ??R<lambda_d80eeec6fff315bfe5c115232f3240e3>@@QEBAXXZ 0000000140029bc0 f   libucrtd:exit.obj
 0001:00028bc0       ??R<lambda_6a47f4c8fd0152770a780fc1d70204eb>@@QEBAXXZ 0000000140029bc0 f   libucrtd:onexit.obj
 0001:00028bc0       ??R<lambda_80060f20ac3990516b753a27f211934c>@@QEBAXXZ 0000000140029bc0 f   libucrtd:onexit.obj
 0001:00028bc0       ??R<lambda_886d6c58226a84441f68b9f2b8217b83>@@QEBAXXZ 0000000140029bc0 f   libucrtd:fflush.obj
 0001:00028c10       ?atexit_exception_filter@@YAHK@Z 0000000140029c10 f   libucrtd:exit.obj
 0001:00028cb0       ?common_exit@@YAXHW4_crt_exit_cleanup_mode@@W4_crt_exit_return_mode@@@Z 0000000140029cb0 f   libucrtd:exit.obj
 0001:00028d50       ?exit_or_terminate_process@@YAXI@Z 0000000140029d50 f   libucrtd:exit.obj
 0001:00028d90       ?is_managed_app@@YA_NXZ    0000000140029d90 f   libucrtd:exit.obj
 0001:00028e40       ?should_call_terminate_process@@YA_NXZ 0000000140029e40 f   libucrtd:exit.obj
 0001:00028ea0       ?try_cor_exit_process@@YAXI@Z 0000000140029ea0 f   libucrtd:exit.obj
 0001:00029150       ??$?RV<lambda_410d79af7f07d98d83a3f525b3859a53>@@AEAV<lambda_3e16ef9562a7dcce91392c22ab16ea36>@@V<lambda_38119f0e861e05405d8a144b9b982f0a>@@@?$__crt_seh_guarded_call@X@@QEAAX$$QEAV<lambda_410d79af7f07d98d83a3f525b3859a53>@@AEAV<lambda_3e16ef9562a7dcce91392c22ab16ea36>@@$$QEAV<lambda_38119f0e861e05405d8a144b9b982f0a>@@@Z 000000014002a150 f   libucrtd:wsetlocale.obj
 0001:00029190       ??$__acrt_lock_and_call@V<lambda_3e16ef9562a7dcce91392c22ab16ea36>@@@@YAXW4__acrt_lock_id@@$$QEAV<lambda_3e16ef9562a7dcce91392c22ab16ea36>@@@Z 000000014002a190 f   libucrtd:wsetlocale.obj
 0001:000291f0       ??$uninitialize@V<lambda_363eea9039da1e8169e2d060c7fe5cbc>@@@?$dual_state_global@PEAU__crt_locale_data@@@__crt_state_management@@QEAAX$$QEAV<lambda_363eea9039da1e8169e2d060c7fe5cbc>@@@Z 000000014002a1f0 f   libucrtd:wsetlocale.obj
 0001:00029250       ??R<lambda_363eea9039da1e8169e2d060c7fe5cbc>@@QEBAXAEAPEAU__crt_locale_data@@@Z 000000014002a250 f   libucrtd:wsetlocale.obj
 0001:00029290       ??R<lambda_3e16ef9562a7dcce91392c22ab16ea36>@@QEBA@XZ 000000014002a290 f   libucrtd:wsetlocale.obj
 0001:000295b0       ??$?RV<lambda_6a47f4c8fd0152770a780fc1d70204eb>@@AEAV<lambda_d121dba8a4adeaf3a9819e48611155df>@@V<lambda_6aaa2265f5b6a89667e7d7630012e97a>@@@?$__crt_seh_guarded_call@H@@QEAAH$$QEAV<lambda_6a47f4c8fd0152770a780fc1d70204eb>@@AEAV<lambda_d121dba8a4adeaf3a9819e48611155df>@@$$QEAV<lambda_6aaa2265f5b6a89667e7d7630012e97a>@@@Z 000000014002a5b0 f   libucrtd:onexit.obj
 0001:00029600       ??$?RV<lambda_80060f20ac3990516b753a27f211934c>@@AEAV<lambda_208ce30acdd7200aa596f2796f4d5154>@@V<lambda_fd91b99c0687e8936f1d70d7d9b78e69>@@@?$__crt_seh_guarded_call@H@@QEAAH$$QEAV<lambda_80060f20ac3990516b753a27f211934c>@@AEAV<lambda_208ce30acdd7200aa596f2796f4d5154>@@$$QEAV<lambda_fd91b99c0687e8936f1d70d7d9b78e69>@@@Z 000000014002a600 f   libucrtd:onexit.obj
 0001:00029650       ??$__acrt_lock_and_call@V<lambda_208ce30acdd7200aa596f2796f4d5154>@@@@YAHW4__acrt_lock_id@@$$QEAV<lambda_208ce30acdd7200aa596f2796f4d5154>@@@Z 000000014002a650 f   libucrtd:onexit.obj
 0001:000296b0       ??$__acrt_lock_and_call@V<lambda_d121dba8a4adeaf3a9819e48611155df>@@@@YAHW4__acrt_lock_id@@$$QEAV<lambda_d121dba8a4adeaf3a9819e48611155df>@@@Z 000000014002a6b0 f   libucrtd:onexit.obj
 0001:00029710       ??R<lambda_208ce30acdd7200aa596f2796f4d5154>@@QEBAHXZ 000000014002a710 f   libucrtd:onexit.obj
 0001:00029a50       ??R<lambda_d121dba8a4adeaf3a9819e48611155df>@@QEBAHXZ 000000014002aa50 f   libucrtd:onexit.obj
 0001:00029db0       initialize_global_variables 000000014002adb0 f   libucrtd:initialization.obj
 0001:00029dd0       initialize_c               000000014002add0 f   libucrtd:initialization.obj
 0001:00029e00       uninitialize_c             000000014002ae00 f   libucrtd:initialization.obj
 0001:00029e00       uninitialize_global_state_isolation 000000014002ae00 f   libucrtd:initialization.obj
 0001:00029e10       uninitialize_environment   000000014002ae10 f   libucrtd:initialization.obj
 0001:00029e40       initialize_pointers        000000014002ae40 f   libucrtd:initialization.obj
 0001:00029ea0       uninitialize_vcruntime     000000014002aea0 f   libucrtd:initialization.obj
 0001:00029ec0       uninitialize_allocated_memory 000000014002aec0 f   libucrtd:initialization.obj
 0001:00029f00       uninitialize_allocated_io_buffers 000000014002af00 f   libucrtd:initialization.obj
 0001:00029f80       report_memory_leaks        000000014002af80 f   libucrtd:initialization.obj
 0001:00029fb0       ??$uninitialize@V<lambda_af27fe6ede5d83bbdbd622796c194e9c>@@@?$dual_state_global@PEAU__crt_multibyte_data@@@__crt_state_management@@QEAAX$$QEAV<lambda_af27fe6ede5d83bbdbd622796c194e9c>@@@Z 000000014002afb0 f   libucrtd:initialization.obj
 0001:0002a010       ??R<lambda_af27fe6ede5d83bbdbd622796c194e9c>@@QEBAXAEAPEAU__crt_multibyte_data@@@Z 000000014002b010 f   libucrtd:initialization.obj
 0001:0002a300       ?block_from_header@@YAPEAEQEAU_CrtMemBlockHeader@@@Z 000000014002b300 f   libucrtd:debug_heap.obj
 0001:0002a310       ?check_block@@YA_NQEAU_CrtMemBlockHeader@@@Z 000000014002b310 f   libucrtd:debug_heap.obj
 0001:0002a880       ?check_bytes@@YA_NQEBEE_K@Z 000000014002b880 f   libucrtd:debug_heap.obj
 0001:0002a8f0       ?dump_all_object_since_nolock@@YAXQEBU_CrtMemState@@@Z 000000014002b8f0 f   libucrtd:debug_heap.obj
 0001:0002ad70       ?free_dbg_nolock@@YAXQEAXH@Z 000000014002bd70 f   libucrtd:debug_heap.obj
 0001:0002b4f0       ?header_from_block@@YAPEAU_CrtMemBlockHeader@@QEBX@Z 000000014002c4f0 f   libucrtd:debug_heap.obj
 0001:0002b500       ?heap_alloc_dbg@@YAPEAX_KHQEBDH@Z 000000014002c500 f   libucrtd:debug_heap.obj
 0001:0002b5a0       ?heap_alloc_dbg_internal@@YAPEAX_KHQEBDH@Z 000000014002c5a0 f   libucrtd:debug_heap.obj
 0001:0002b9f0       ?is_bad_read_pointer@@YA_NQEBX_K@Z 000000014002c9f0 f   libucrtd:debug_heap.obj
 0001:0002bb00       ?is_block_an_aligned_allocation@@YA_NQEBX@Z 000000014002cb00 f   libucrtd:debug_heap.obj
 0001:0002bb40       ?is_block_type_valid@@YA_NH@Z 000000014002cb40 f   libucrtd:debug_heap.obj
 0001:0002bb90       ?print_block_data@@YAXQEAU__crt_locale_pointers@@QEAU_CrtMemBlockHeader@@@Z 000000014002cb90 f   libucrtd:debug_heap.obj
 0001:0002bdc0       ?realloc_dbg_nolock@@YAPEAXQEAXQEA_KHQEBDH_N@Z 000000014002cdc0 f   libucrtd:debug_heap.obj
 0001:0002c600       ?validate_heap_if_required_nolock@@YAXXZ 000000014002d600 f   libucrtd:debug_heap.obj
 0001:0002d390       ??$common_tcscpy_s@D@@YAHQEAD_KQEBD@Z 000000014002e390 f   libucrtd:strcpy_s.obj
 0001:0002d8a0       $$000000                   000000014002e8a0     libucrtd:strcmp.obj
 0001:0002d920       $$000000                   000000014002e920     libucrtd:strlen.obj
 0001:0002da40       ?capture_current_context@@YAXQEAU_CONTEXT@@@Z 000000014002ea40 f   libucrtd:invalid_parameter.obj
 0001:0002df90       ??$common_message_window@D@@YAHHQEAXQEBD111@Z 000000014002ef90 f   libucrtd:dbgrpt.obj
 0001:0002e660       ??$common_message_window@_W@@YAHHQEAXQEB_W111@Z 000000014002f660 f   libucrtd:dbgrpt.obj
 0001:0002ee60       ?get_output_message_format@@YAPEB_WD@Z 000000014002fe60 f   libucrtd:dbgrpt.obj
 0001:0002ee70       ?get_output_message_format@@YAPEB_W_W@Z 000000014002fe70 f   libucrtd:dbgrpt.obj
 0001:0002ee80       ?get_program_name_unknown_text@@YAPEBDD@Z 000000014002fe80 f   libucrtd:dbgrpt.obj
 0001:0002ee90       ?get_program_name_unknown_text@@YAPEB_W_W@Z 000000014002fe90 f   libucrtd:dbgrpt.obj
 0001:0002f130       $$000000                   0000000140030130     libucrtd:strncmp.obj
 0001:0002f450       ??$common_strnlen@$00G@@YA_KQEBG_K@Z 0000000140030450 f   libucrtd:strnlen.obj
 0001:0002f4b0       ??$common_strnlen@$0A@E@@YA_KQEBE_K@Z 00000001400304b0 f   libucrtd:strnlen.obj
 0001:0002f510       ??$common_strnlen@$0A@G@@YA_KQEBG_K@Z 0000000140030510 f   libucrtd:strnlen.obj
 0001:0002f570       ??$common_strnlen_c@$00G@@YA_KQEBG_K@Z 0000000140030570 f   libucrtd:strnlen.obj
 0001:0002f5f0       ??$common_strnlen_c@$0A@E@@YA_KQEBE_K@Z 00000001400305f0 f   libucrtd:strnlen.obj
 0001:0002f670       ??$common_strnlen_c@$0A@G@@YA_KQEBG_K@Z 0000000140030670 f   libucrtd:strnlen.obj
 0001:0002f6f0       ??$common_strnlen_simd@$00$00G@@YA_KQEBG_K@Z 00000001400306f0 f   libucrtd:strnlen.obj
 0001:0002f990       ??$common_strnlen_simd@$00$0A@G@@YA_KQEBG_K@Z 0000000140030990 f   libucrtd:strnlen.obj
 0001:0002fc80       ??$common_strnlen_simd@$0A@$00E@@YA_KQEBE_K@Z 0000000140030c80 f   libucrtd:strnlen.obj
 0001:0002ff00       ??$common_strnlen_simd@$0A@$00G@@YA_KQEBG_K@Z 0000000140030f00 f   libucrtd:strnlen.obj
 0001:000301a0       ??$common_strnlen_simd@$0A@$0A@E@@YA_KQEBE_K@Z 00000001400311a0 f   libucrtd:strnlen.obj
 0001:00030470       ??$common_strnlen_simd@$0A@$0A@G@@YA_KQEBG_K@Z 0000000140031470 f   libucrtd:strnlen.obj
 0001:00030760       ??$last_reached@$00@@YA_NQEBX0@Z 0000000140031760 f   libucrtd:strnlen.obj
 0001:00030770       ??$last_reached@$0A@@@YA_NQEBX0@Z 0000000140031770 f   libucrtd:strnlen.obj
 0001:00030cc0       ?fe_to_nearest@@YA_NQEBN_KF@Z 0000000140031cc0 f   libucrtd:cvt.obj
 0001:00030e10       ?fp_format_a@@YAHQEBNPEAD_KQEAD2H_NIW4__acrt_rounding_mode@@AEAV__crt_cached_ptd_host@@@Z 0000000140031e10 f   libucrtd:cvt.obj
 0001:00031660       ?fp_format_e@@YAHQEBNQEAD_K12H_NIW4__acrt_rounding_mode@@AEAV__crt_cached_ptd_host@@@Z 0000000140032660 f   libucrtd:cvt.obj
 0001:00031840       ?fp_format_e_internal@@YAHQEAD_KH_NIQEAU_strflt@@2AEAV__crt_cached_ptd_host@@@Z 0000000140032840 f   libucrtd:cvt.obj
 0001:00031c70       ?fp_format_f@@YAHQEBNQEAD_K12HW4__acrt_rounding_mode@@AEAV__crt_cached_ptd_host@@@Z 0000000140032c70 f   libucrtd:cvt.obj
 0001:00031e00       ?fp_format_f_internal@@YAHQEAD_KHQEAU_strflt@@_NAEAV__crt_cached_ptd_host@@@Z 0000000140032e00 f   libucrtd:cvt.obj
 0001:00032040       ?fp_format_g@@YAHQEBNQEAD_K12H_NIW4__acrt_rounding_mode@@AEAV__crt_cached_ptd_host@@@Z 0000000140033040 f   libucrtd:cvt.obj
 0001:000322a0       ?fp_format_nan_or_infinity@@YAHW4__acrt_fp_class@@_NPEAD_K1@Z 00000001400332a0 f   libucrtd:cvt.obj
 0001:00032410       ?shift_bytes@@YAXQEAD_K0H@Z 0000000140033410 f   libucrtd:cvt.obj
 0001:00032460       ?should_round_up@@YA_NQEBN_KFW4__acrt_rounding_mode@@@Z 0000000140033460 f   libucrtd:cvt.obj
 0001:00032c28       $LN42                      0000000140033c28     libucrtd:cvt.obj
 0001:00032c3c       $LN41                      0000000140033c3c     libucrtd:cvt.obj
 0001:00033b10       ??$?RV<lambda_0ae27a3a962d80f24befdcbee591983d>@@AEAV<lambda_8d0ee55de4b1038c4002e0adecdf1839>@@V<lambda_dc504788e8f1664fe9b84e20bfb512f2>@@@?$__crt_seh_guarded_call@X@@QEAAX$$QEAV<lambda_0ae27a3a962d80f24befdcbee591983d>@@AEAV<lambda_8d0ee55de4b1038c4002e0adecdf1839>@@$$QEAV<lambda_dc504788e8f1664fe9b84e20bfb512f2>@@@Z 0000000140034b10 f   libucrtd:per_thread_data.obj
 0001:00033b50       ??$?RV<lambda_2d41944a1d46af3157314b8a01080d33>@@AEAV<lambda_8f455de75cd7d7f24b4096f044d8b9e6>@@V<lambda_aa500f224e6afead328df44964fe2772>@@@?$__crt_seh_guarded_call@X@@QEAAX$$QEAV<lambda_2d41944a1d46af3157314b8a01080d33>@@AEAV<lambda_8f455de75cd7d7f24b4096f044d8b9e6>@@$$QEAV<lambda_aa500f224e6afead328df44964fe2772>@@@Z 0000000140034b50 f   libucrtd:per_thread_data.obj
 0001:00033b90       ??$?RV<lambda_74a0ef281e44d15e1136f792f539efb3>@@AEAV<lambda_e157831efee4ea0afb0a2ace5dd5fd0d>@@V<lambda_04ddeca75b7c13fd67716e8dfcef87ee>@@@?$__crt_seh_guarded_call@X@@QEAAX$$QEAV<lambda_74a0ef281e44d15e1136f792f539efb3>@@AEAV<lambda_e157831efee4ea0afb0a2ace5dd5fd0d>@@$$QEAV<lambda_04ddeca75b7c13fd67716e8dfcef87ee>@@@Z 0000000140034b90 f   libucrtd:per_thread_data.obj
 0001:00033bd0       ??$?RV<lambda_aa87e3671a710a21b5dc78c0bdf72e11>@@AEAV<lambda_92619d2358a28f41a33ba319515a20b9>@@V<lambda_6992ecaafeb10aed2b74cb1fae11a551>@@@?$__crt_seh_guarded_call@X@@QEAAX$$QEAV<lambda_aa87e3671a710a21b5dc78c0bdf72e11>@@AEAV<lambda_92619d2358a28f41a33ba319515a20b9>@@$$QEAV<lambda_6992ecaafeb10aed2b74cb1fae11a551>@@@Z 0000000140034bd0 f   libucrtd:per_thread_data.obj
 0001:00033c10       ??$__acrt_lock_and_call@V<lambda_8d0ee55de4b1038c4002e0adecdf1839>@@@@YAXW4__acrt_lock_id@@$$QEAV<lambda_8d0ee55de4b1038c4002e0adecdf1839>@@@Z 0000000140034c10 f   libucrtd:per_thread_data.obj
 0001:00033c70       ??$__acrt_lock_and_call@V<lambda_8f455de75cd7d7f24b4096f044d8b9e6>@@@@YAXW4__acrt_lock_id@@$$QEAV<lambda_8f455de75cd7d7f24b4096f044d8b9e6>@@@Z 0000000140034c70 f   libucrtd:per_thread_data.obj
 0001:00033cd0       ??$__acrt_lock_and_call@V<lambda_92619d2358a28f41a33ba319515a20b9>@@@@YAXW4__acrt_lock_id@@$$QEAV<lambda_92619d2358a28f41a33ba319515a20b9>@@@Z 0000000140034cd0 f   libucrtd:per_thread_data.obj
 0001:00033d30       ??$__acrt_lock_and_call@V<lambda_e157831efee4ea0afb0a2ace5dd5fd0d>@@@@YAXW4__acrt_lock_id@@$$QEAV<lambda_e157831efee4ea0afb0a2ace5dd5fd0d>@@@Z 0000000140034d30 f   libucrtd:per_thread_data.obj
 0001:00033d90       ??R<lambda_8d0ee55de4b1038c4002e0adecdf1839>@@QEBAXXZ 0000000140034d90 f   libucrtd:per_thread_data.obj
 0001:00033db0       ??R<lambda_8f455de75cd7d7f24b4096f044d8b9e6>@@QEBAXXZ 0000000140034db0 f   libucrtd:per_thread_data.obj
 0001:00033dd0       ??R<lambda_92619d2358a28f41a33ba319515a20b9>@@QEBAXXZ 0000000140034dd0 f   libucrtd:per_thread_data.obj
 0001:00033e00       ??R<lambda_e157831efee4ea0afb0a2ace5dd5fd0d>@@QEBAXXZ 0000000140034e00 f   libucrtd:per_thread_data.obj
 0001:00033e70       ?construct_ptd@@YAXQEAU__acrt_ptd@@QEAPEAU__crt_locale_data@@@Z 0000000140034e70 f   libucrtd:per_thread_data.obj
 0001:00033f50       ?construct_ptd_array@@YAXQEAU__acrt_ptd@@@Z 0000000140034f50 f   libucrtd:per_thread_data.obj
 0001:00033fc0       ?destroy_fls@@YAXPEAX@Z    0000000140034fc0 f   libucrtd:per_thread_data.obj
 0001:00034000       ?destroy_ptd@@YAXQEAU__acrt_ptd@@@Z 0000000140035000 f   libucrtd:per_thread_data.obj
 0001:00034130       ?destroy_ptd_array@@YAXQEAU__acrt_ptd@@@Z 0000000140035130 f   libucrtd:per_thread_data.obj
 0001:00034180       ?internal_get_ptd_head@@YAPEAU__acrt_ptd@@XZ 0000000140035180 f   libucrtd:per_thread_data.obj
 0001:000342d0       ?internal_getptd_noexit@@YAPEAU__acrt_ptd@@AEBV__crt_scoped_get_last_error_reset@@_K@Z 00000001400352d0 f   libucrtd:per_thread_data.obj
 0001:00034310       ?internal_getptd_noexit@@YAPEAU__acrt_ptd@@XZ 0000000140035310 f   libucrtd:per_thread_data.obj
 0001:00034350       ?replace_current_thread_locale_nolock@@YAXQEAU__acrt_ptd@@QEAU__crt_locale_data@@@Z 0000000140035350 f   libucrtd:per_thread_data.obj
 0001:00034410       ?try_get_ptd_head@@YAPEAU__acrt_ptd@@XZ 0000000140035410 f   libucrtd:per_thread_data.obj
 0001:00034560       ?get_std_handle_id@@YAKH@Z 0000000140035560 f   libucrtd:ioinit.obj
 0001:000345b0       ?initialize_inherited_file_handles_nolock@@YAXXZ 00000001400355b0 f   libucrtd:ioinit.obj
 0001:00034760       ?initialize_stdio_handles_nolock@@YAXXZ 0000000140035760 f   libucrtd:ioinit.obj
 0001:000349d0       $$000000                   00000001400359d0     libucrtd:remainder_piby2f_forasm.obj
 0001:00034b20       $$000000                   0000000140035b20     libucrtd:remainder_piby2_forfma3.obj
 0001:00034dc0       _sincosf_special           0000000140035dc0 f   libucrtd:sincos_special.obj
 0001:00035130       $$000000                   0000000140036130     libucrtd:remainder_piby2f_forc.obj
 0001:000352c0       _call_matherr              00000001400362c0 f   libucrtd:libm_error.obj
 0001:00035350       _exception_enabled         0000000140036350 f   libucrtd:libm_error.obj
 0001:00035940       ??$common_tcscat_s@_W@@YAHQEA_W_KQEB_W@Z 0000000140036940 f   libucrtd:wcscat_s.obj
 0001:00036000       ??$common_tcscpy_s@_W@@YAHQEA_W_KQEB_W@Z 0000000140037000 f   libucrtd:wcscpy_s.obj
 0001:00036530       ??$common_tcsncpy_s@_W@@YAHQEA_W_KQEB_W1@Z 0000000140037530 f   libucrtd:wcsncpy_s.obj
 0001:00036c20       ??$common_show_message_box@_W@@YAHQEB_W0I@Z 0000000140037c20 f   libucrtd:crtmbox.obj
 0001:00036e00       ?<lambda_invoker_cdecl>@<lambda_a1ce4c8ae42411fd470c77163914f50e>@@CAHPEBX0@Z 0000000140037e00 f   libucrtd:argv_wildcards.obj
 0001:00037230       ??$common_expand_argv_wildcards@D@@YAHQEAPEADQEAPEAPEAD@Z 0000000140038230 f   libucrtd:argv_wildcards.obj
 0001:00037660       ??$copy_and_add_argument_to_buffer@D@@YAHQEBD0_KAEAV?$argument_list@D@?A0x5f5c8891@@@Z 0000000140038660 f   libucrtd:argv_wildcards.obj
 0001:00037810       ??$expand_argument_wildcards@D@@YAHQEAD0AEAV?$argument_list@D@?A0x5f5c8891@@@Z 0000000140038810 f   libucrtd:argv_wildcards.obj
 0001:00037d00       ??0?$argument_list@D@?A0x5f5c8891@@QEAA@XZ 0000000140038d00 f   libucrtd:argv_wildcards.obj
 0001:00037d90       ??1?$argument_list@D@?A0x5f5c8891@@QEAA@XZ 0000000140038d90 f   libucrtd:argv_wildcards.obj
 0001:00037e00       ??B<lambda_a1ce4c8ae42411fd470c77163914f50e>@@QEBAP6AHPEBX0@ZXZ 0000000140038e00 f   libucrtd:argv_wildcards.obj
 0001:00037e60       ??R<lambda_a1ce4c8ae42411fd470c77163914f50e>@@QEBAHPEBX0@Z 0000000140038e60 f   libucrtd:argv_wildcards.obj
 0001:00037ea0       ??R<lambda_cfae5a0e6efa98e0d1aa03c4cec8f74e>@@QEBA_ND@Z 0000000140038ea0 f   libucrtd:argv_wildcards.obj
 0001:000381b0       ?append@?$argument_list@D@?A0x5f5c8891@@QEAAHQEAD@Z 00000001400391b0 f   libucrtd:argv_wildcards.obj
 0001:000382f0       ?end@?$argument_list@D@?A0x5f5c8891@@QEBAPEAPEADXZ 00000001400392f0 f   libucrtd:argv_wildcards.obj
 0001:00038300       ?expand_if_necessary@?$argument_list@D@?A0x5f5c8891@@AEAAHXZ 0000000140039300 f   libucrtd:argv_wildcards.obj
 0001:000384e0       ?get_file_name@@YAPEADQEAV?$__crt_win32_buffer@DU__crt_win32_buffer_internal_dynamic_resizing@@@@QEA_W@Z 00000001400394e0 f   libucrtd:argv_wildcards.obj
 0001:00038530       ?get_wide@@YAPEA_WQEAV?$__crt_win32_buffer@_WU__crt_win32_buffer_internal_dynamic_resizing@@@@QEAD@Z 0000000140039530 f   libucrtd:argv_wildcards.obj
 0001:00038580       ?previous_character@@YAPEADQEAD0@Z 0000000140039580 f   libucrtd:argv_wildcards.obj
 0001:00038610       ?size@?$argument_list@D@?A0x5f5c8891@@QEBA_KXZ 0000000140039610 f   libucrtd:argv_wildcards.obj
 0001:00038b70       ??$?RV<lambda_efa02eb69bf647d2f7ff0dd6f1103f72>@@AEAV<lambda_bd5a608237428601b7e45fbdc72b1ae8>@@V<lambda_728235dc0fc2b1f82d1fa5b3e7102d8f>@@@?$__crt_seh_guarded_call@X@@QEAAX$$QEAV<lambda_efa02eb69bf647d2f7ff0dd6f1103f72>@@AEAV<lambda_bd5a608237428601b7e45fbdc72b1ae8>@@$$QEAV<lambda_728235dc0fc2b1f82d1fa5b3e7102d8f>@@@Z 0000000140039b70 f   libucrtd:mbctype.obj
 0001:00038bb0       ??$__acrt_lock_and_call@V<lambda_bd5a608237428601b7e45fbdc72b1ae8>@@@@YAXW4__acrt_lock_id@@$$QEAV<lambda_bd5a608237428601b7e45fbdc72b1ae8>@@@Z 0000000140039bb0 f   libucrtd:mbctype.obj
 0001:00038cf0       ??R<lambda_bd5a608237428601b7e45fbdc72b1ae8>@@QEBAXXZ 0000000140039cf0 f   libucrtd:mbctype.obj
 0001:00038e20       ?CPtoLocaleName@@YAPEB_WH@Z 0000000140039e20 f   libucrtd:mbctype.obj
 0001:00038ec0       ?getSystemCP@@YAHH@Z       0000000140039ec0 f   libucrtd:mbctype.obj
 0001:00038fa0       ?setSBCS@@YAXPEAU__crt_multibyte_data@@@Z 0000000140039fa0 f   libucrtd:mbctype.obj
 0001:000390a0       ?setSBUpLow@@YAXPEAU__crt_multibyte_data@@@Z 000000014003a0a0 f   libucrtd:mbctype.obj
 0001:00039490       ?setmbcp_internal@@YAHH_NQEAU__acrt_ptd@@QEAPEAU__crt_multibyte_data@@@Z 000000014003a490 f   libucrtd:mbctype.obj
 0001:00039710       ?update_thread_multibyte_data_internal@@YAPEAU__crt_multibyte_data@@QEAU__acrt_ptd@@QEAPEAU1@@Z 000000014003a710 f   libucrtd:mbctype.obj
 0001:00039e20       memcpy_s                   000000014003ae20 f   libucrtd:cfout.obj
 0001:00039e20       memcpy_s                   000000014003ae20 f   libucrtd:mbctype.obj
 0001:00039f60       ?x_ismbbtype_l@@YAHPEAU__crt_locale_pointers@@IHH@Z 000000014003af60 f   libucrtd:ismbbyte.obj
 0001:0003a080       ?filter_mbtowcs_flags@@YAKIK@Z 000000014003b080 f   libucrtd:multibytetowidechar.obj
 0001:0003a180       ?filter_wcstomb_flags@@YAKIK@Z 000000014003b180 f   libucrtd:widechartomultibyte.obj
 0001:0003a350       ??1?$__crt_unique_handle_t@Uenvironment_strings_traits@?A0x1bf47908@@@@QEAA@XZ 000000014003b350 f   libucrtd:get_environment_from_os.obj
 0001:0003a370       ?close@?$__crt_unique_handle_t@Uenvironment_strings_traits@?A0x1bf47908@@@@QEAAXXZ 000000014003b370 f   libucrtd:get_environment_from_os.obj
 0001:0003a3b0       ?close@environment_strings_traits@?A0x1bf47908@@SA_NPEA_W@Z 000000014003b3b0 f   libucrtd:get_environment_from_os.obj
 0001:0003a3d0       ?find_end_of_double_null_terminated_sequence@@YAPEB_WQEB_W@Z 000000014003b3d0 f   libucrtd:get_environment_from_os.obj
 0001:0003a420       ?is_valid@?$__crt_unique_handle_t@Uenvironment_strings_traits@?A0x1bf47908@@@@QEBA_NXZ 000000014003b420 f   libucrtd:get_environment_from_os.obj
 0001:0003a7c0       ??$get_cached_win_policy@Udeveloper_information_policy_properties@?1??__acrt_get_developer_information_policy@@YA?AW4developer_information_policy@@XZ@@@YA?AW4developer_information_policy@@W4AppPolicyShowDeveloperDiagnostic@@@Z 000000014003b7c0 f   libucrtd:win_policies.obj
 0001:0003a890       ??$get_cached_win_policy@Uwindowing_model_policy_properties@?1??__acrt_get_windowing_model_policy@@YA?AW4windowing_model_policy@@XZ@@@YA?AW4windowing_model_policy@@W4AppPolicyWindowingModel@@@Z 000000014003b890 f   libucrtd:win_policies.obj
 0001:0003a960       ??$get_win_policy@Uprocess_end_policy_properties@?1??__acrt_get_process_end_policy@@YA?AW4process_end_policy@@XZ@@@YA?AW4process_end_policy@@W4AppPolicyProcessTerminationMethod@@@Z 000000014003b960 f   libucrtd:win_policies.obj
 0001:0003a9b0       ?appmodel_get_policy@developer_information_policy_properties@?1??__acrt_get_developer_information_policy@@YA?AW4developer_information_policy@@XZ@SAJPEAW4AppPolicyShowDeveloperDiagnostic@@@Z 000000014003b9b0 f   libucrtd:win_policies.obj
 0001:0003a9d0       ?appmodel_get_policy@process_end_policy_properties@?1??__acrt_get_process_end_policy@@YA?AW4process_end_policy@@XZ@SAJPEAW4AppPolicyProcessTerminationMethod@@@Z 000000014003b9d0 f   libucrtd:win_policies.obj
 0001:0003a9f0       ?appmodel_get_policy@windowing_model_policy_properties@?1??__acrt_get_windowing_model_policy@@YA?AW4windowing_model_policy@@XZ@SAJPEAW4AppPolicyWindowingModel@@@Z 000000014003b9f0 f   libucrtd:win_policies.obj
 0001:0003aa10       ?appmodel_policy_to_policy_type@developer_information_policy_properties@?1??__acrt_get_developer_information_policy@@YA?AW4developer_information_policy@@XZ@SA?AW43@J@Z 000000014003ba10 f   libucrtd:win_policies.obj
 0001:0003aa30       ?appmodel_policy_to_policy_type@process_end_policy_properties@?1??__acrt_get_process_end_policy@@YA?AW4process_end_policy@@XZ@SA?AW43@W4AppPolicyProcessTerminationMethod@@@Z 000000014003ba30 f   libucrtd:win_policies.obj
 0001:0003aa50       ?appmodel_policy_to_policy_type@windowing_model_policy_properties@?1??__acrt_get_windowing_model_policy@@YA?AW4windowing_model_policy@@XZ@SA?AW43@J@Z 000000014003ba50 f   libucrtd:win_policies.obj
 0001:0003b590       ??$free_crt_array@D$01@@YAXAEAY01PEAD@Z 000000014003c590 f   libucrtd:inittime.obj
 0001:0003b590       ??$free_crt_array@_W$01@@YAXAEAY01PEA_W@Z 000000014003c590 f   libucrtd:inittime.obj
 0001:0003b5b0       ??$free_crt_array@D$06@@YAXAEAY06PEAD@Z 000000014003c5b0 f   libucrtd:inittime.obj
 0001:0003b5b0       ??$free_crt_array@_W$06@@YAXAEAY06PEA_W@Z 000000014003c5b0 f   libucrtd:inittime.obj
 0001:0003b5d0       ??$free_crt_array@D$0M@@@YAXAEAY0M@PEAD@Z 000000014003c5d0 f   libucrtd:inittime.obj
 0001:0003b5d0       ??$free_crt_array@_W$0M@@@YAXAEAY0M@PEA_W@Z 000000014003c5d0 f   libucrtd:inittime.obj
 0001:0003b5f0       ?free_crt_array_internal@@YAXQEAPEBX_K@Z 000000014003c5f0 f   libucrtd:inittime.obj
 0001:0003c6a0       ?try_get_AppPolicyGetProcessTerminationMethod@@YAP6AJPEAXPEAW4AppPolicyProcessTerminationMethod@@@ZXZ 000000014003d6a0 f   libucrtd:winapi_thunks.obj
 0001:0003c6d0       ?try_get_AppPolicyGetShowDeveloperDiagnostic@@YAP6AJPEAXPEAW4AppPolicyShowDeveloperDiagnostic@@@ZXZ 000000014003d6d0 f   libucrtd:winapi_thunks.obj
 0001:0003c700       ?try_get_AppPolicyGetWindowingModel@@YAP6AJPEAXPEAW4AppPolicyWindowingModel@@@ZXZ 000000014003d700 f   libucrtd:winapi_thunks.obj
 0001:0003c730       ?try_get_AreFileApisANSI@@YAP6AHXZXZ 000000014003d730 f   libucrtd:winapi_thunks.obj
 0001:0003c760       ?try_get_GetActiveWindow@@YAP6APEAUHWND__@@XZXZ 000000014003d760 f   libucrtd:winapi_thunks.obj
 0001:0003c790       ?try_get_GetLastActivePopup@@YAP6APEAUHWND__@@PEAU1@@ZXZ 000000014003d790 f   libucrtd:winapi_thunks.obj
 0001:0003c7c0       ?try_get_GetProcessWindowStation@@YAP6APEAUHWINSTA__@@XZXZ 000000014003d7c0 f   libucrtd:winapi_thunks.obj
 0001:0003c7f0       ?try_get_GetUserObjectInformationW@@YAP6AHPEAXH0KPEAK@ZXZ 000000014003d7f0 f   libucrtd:winapi_thunks.obj
 0001:0003c820       ?try_get_InitializeCriticalSectionEx@@YAP6AHPEAU_RTL_CRITICAL_SECTION@@KK@ZXZ 000000014003d820 f   libucrtd:winapi_thunks.obj
 0001:0003c850       ?try_get_LCMapStringEx@@YAP6AHPEB_WK0HPEA_WHPEAU_nlsversioninfo@@PEAX_J@ZXZ 000000014003d850 f   libucrtd:winapi_thunks.obj
 0001:0003c880       ?try_get_LocaleNameToLCID@@YAP6AKPEB_WK@ZXZ 000000014003d880 f   libucrtd:winapi_thunks.obj
 0001:0003c8b0       ?try_get_MessageBoxA@@YAP6AHPEAUHWND__@@PEBD1I@ZXZ 000000014003d8b0 f   libucrtd:winapi_thunks.obj
 0001:0003c8e0       ?try_get_MessageBoxW@@YAP6AHPEAUHWND__@@PEB_W1I@ZXZ 000000014003d8e0 f   libucrtd:winapi_thunks.obj
 0001:0003c910       ?try_get_first_available_module@@YAPEAUHINSTANCE__@@QEBW4module_id@?A0x391cf84c@@0@Z 000000014003d910 f   libucrtd:winapi_thunks.obj
 0001:0003c970       ?try_get_function@@YAPEAXW4function_id@?A0x391cf84c@@QEBDQEBW4module_id@2@2@Z 000000014003d970 f   libucrtd:winapi_thunks.obj
 0001:0003cb10       ?try_get_module@@YAPEAUHINSTANCE__@@W4module_id@?A0x391cf84c@@@Z 000000014003db10 f   libucrtd:winapi_thunks.obj
 0001:0003cc70       ?try_get_proc_address_from_first_available_module@@YAPEAXQEBDQEBW4module_id@?A0x391cf84c@@1@Z 000000014003dc70 f   libucrtd:winapi_thunks.obj
 0001:0003ccc0       ?try_load_library_from_system_directory@@YAPEAUHINSTANCE__@@QEB_W@Z 000000014003dcc0 f   libucrtd:winapi_thunks.obj
 0001:0003d790       ??$?RV<lambda_450d765d439847d4c735a33c368b5fc0>@@AEAV<lambda_44731a7d0e6d81c3e6aa82d741081786>@@V<lambda_601a2a7da3b7a96e9554ac7215c4b07c>@@@?$__crt_seh_guarded_call@P6AXH@Z@@QEAAP6AXH@Z$$QEAV<lambda_450d765d439847d4c735a33c368b5fc0>@@AEAV<lambda_44731a7d0e6d81c3e6aa82d741081786>@@$$QEAV<lambda_601a2a7da3b7a96e9554ac7215c4b07c>@@@Z 000000014003e790 f   libucrtd:signal.obj
 0001:0003d7e0       ??$__acrt_lock_and_call@V<lambda_44731a7d0e6d81c3e6aa82d741081786>@@@@YAP6AXH@ZW4__acrt_lock_id@@$$QEAV<lambda_44731a7d0e6d81c3e6aa82d741081786>@@@Z 000000014003e7e0 f   libucrtd:signal.obj
 0001:0003d840       ??R<lambda_44731a7d0e6d81c3e6aa82d741081786>@@QEBAP6AXH@ZXZ 000000014003e840 f   libucrtd:signal.obj
 0001:0003d870       ?get_global_action_nolock@@YAPEAP6AXH@ZH@Z 000000014003e870 f   libucrtd:signal.obj
 0001:0003d900       ?siglookup@@YAPEAU__crt_signal_action_t@@HQEAU1@@Z 000000014003e900 f   libucrtd:signal.obj
 0001:0003ded4       $LN58                      000000014003eed4     libucrtd:signal.obj
 0001:0003dee0       $LN57                      000000014003eee0     libucrtd:signal.obj
 0001:0003df00       ?select_heap@@YAPEAXQEAX@Z 000000014003ef00 f   libucrtd:free_base.obj
 0001:0003e020       ?is_contraction_possible@@YA_N_K@Z 000000014003f020 f   libucrtd:expand.obj
 0001:0003f9d0       ?check_trailing@@YA_NPEBDW4__acrt_has_trailing_digits@@@Z 00000001400409d0 f   libucrtd:_fptostr.obj
 0001:0003fa20       ?should_round_up@@YA_NQEBD0HW4__acrt_has_trailing_digits@@W4__acrt_rounding_mode@@@Z 0000000140040a20 f   libucrtd:_fptostr.obj
 0001:000400c0       ??$convert_to_fos_high_precision@N@@YA?AW4__acrt_has_trailing_digits@@NIW4__acrt_precision_style@@QEAHQEAD_K@Z 00000001400410c0 f   libucrtd:cfout.obj
 0001:000407e0       ??0scoped_fp_state_reset@?A0x71ca7cfb@@QEAA@XZ 00000001400417e0 f   libucrtd:cfout.obj
 0001:00040830       ??1scoped_fp_state_reset@?A0x71ca7cfb@@QEAA@XZ 0000000140041830 f   libucrtd:cfout.obj
 0001:00042630       ??R<lambda_599026849492e2a71b24cce8b46aab16>@@QEBA_KPEBD@Z 0000000140043630 f   libucrtd:mbrtowc.obj
 0001:00042bc0       ??$?RV<lambda_842d9ff0dc9ef11c61343bbaebe7f885>@@AEAV<lambda_c5860995281e5c4ce005b3de8f5874ee>@@V<lambda_d90129c13df834fdcbf8d2b88dafcf2d>@@@?$__crt_seh_guarded_call@X@@QEAAX$$QEAV<lambda_842d9ff0dc9ef11c61343bbaebe7f885>@@AEAV<lambda_c5860995281e5c4ce005b3de8f5874ee>@@$$QEAV<lambda_d90129c13df834fdcbf8d2b88dafcf2d>@@@Z 0000000140043bc0 f   libucrtd:fflush.obj
 0001:00042c00       ??$?RV<lambda_886d6c58226a84441f68b9f2b8217b83>@@AEAV<lambda_ab61a845afdef5b7c387490eaf3616ee>@@V<lambda_f7f22ab5edc0698d5f6905b0d3f44752>@@@?$__crt_seh_guarded_call@X@@QEAAX$$QEAV<lambda_886d6c58226a84441f68b9f2b8217b83>@@AEAV<lambda_ab61a845afdef5b7c387490eaf3616ee>@@$$QEAV<lambda_f7f22ab5edc0698d5f6905b0d3f44752>@@@Z 0000000140043c00 f   libucrtd:fflush.obj
 0001:00042c40       ??$__acrt_lock_and_call@V<lambda_ab61a845afdef5b7c387490eaf3616ee>@@@@YAXW4__acrt_lock_id@@$$QEAV<lambda_ab61a845afdef5b7c387490eaf3616ee>@@@Z 0000000140043c40 f   libucrtd:fflush.obj
 0001:00042ca0       ??$__acrt_lock_stream_and_call@V<lambda_c5860995281e5c4ce005b3de8f5874ee>@@@@YAXQEAU_iobuf@@$$QEAV<lambda_c5860995281e5c4ce005b3de8f5874ee>@@@Z 0000000140043ca0 f   libucrtd:fflush.obj
 0001:00042d00       ??0<lambda_842d9ff0dc9ef11c61343bbaebe7f885>@@QEAA@AEBQEAU_iobuf@@@Z 0000000140043d00 f   libucrtd:fflush.obj
 0001:00042d00       ??0<lambda_d90129c13df834fdcbf8d2b88dafcf2d>@@QEAA@AEBQEAU_iobuf@@@Z 0000000140043d00 f   libucrtd:fflush.obj
 0001:00042d20       ??0<lambda_c5860995281e5c4ce005b3de8f5874ee>@@QEAA@AEBV__crt_stdio_stream@@AEAHAEB_N1@Z 0000000140043d20 f   libucrtd:fflush.obj
 0001:00042d80       ??R<lambda_842d9ff0dc9ef11c61343bbaebe7f885>@@QEBAXXZ 0000000140043d80 f   libucrtd:fflush.obj
 0001:00042da0       ??R<lambda_ab61a845afdef5b7c387490eaf3616ee>@@QEBA@XZ 0000000140043da0 f   libucrtd:fflush.obj
 0001:00042e90       ??R<lambda_c5860995281e5c4ce005b3de8f5874ee>@@QEBAXXZ 0000000140043e90 f   libucrtd:fflush.obj
 0001:00042f40       ??R<lambda_d90129c13df834fdcbf8d2b88dafcf2d>@@QEBAXXZ 0000000140043f40 f   libucrtd:fflush.obj
 0001:00042fb0       ?_fflush_nolock_internal@@YAHQEAU_iobuf@@AEAV__crt_cached_ptd_host@@@Z 0000000140043fb0 f   libucrtd:fflush.obj
 0001:00043050       ?common_flush_all@@YAH_N@Z 0000000140044050 f   libucrtd:fflush.obj
 0001:000430c0       ?common_flush_all_should_try_to_flush_stream@@YA_NV__crt_stdio_stream@@QEAH@Z 00000001400440c0 f   libucrtd:fflush.obj
 0001:00043170       ?is_stream_allocated@@YA_NJ@Z 0000000140044170 f   libucrtd:fflush.obj
 0001:000431a0       ?is_stream_flushable@@YA_NJ@Z 00000001400441a0 f   libucrtd:fflush.obj
 0001:000431d0       ?is_stream_flushable_or_commitable@@YA_NJ@Z 00000001400441d0 f   libucrtd:fflush.obj
 0001:00043590       $$000000                   0000000140044590     libucrtd:fpsr.obj
 0001:00043e40       ?shortsort@@YAXPEAD0_KP6AHPEBX2@Z@Z 0000000140044e40 f   libucrtd:qsort.obj
 0001:00043f40       ?swap@@YAXPEAD0_K@Z        0000000140044f40 f   libucrtd:qsort.obj
 0001:000447b0       ??$common_tcsncpy_s@D@@YAHQEAD_KQEBD1@Z 00000001400457b0 f   libucrtd:strncpy_s.obj
 0001:00044e80       fallbackMethod             0000000140045e80 f   libucrtd:strpbrk.obj
 0001:000457e4       $LN85                      00000001400467e4     libucrtd:strpbrk.obj
 0001:00045820       $LN84                      0000000140046820     libucrtd:strpbrk.obj
 0001:00045860       $LN83                      0000000140046860     libucrtd:strpbrk.obj
 0001:00045b60       ?__acrt_LCMapStringA_stat@@YAHPEAU__crt_locale_pointers@@PEB_WKPEBDHPEADHHH@Z 0000000140046b60 f   libucrtd:lcmapstringa.obj
 0001:00046210       ?initialize_multibyte@@YAHXZ 0000000140047210 f   libucrtd:multibyte_initializer.obj
 0001:00046240       ??$common_xtox@KD@@YAHKQEAD_KI_N@Z 0000000140047240 f   libucrtd:xtoa.obj
 0001:00046480       ??$common_xtox@K_W@@YAHKQEA_W_KI_N@Z 0000000140047480 f   libucrtd:xtoa.obj
 0001:000466d0       ??$common_xtox_s@KD@@YAHKQEAD_KI_N@Z 00000001400476d0 f   libucrtd:xtoa.obj
 0001:00046a80       ??$common_xtox_s@K_W@@YAHKQEA_W_KI_N@Z 0000000140047a80 f   libucrtd:xtoa.obj
 0001:00046fc0       ?GetTableIndexFromLocaleName@@YAHPEB_W@Z 0000000140047fc0 f   libucrtd:lcidtoname_downlevel.obj
 0001:00047170       ?_mbstowcs_internal@@YAHPEA_KPEA_W_KPEBD2AEAV__crt_cached_ptd_host@@@Z 0000000140048170 f   libucrtd:mbstowcs.obj
 0001:00047750       ?_mbstowcs_l_helper@@YA_KPEA_WPEBD_KAEAV__crt_cached_ptd_host@@@Z 0000000140048750 f   libucrtd:mbstowcs.obj
 0001:00047d00       ?_wcstombs_internal@@YAHPEA_KPEAD_KPEB_W2AEAV__crt_cached_ptd_host@@@Z 0000000140048d00 f   libucrtd:wcstombs.obj
 0001:000482d0       ?_wcstombs_l_helper@@YA_KPEADPEB_W_KAEAV__crt_cached_ptd_host@@@Z 00000001400492d0 f   libucrtd:wcstombs.obj
 0001:00048a60       ?wcsncnt@@YA_KPEB_W_K@Z    0000000140049a60 f   libucrtd:wcstombs.obj
 0001:00048b70       ??$common_tcscat_s@D@@YAHQEAD_KQEBD@Z 0000000140049b70 f   libucrtd:strcat_s.obj
 0001:00049210       $$000000                   000000014004a210     libucrtd:log10.obj
 0001:00049d50       ??$to_abstract_status@W4__acrt_fenv_machine_sse_status@@@@YA?AW4__acrt_fenv_abstract_status@@W4__acrt_fenv_machine_sse_status@@@Z 000000014004ad50 f   libucrtd:_fenvutils.obj
 0001:00049d70       ??$translate_control_exception_mask@W4__acrt_fenv_abstract_control@@W4__acrt_fenv_machine_sse_control@@@@YA?AW4__acrt_fenv_abstract_control@@W4__acrt_fenv_machine_sse_control@@@Z 000000014004ad70 f   libucrtd:_fenvutils.obj
 0001:00049e60       ??$translate_control_exception_mask@W4__acrt_fenv_machine_sse_control@@W4__acrt_fenv_abstract_control@@@@YA?AW4__acrt_fenv_machine_sse_control@@W4__acrt_fenv_abstract_control@@@Z 000000014004ae60 f   libucrtd:_fenvutils.obj
 0001:00049f50       ??$translate_control_rounding_control@W4__acrt_fenv_abstract_control@@W4__acrt_fenv_machine_sse_control@@@@YA?AW4__acrt_fenv_abstract_control@@W4__acrt_fenv_machine_sse_control@@@Z 000000014004af50 f   libucrtd:_fenvutils.obj
 0001:00049fc0       ??$translate_control_rounding_control@W4__acrt_fenv_machine_sse_control@@W4__acrt_fenv_abstract_control@@@@YA?AW4__acrt_fenv_machine_sse_control@@W4__acrt_fenv_abstract_control@@@Z 000000014004afc0 f   libucrtd:_fenvutils.obj
 0001:0004a030       ??$translate_status@W4__acrt_fenv_abstract_status@@W4__acrt_fenv_machine_sse_status@@@@YA?AW4__acrt_fenv_abstract_status@@W4__acrt_fenv_machine_sse_status@@@Z 000000014004b030 f   libucrtd:_fenvutils.obj
 0001:0004a120       ??$translate_status@W4__acrt_fenv_machine_sse_status@@W4__acrt_fenv_abstract_status@@@@YA?AW4__acrt_fenv_machine_sse_status@@W4__acrt_fenv_abstract_status@@@Z 000000014004b120 f   libucrtd:_fenvutils.obj
 0001:0004a3f0       ?get_machine_sse_control@@YA?AW4__acrt_fenv_machine_sse_control@@XZ 000000014004b3f0 f   libucrtd:_fenvutils.obj
 0001:0004a410       ?get_machine_sse_status@@YA?AW4__acrt_fenv_machine_sse_status@@XZ 000000014004b410 f   libucrtd:_fenvutils.obj
 0001:0004a430       ?set_machine_sse_control@@YAXW4__acrt_fenv_machine_sse_control@@@Z 000000014004b430 f   libucrtd:_fenvutils.obj
 0001:0004a490       ?set_machine_sse_status@@YAXW4__acrt_fenv_machine_sse_status@@@Z 000000014004b490 f   libucrtd:_fenvutils.obj
 0001:0004a4e0       ?to_abstract_control@@YA?AW4__acrt_fenv_abstract_control@@W4__acrt_fenv_machine_sse_control@@@Z 000000014004b4e0 f   libucrtd:_fenvutils.obj
 0001:0004a540       ?to_machine_sse_control@@YA?AW4__acrt_fenv_machine_sse_control@@W4__acrt_fenv_abstract_control@@@Z 000000014004b540 f   libucrtd:_fenvutils.obj
 0001:0004a5b0       ?to_machine_sse_status@@YA?AW4__acrt_fenv_machine_sse_status@@W4__acrt_fenv_abstract_status@@@Z 000000014004b5b0 f   libucrtd:_fenvutils.obj
 0001:0004a5d0       ?translate_control_denormal_control_from_sse@@YA?AW4__acrt_fenv_abstract_control@@W4__acrt_fenv_machine_sse_control@@@Z 000000014004b5d0 f   libucrtd:_fenvutils.obj
 0001:0004a650       ?translate_control_denormal_control_to_sse@@YA?AW4__acrt_fenv_machine_sse_control@@W4__acrt_fenv_abstract_control@@@Z 000000014004b650 f   libucrtd:_fenvutils.obj
 0001:0004ac10       ?_fclose_internal@@YAHQEAU_iobuf@@AEAV__crt_cached_ptd_host@@@Z 000000014004bc10 f   libucrtd:fclose.obj
 0001:0004ad70       ?_fclose_nolock_internal@@YAHQEAU_iobuf@@AEAV__crt_cached_ptd_host@@@Z 000000014004bd70 f   libucrtd:fclose.obj
 0001:0004af60       ??$?RV<lambda_7d29013d608e9f25a034de83c9b9e983>@@AEAV<lambda_3e4146214822e0ea86c47ff907aef2ff>@@V<lambda_b869e5a4e1069fcb5c3da79c0d999133>@@@?$__crt_seh_guarded_call@H@@QEAAH$$QEAV<lambda_7d29013d608e9f25a034de83c9b9e983>@@AEAV<lambda_3e4146214822e0ea86c47ff907aef2ff>@@$$QEAV<lambda_b869e5a4e1069fcb5c3da79c0d999133>@@@Z 000000014004bf60 f   libucrtd:commit.obj
 0001:0004afb0       ??$__acrt_lowio_lock_fh_and_call@V<lambda_3e4146214822e0ea86c47ff907aef2ff>@@@@YAHH$$QEAV<lambda_3e4146214822e0ea86c47ff907aef2ff>@@@Z 000000014004bfb0 f   libucrtd:commit.obj
 0001:0004b010       ??R<lambda_3e4146214822e0ea86c47ff907aef2ff>@@QEBAHXZ 000000014004c010 f   libucrtd:commit.obj
 0001:0004b0e0       ??R<lambda_19eaff14c5fe7be5b1b106a862eb1091>@@QEBAXXZ 000000014004c0e0 f   libucrtd:close.obj
 0001:0004b0e0       ??R<lambda_7d29013d608e9f25a034de83c9b9e983>@@QEBAXXZ 000000014004c0e0 f   libucrtd:commit.obj
 0001:0004b100       ??R<lambda_3ce37f5b621ab310299ea5f68cbdf3bb>@@QEBAXXZ 000000014004c100 f   libucrtd:close.obj
 0001:0004b100       ??R<lambda_b869e5a4e1069fcb5c3da79c0d999133>@@QEBAXXZ 000000014004c100 f   libucrtd:commit.obj
 0001:0004b300       ?write_binary_nolock@@YA?AUwrite_result@?A0x17268360@@HQEBDI@Z 000000014004c300 f   libucrtd:write.obj
 0001:0004b3d0       ?write_double_translated_ansi_nolock@@YA?AUwrite_result@?A0x17268360@@HQEBDIAEAV__crt_cached_ptd_host@@@Z 000000014004c3d0 f   libucrtd:write.obj
 0001:0004c130       ?write_double_translated_unicode_nolock@@YA?AUwrite_result@?A0x17268360@@QEBDI@Z 000000014004d130 f   libucrtd:write.obj
 0001:0004c290       ?write_requires_double_translation_nolock@@YA_NHAEAV__crt_cached_ptd_host@@@Z 000000014004d290 f   libucrtd:write.obj
 0001:0004c3a0       ?write_text_ansi_nolock@@YA?AUwrite_result@?A0x17268360@@HQEBDI@Z 000000014004d3a0 f   libucrtd:write.obj
 0001:0004c5d0       ?write_text_utf16le_nolock@@YA?AUwrite_result@?A0x17268360@@HQEBDI@Z 000000014004d5d0 f   libucrtd:write.obj
 0001:0004c820       ?write_text_utf8_nolock@@YA?AUwrite_result@?A0x17268360@@HQEBDI@Z 000000014004d820 f   libucrtd:write.obj
 0001:0004d5b0       ??$common_lseek_nolock@_J@@YA_JH_JHAEAV__crt_cached_ptd_host@@@Z 000000014004e5b0 f   libucrtd:lseek.obj
 0001:0004d6e0       ?common_lseek_do_seek_nolock@@YA_JQEAX_JHAEAV__crt_cached_ptd_host@@@Z 000000014004e6e0 f   libucrtd:lseek.obj
 0001:0004dab0       _log_special_common        000000014004eab0 f   libucrtd:log_special.obj
 0001:0004dbd0       _abstract_cw               000000014004ebd0 f   libucrtd:ieee.obj
 0001:0004dd20       _abstract_sw               000000014004ed20 f   libucrtd:ieee.obj
 0001:0004de00       _hw_cw                     000000014004ee00 f   libucrtd:ieee.obj
 0001:0004df50       common_control87           000000014004ef50 f   libucrtd:ieee.obj
 0001:0004e070       ??$?RV<lambda_19eaff14c5fe7be5b1b106a862eb1091>@@AEAV<lambda_af29824b49a67d335554598d6cad2be6>@@V<lambda_3ce37f5b621ab310299ea5f68cbdf3bb>@@@?$__crt_seh_guarded_call@H@@QEAAH$$QEAV<lambda_19eaff14c5fe7be5b1b106a862eb1091>@@AEAV<lambda_af29824b49a67d335554598d6cad2be6>@@$$QEAV<lambda_3ce37f5b621ab310299ea5f68cbdf3bb>@@@Z 000000014004f070 f   libucrtd:close.obj
 0001:0004e0c0       ??$__acrt_lowio_lock_fh_and_call@V<lambda_af29824b49a67d335554598d6cad2be6>@@@@YAHH$$QEAV<lambda_af29824b49a67d335554598d6cad2be6>@@@Z 000000014004f0c0 f   libucrtd:close.obj
 0001:0004e120       ??R<lambda_af29824b49a67d335554598d6cad2be6>@@QEBAHXZ 000000014004f120 f   libucrtd:close.obj
 0001:0004e1f0       ?close_os_handle_nolock@@YAKH@Z 000000014004f1f0 f   libucrtd:close.obj
 0001:0004e840       ?combine_second_surrogate@?A0xc60ee810@@YA_U_SPEAU_Mbstatet@@@Z 000000014004f840 f   libucrtd:c16rtomb.obj
 0001:0004e860       ?has_surrogate@?A0xc60ee810@@YA_NPEAU_Mbstatet@@@Z 000000014004f860 f   libucrtd:c16rtomb.obj
 0001:0004e890       ?is_first_surrogate@?A0xc60ee810@@YA_N_S@Z 000000014004f890 f   libucrtd:c16rtomb.obj
 0001:0004e8d0       ?is_second_surrogate@?A0xc60ee810@@YA_N_S@Z 000000014004f8d0 f   libucrtd:c16rtomb.obj
 0001:0004e910       ?store_first_surrogate@?A0xc60ee810@@YAX_SPEAU_Mbstatet@@@Z 000000014004f910 f   libucrtd:c16rtomb.obj
 0001:0004e950       ??$console_output_reopen_and_retry@V<lambda_61c1b8a38cedca4df5fdc542e6ccae6d>@@@@YAHAEBV<lambda_61c1b8a38cedca4df5fdc542e6ccae6d>@@@Z 000000014004f950 f   libucrtd:initcon.obj
 0001:0004e9b0       ??0<lambda_61c1b8a38cedca4df5fdc542e6ccae6d>@@QEAA@AEBQEBXAEBKAEBQEAK@Z 000000014004f9b0 f   libucrtd:initcon.obj
 0001:0004ea00       ??R<lambda_61c1b8a38cedca4df5fdc542e6ccae6d>@@QEBAHXZ 000000014004fa00 f   libucrtd:initcon.obj
 0001:0004ea40       ?__dcrt_lowio_initialize_console_output@@YAXXZ 000000014004fa40 f   libucrtd:initcon.obj
 0001:0004ee30       $$000000                   000000014004fe30     LIBCMTD:chkstk.obj
 0001:0004f420       $$000000                   0000000140050420     LIBCMTD:guard_dispatch.obj
 0001:0004f440       $$000000                   0000000140050440     LIBCMTD:guard_xfg_dispatch.obj
 0001:0004f480       $$000000                   0000000140050480     libvcruntimed:memcpy.obj
 0001:0004f490       $$000000                   0000000140050490     libvcruntimed:memcpy.obj
 0001:0004f4be       MoveSmall0                 00000001400504be     libvcruntimed:memcpy.obj
 0001:0004f4c0       MoveSmall15                00000001400504c0     libvcruntimed:memcpy.obj
 0001:0004f4e0       MoveSmall11                00000001400504e0     libvcruntimed:memcpy.obj
 0001:0004f4f8       MoveSmall2                 00000001400504f8     libvcruntimed:memcpy.obj
 0001:0004f500       MoveSmall7                 0000000140050500     libvcruntimed:memcpy.obj
 0001:0004f518       MoveSmall14                0000000140050518     libvcruntimed:memcpy.obj
 0001:0004f52f       MoveSmall3                 000000014005052f     libvcruntimed:memcpy.obj
 0001:0004f540       MoveSmall13                0000000140050540     libvcruntimed:memcpy.obj
 0001:0004f556       MoveSmall10                0000000140050556     libvcruntimed:memcpy.obj
 0001:0004f565       MoveSmall9                 0000000140050565     libvcruntimed:memcpy.obj
 0001:0004f573       MoveSmall12                0000000140050573     libvcruntimed:memcpy.obj
 0001:0004f580       MoveSmall6                 0000000140050580     libvcruntimed:memcpy.obj
 0001:0004f58f       MoveSmall5                 000000014005058f     libvcruntimed:memcpy.obj
 0001:0004f59d       MoveSmall8                 000000014005059d     libvcruntimed:memcpy.obj
 0001:0004f5a4       MoveSmall1                 00000001400505a4     libvcruntimed:memcpy.obj
 0001:0004f5aa       MoveSmall4                 00000001400505aa     libvcruntimed:memcpy.obj
 0001:0004f5b0       MoveAbove15                00000001400505b0     libvcruntimed:memcpy.obj
 0001:0004f5cd       MoveAbove32                00000001400505cd     libvcruntimed:memcpy.obj
 0001:0004f60d       MoveWithYMM                000000014005060d     libvcruntimed:memcpy.obj
 0001:0004f660       YmmLoop                    0000000140050660     libvcruntimed:memcpy.obj
 0001:0004f6e8       MovUpTo256WithYMM          00000001400506e8     libvcruntimed:memcpy.obj
 0001:0004f705       Mov8YmmBlocks              0000000140050705     libvcruntimed:memcpy.obj
 0001:0004f719       Mov7YmmBlocks              0000000140050719     libvcruntimed:memcpy.obj
 0001:0004f72d       Mov6YmmBlocks              000000014005072d     libvcruntimed:memcpy.obj
 0001:0004f741       Mov5YmmBlocks              0000000140050741     libvcruntimed:memcpy.obj
 0001:0004f755       Mov4YmmBlocks              0000000140050755     libvcruntimed:memcpy.obj
 0001:0004f763       Mov3YmmBlocks              0000000140050763     libvcruntimed:memcpy.obj
 0001:0004f771       Mov2YmmBlocks              0000000140050771     libvcruntimed:memcpy.obj
 0001:0004f77f       Mov1YmmBlocks              000000014005077f     libvcruntimed:memcpy.obj
 0001:0004f786       Mov0YmmBlocks              0000000140050786     libvcruntimed:memcpy.obj
 0001:0004f790       YmmLoopNT                  0000000140050790     libvcruntimed:memcpy.obj
 0001:0004f835       Mov8YmmBlocksNT            0000000140050835     libvcruntimed:memcpy.obj
 0001:0004f849       Mov7YmmBlocksNT            0000000140050849     libvcruntimed:memcpy.obj
 0001:0004f85d       Mov6YmmBlocksNT            000000014005085d     libvcruntimed:memcpy.obj
 0001:0004f871       Mov5YmmBlocksNT            0000000140050871     libvcruntimed:memcpy.obj
 0001:0004f885       Mov4YmmBlocksNT            0000000140050885     libvcruntimed:memcpy.obj
 0001:0004f893       Mov3YmmBlocksNT            0000000140050893     libvcruntimed:memcpy.obj
 0001:0004f8a1       Mov2YmmBlocksNT            00000001400508a1     libvcruntimed:memcpy.obj
 0001:0004f8af       Mov1YmmBlocksNT            00000001400508af     libvcruntimed:memcpy.obj
 0001:0004f8b6       Mov0YmmBlocksNT            00000001400508b6     libvcruntimed:memcpy.obj
 0001:0004f8d0       NoAVX                      00000001400508d0     libvcruntimed:memcpy.obj
 0001:0004f8e6       MoveWithXMM                00000001400508e6     libvcruntimed:memcpy.obj
 0001:0004f920       XmmLoop                    0000000140050920     libvcruntimed:memcpy.obj
 0001:0004f98c       MovUpTo128WithXMM          000000014005098c     libvcruntimed:memcpy.obj
 0001:0004f9a9       Mov8XmmBlocks              00000001400509a9     libvcruntimed:memcpy.obj
 0001:0004f9b7       Mov7XmmBlocks              00000001400509b7     libvcruntimed:memcpy.obj
 0001:0004f9c5       Mov6XmmBlocks              00000001400509c5     libvcruntimed:memcpy.obj
 0001:0004f9d3       Mov5XmmBlocks              00000001400509d3     libvcruntimed:memcpy.obj
 0001:0004f9e1       Mov4XmmBlocks              00000001400509e1     libvcruntimed:memcpy.obj
 0001:0004f9ef       Mov3XmmBlocks              00000001400509ef     libvcruntimed:memcpy.obj
 0001:0004f9fd       Mov2XmmBlocks              00000001400509fd     libvcruntimed:memcpy.obj
 0001:0004fa0b       Mov1XmmBlocks              0000000140050a0b     libvcruntimed:memcpy.obj
 0001:0004fa12       Mov0XmmBlocks              0000000140050a12     libvcruntimed:memcpy.obj
 0001:0004fa20       CopyDown                   0000000140050a20     libvcruntimed:memcpy.obj
 0001:0004fa3b       XmmMovAlign                0000000140050a3b     libvcruntimed:memcpy.obj
 0001:0004fa53       XmmMovLargeTest            0000000140050a53     libvcruntimed:memcpy.obj
 0001:0004fa70       XmmMovLargeOuter           0000000140050a70     libvcruntimed:memcpy.obj
 0001:0004fa77       XmmMovLargeInner           0000000140050a77     libvcruntimed:memcpy.obj
 0001:0004facd       XmmMovSmallTest            0000000140050acd     libvcruntimed:memcpy.obj
 0001:0004fae0       XmmMovSmallLoop            0000000140050ae0     libvcruntimed:memcpy.obj
 0001:0004faf0       XmmMovTrailing             0000000140050af0     libvcruntimed:memcpy.obj
 0001:0004faf9       XmmMovReturn               0000000140050af9     libvcruntimed:memcpy.obj
 0001:0004fb20       $$000000                   0000000140050b20     libvcruntimed:memset.obj
 0001:0004fb30       $$000000                   0000000140050b30     libvcruntimed:memset.obj
 0001:0004fb71       SetSmall15                 0000000140050b71     libvcruntimed:memset.obj
 0001:0004fb75       SetSmall7                  0000000140050b75     libvcruntimed:memset.obj
 0001:0004fb79       SetSmall3                  0000000140050b79     libvcruntimed:memset.obj
 0001:0004fb7e       SetSmall1                  0000000140050b7e     libvcruntimed:memset.obj
 0001:0004fb82       SetSmall0                  0000000140050b82     libvcruntimed:memset.obj
 0001:0004fb83       SetSmall14                 0000000140050b83     libvcruntimed:memset.obj
 0001:0004fb87       SetSmall6                  0000000140050b87     libvcruntimed:memset.obj
 0001:0004fb8b       SetSmall2                  0000000140050b8b     libvcruntimed:memset.obj
 0001:0004fb90       MoveSmall0                 0000000140050b90     libvcruntimed:memset.obj
 0001:0004fba0       SetSmall13                 0000000140050ba0     libvcruntimed:memset.obj
 0001:0004fba4       SetSmall5                  0000000140050ba4     libvcruntimed:memset.obj
 0001:0004fbb0       SetSmall12                 0000000140050bb0     libvcruntimed:memset.obj
 0001:0004fbb4       SetSmall4                  0000000140050bb4     libvcruntimed:memset.obj
 0001:0004fbb9       SetSmall11                 0000000140050bb9     libvcruntimed:memset.obj
 0001:0004fbc7       SetSmall9                  0000000140050bc7     libvcruntimed:memset.obj
 0001:0004fbd0       SetSmall10                 0000000140050bd0     libvcruntimed:memset.obj
 0001:0004fbda       SetSmall8                  0000000140050bda     libvcruntimed:memset.obj
 0001:0004fbe0       SetAbove15                 0000000140050be0     libvcruntimed:memset.obj
 0001:0004fbf6       SetAbove32                 0000000140050bf6     libvcruntimed:memset.obj
 0001:0004fc22       SetWithYMM                 0000000140050c22     libvcruntimed:memset.obj
 0001:0004fc60       YmmLoop                    0000000140050c60     libvcruntimed:memset.obj
 0001:0004fcaa       SetUpTo256WithYMM          0000000140050caa     libvcruntimed:memset.obj
 0001:0004fcc7       Set8YmmBlocks              0000000140050cc7     libvcruntimed:memset.obj
 0001:0004fcd1       Set7YmmBlocks              0000000140050cd1     libvcruntimed:memset.obj
 0001:0004fcdb       Set6YmmBlocks              0000000140050cdb     libvcruntimed:memset.obj
 0001:0004fce5       Set5YmmBlocks              0000000140050ce5     libvcruntimed:memset.obj
 0001:0004fcef       Set4YmmBlocks              0000000140050cef     libvcruntimed:memset.obj
 0001:0004fcf6       Set3YmmBlocks              0000000140050cf6     libvcruntimed:memset.obj
 0001:0004fcfd       Set2YmmBlocks              0000000140050cfd     libvcruntimed:memset.obj
 0001:0004fd04       Set1YmmBlocks              0000000140050d04     libvcruntimed:memset.obj
 0001:0004fd0b       Set0YmmBlocks              0000000140050d0b     libvcruntimed:memset.obj
 0001:0004fd13       SetWithYMMNT               0000000140050d13     libvcruntimed:memset.obj
 0001:0004fd20       YmmLoopNT                  0000000140050d20     libvcruntimed:memset.obj
 0001:0004fd87       Set8YmmBlocksNT            0000000140050d87     libvcruntimed:memset.obj
 0001:0004fd91       Set7YmmBlocksNT            0000000140050d91     libvcruntimed:memset.obj
 0001:0004fd9b       Set6YmmBlocksNT            0000000140050d9b     libvcruntimed:memset.obj
 0001:0004fda5       Set5YmmBlocksNT            0000000140050da5     libvcruntimed:memset.obj
 0001:0004fdaf       Set4YmmBlocksNT            0000000140050daf     libvcruntimed:memset.obj
 0001:0004fdb6       Set3YmmBlocksNT            0000000140050db6     libvcruntimed:memset.obj
 0001:0004fdbd       Set2YmmBlocksNT            0000000140050dbd     libvcruntimed:memset.obj
 0001:0004fdc4       Set1YmmBlocksNT            0000000140050dc4     libvcruntimed:memset.obj
 0001:0004fdcb       Set0YmmBlocksNT            0000000140050dcb     libvcruntimed:memset.obj
 0001:0004fde0       NoAVX                      0000000140050de0     libvcruntimed:memset.obj
 0001:0004fdf6       SetWithXMM                 0000000140050df6     libvcruntimed:memset.obj
 0001:0004fe20       XmmLoop                    0000000140050e20     libvcruntimed:memset.obj
 0001:0004fe5e       SetUpTo128WithXMM          0000000140050e5e     libvcruntimed:memset.obj
 0001:0004fe7b       Set8XmmBlocks              0000000140050e7b     libvcruntimed:memset.obj
 0001:0004fe82       Set7XmmBlocks              0000000140050e82     libvcruntimed:memset.obj
 0001:0004fe89       Set6XmmBlocks              0000000140050e89     libvcruntimed:memset.obj
 0001:0004fe90       Set5XmmBlocks              0000000140050e90     libvcruntimed:memset.obj
 0001:0004fe97       Set4XmmBlocks              0000000140050e97     libvcruntimed:memset.obj
 0001:0004fe9e       Set3XmmBlocks              0000000140050e9e     libvcruntimed:memset.obj
 0001:0004fea5       Set2XmmBlocks              0000000140050ea5     libvcruntimed:memset.obj
 0001:0004feac       Set1XmmBlocks              0000000140050eac     libvcruntimed:memset.obj
 0001:0004feb3       Set0XmmBlocks              0000000140050eb3     libvcruntimed:memset.obj
 0001:0004fed0       update_and_render$dtor$0   0000000140050ed0 f   main.obj
 0001:0004fef0       ?filt$0@?0??__scrt_common_main_seh@@YAHXZ@4HA 0000000140050ef0 f   LIBCMTD:exe_winmain.obj
 0001:0004ff20       __scrt_is_nonwritable_in_current_image$filt$0 0000000140050f20 f   LIBCMTD:utility.obj
 0001:0004ff60       ?filt$0@?0???$_CallSETranslator@V__FrameHandler3@@@@YAHPEAUEHExceptionRecord@@PEA_KPEAU_CONTEXT@@PEAU_xDISPATCHER_CONTEXT@@PEBU_s_FuncInfo@@K1H@Z@4HA 0000000140050f60 f   libvcruntimed:risctrnsctrl.obj
 0001:0004ffd0       ?filt$0@?0???$_CallSETranslator@V__FrameHandler4@@@@YAHPEAUEHExceptionRecord@@PEA_KPEAU_CONTEXT@@PEAU_xDISPATCHER_CONTEXT@@PEAUFuncInfo4@FH4@@K1H@Z@4HA 0000000140050fd0 f   libvcruntimed:risctrnsctrl.obj
 0001:00050040       __DestructExceptionObject$filt$0 0000000140051040 f   libvcruntimed:ehhelpers.obj
 0001:00050070       ?filt$0@?0??is_bad_read_pointer@@YA_NQEBX_K@Z@4HA 0000000140051070 f   libucrtd:debug_heap.obj
 0001:00050070       terminate$filt$0           0000000140051070 f   libucrtd:terminate.obj
 0001:00050070       ?filt$0@?0???$BuildCatchObjectHelperInternal@V__FrameHandler3@@@@YAHPEAUEHExceptionRecord@@PEAXPEBU_s_HandlerType@@PEBU_s_CatchableType@@@Z@4HA 0000000140051070 f   libvcruntimed:frame.obj
 0001:00050070       ?filt$0@?0???$BuildCatchObjectHelperInternal@V__FrameHandler4@@@@YAHPEAUEHExceptionRecord@@PEAXPEAUHandlerType4@FH4@@PEBU_s_CatchableType@@@Z@4HA 0000000140051070 f   libvcruntimed:frame.obj
 0001:00050070       ?filt$0@?0???$BuildCatchObjectInternal@V__FrameHandler3@@@@YAXPEAUEHExceptionRecord@@PEAXPEBU_s_HandlerType@@PEBU_s_CatchableType@@@Z@4HA 0000000140051070 f   libvcruntimed:frame.obj
 0001:00050070       ?filt$0@?0???$BuildCatchObjectInternal@V__FrameHandler4@@@@YAXPEAUEHExceptionRecord@@PEAXPEAUHandlerType4@FH4@@PEBU_s_CatchableType@@@Z@4HA 0000000140051070 f   libvcruntimed:frame.obj
 0001:00050090       ?fin$0@?0???$__InternalCxxFrameHandlerWrapper@V__FrameHandler4@@@@YA?AW4_EXCEPTION_DISPOSITION@@PEAUEHExceptionRecord@@PEA_KPEAU_CONTEXT@@PEAU_xDISPATCHER_CONTEXT@@PEAUFuncInfo4@FH4@@H1E@Z@4HA 0000000140051090 f   libvcruntimed:frame.obj
 0001:000500b0       ?filt$0@?0??CxxCallCatchBlock@__FrameHandler3@@SAPEAXPEAU_EXCEPTION_RECORD@@@Z@4HA 00000001400510b0 f   libvcruntimed:frame.obj
 0001:000500d9       ?fin$1@?0??CxxCallCatchBlock@__FrameHandler3@@SAPEAXPEAU_EXCEPTION_RECORD@@@Z@4HA 00000001400510d9 f   libvcruntimed:frame.obj
 0001:00050180       ?filt$0@?0??CxxCallCatchBlock@__FrameHandler4@@SAPEAXPEAU_EXCEPTION_RECORD@@@Z@4HA 0000000140051180 f   libvcruntimed:frame.obj
 0001:000501b3       ?fin$1@?0??CxxCallCatchBlock@__FrameHandler4@@SAPEAXPEAU_EXCEPTION_RECORD@@@Z@4HA 00000001400511b3 f   libvcruntimed:frame.obj
 0001:00050260       ?filt$0@?0??FrameUnwindToState@__FrameHandler3@@SAXPEA_KPEAU_xDISPATCHER_CONTEXT@@PEBU_s_FuncInfo@@H@Z@4HA 0000000140051260 f   libvcruntimed:frame.obj
 0001:00050281       ?fin$1@?0??FrameUnwindToState@__FrameHandler3@@SAXPEA_KPEAU_xDISPATCHER_CONTEXT@@PEBU_s_FuncInfo@@H@Z@4HA 0000000140051281 f   libvcruntimed:frame.obj
 0001:000502c0       ?filt$0@?0??FrameUnwindToState@__FrameHandler4@@SAXPEA_KPEAU_xDISPATCHER_CONTEXT@@PEAUFuncInfo4@FH4@@H@Z@4HA 00000001400512c0 f   libvcruntimed:frame.obj
 0001:000502e7       ?fin$1@?0??FrameUnwindToState@__FrameHandler4@@SAXPEA_KPEAU_xDISPATCHER_CONTEXT@@PEAUFuncInfo4@FH4@@H@Z@4HA 00000001400512e7 f   libvcruntimed:frame.obj
 0001:00050320       ?fin$0@?0???$?RV<lambda_0ae27a3a962d80f24befdcbee591983d>@@AEAV<lambda_8d0ee55de4b1038c4002e0adecdf1839>@@V<lambda_dc504788e8f1664fe9b84e20bfb512f2>@@@?$__crt_seh_guarded_call@X@@QEAAX$$QEAV<lambda_0ae27a3a962d80f24befdcbee591983d>@@AEAV<lambda_8d0ee55de4b1038c4002e0adecdf1839>@@$$QEAV<lambda_dc504788e8f1664fe9b84e20bfb512f2>@@@Z@4HA 0000000140051320 f   libucrtd:per_thread_data.obj
 0001:00050320       ?fin$0@?0???$?RV<lambda_2d41944a1d46af3157314b8a01080d33>@@AEAV<lambda_8f455de75cd7d7f24b4096f044d8b9e6>@@V<lambda_aa500f224e6afead328df44964fe2772>@@@?$__crt_seh_guarded_call@X@@QEAAX$$QEAV<lambda_2d41944a1d46af3157314b8a01080d33>@@AEAV<lambda_8f455de75cd7d7f24b4096f044d8b9e6>@@$$QEAV<lambda_aa500f224e6afead328df44964fe2772>@@@Z@4HA 0000000140051320 f   libucrtd:per_thread_data.obj
 0001:00050320       ?fin$0@?0???$?RV<lambda_74a0ef281e44d15e1136f792f539efb3>@@AEAV<lambda_e157831efee4ea0afb0a2ace5dd5fd0d>@@V<lambda_04ddeca75b7c13fd67716e8dfcef87ee>@@@?$__crt_seh_guarded_call@X@@QEAAX$$QEAV<lambda_74a0ef281e44d15e1136f792f539efb3>@@AEAV<lambda_e157831efee4ea0afb0a2ace5dd5fd0d>@@$$QEAV<lambda_04ddeca75b7c13fd67716e8dfcef87ee>@@@Z@4HA 0000000140051320 f   libucrtd:per_thread_data.obj
 0001:00050320       ?fin$0@?0???$?RV<lambda_aa87e3671a710a21b5dc78c0bdf72e11>@@AEAV<lambda_92619d2358a28f41a33ba319515a20b9>@@V<lambda_6992ecaafeb10aed2b74cb1fae11a551>@@@?$__crt_seh_guarded_call@X@@QEAAX$$QEAV<lambda_aa87e3671a710a21b5dc78c0bdf72e11>@@AEAV<lambda_92619d2358a28f41a33ba319515a20b9>@@$$QEAV<lambda_6992ecaafeb10aed2b74cb1fae11a551>@@@Z@4HA 0000000140051320 f   libucrtd:per_thread_data.obj
 0001:00050320       ?fin$0@?0???$?RV<lambda_410d79af7f07d98d83a3f525b3859a53>@@AEAV<lambda_3e16ef9562a7dcce91392c22ab16ea36>@@V<lambda_38119f0e861e05405d8a144b9b982f0a>@@@?$__crt_seh_guarded_call@X@@QEAAX$$QEAV<lambda_410d79af7f07d98d83a3f525b3859a53>@@AEAV<lambda_3e16ef9562a7dcce91392c22ab16ea36>@@$$QEAV<lambda_38119f0e861e05405d8a144b9b982f0a>@@@Z@4HA 0000000140051320 f   libucrtd:wsetlocale.obj
 0001:00050320       ?fin$0@?0???$?RV<lambda_efa02eb69bf647d2f7ff0dd6f1103f72>@@AEAV<lambda_bd5a608237428601b7e45fbdc72b1ae8>@@V<lambda_728235dc0fc2b1f82d1fa5b3e7102d8f>@@@?$__crt_seh_guarded_call@X@@QEAAX$$QEAV<lambda_efa02eb69bf647d2f7ff0dd6f1103f72>@@AEAV<lambda_bd5a608237428601b7e45fbdc72b1ae8>@@$$QEAV<lambda_728235dc0fc2b1f82d1fa5b3e7102d8f>@@@Z@4HA 0000000140051320 f   libucrtd:mbctype.obj
 0001:00050320       ?fin$0@?0???$?RV<lambda_d80eeec6fff315bfe5c115232f3240e3>@@AEAV<lambda_6e4b09c48022b2350581041d5f6b0c4c>@@V<lambda_2358e3775559c9db80273638284d5e45>@@@?$__crt_seh_guarded_call@X@@QEAAX$$QEAV<lambda_d80eeec6fff315bfe5c115232f3240e3>@@AEAV<lambda_6e4b09c48022b2350581041d5f6b0c4c>@@$$QEAV<lambda_2358e3775559c9db80273638284d5e45>@@@Z@4HA 0000000140051320 f   libucrtd:exit.obj
 0001:00050320       ?fin$0@?0???$?RV<lambda_886d6c58226a84441f68b9f2b8217b83>@@AEAV<lambda_ab61a845afdef5b7c387490eaf3616ee>@@V<lambda_f7f22ab5edc0698d5f6905b0d3f44752>@@@?$__crt_seh_guarded_call@X@@QEAAX$$QEAV<lambda_886d6c58226a84441f68b9f2b8217b83>@@AEAV<lambda_ab61a845afdef5b7c387490eaf3616ee>@@$$QEAV<lambda_f7f22ab5edc0698d5f6905b0d3f44752>@@@Z@4HA 0000000140051320 f   libucrtd:fflush.obj
 0001:00050340       ?filt$0@?0???R<lambda_6e4b09c48022b2350581041d5f6b0c4c>@@QEBA@XZ@4HA 0000000140051340 f   libucrtd:exit.obj
 0001:00050370       ?fin$0@?0???$?RV<lambda_450d765d439847d4c735a33c368b5fc0>@@AEAV<lambda_44731a7d0e6d81c3e6aa82d741081786>@@V<lambda_601a2a7da3b7a96e9554ac7215c4b07c>@@@?$__crt_seh_guarded_call@P6AXH@Z@@QEAAP6AXH@Z$$QEAV<lambda_450d765d439847d4c735a33c368b5fc0>@@AEAV<lambda_44731a7d0e6d81c3e6aa82d741081786>@@$$QEAV<lambda_601a2a7da3b7a96e9554ac7215c4b07c>@@@Z@4HA 0000000140051370 f   libucrtd:signal.obj
 0001:00050370       ?fin$0@?0???$?RV<lambda_6a47f4c8fd0152770a780fc1d70204eb>@@AEAV<lambda_d121dba8a4adeaf3a9819e48611155df>@@V<lambda_6aaa2265f5b6a89667e7d7630012e97a>@@@?$__crt_seh_guarded_call@H@@QEAAH$$QEAV<lambda_6a47f4c8fd0152770a780fc1d70204eb>@@AEAV<lambda_d121dba8a4adeaf3a9819e48611155df>@@$$QEAV<lambda_6aaa2265f5b6a89667e7d7630012e97a>@@@Z@4HA 0000000140051370 f   libucrtd:onexit.obj
 0001:00050370       ?fin$0@?0???$?RV<lambda_80060f20ac3990516b753a27f211934c>@@AEAV<lambda_208ce30acdd7200aa596f2796f4d5154>@@V<lambda_fd91b99c0687e8936f1d70d7d9b78e69>@@@?$__crt_seh_guarded_call@H@@QEAAH$$QEAV<lambda_80060f20ac3990516b753a27f211934c>@@AEAV<lambda_208ce30acdd7200aa596f2796f4d5154>@@$$QEAV<lambda_fd91b99c0687e8936f1d70d7d9b78e69>@@@Z@4HA 0000000140051370 f   libucrtd:onexit.obj
 0001:00050390       ?dtor$0@?0???R<lambda_d121dba8a4adeaf3a9819e48611155df>@@QEBAHXZ@4HA 0000000140051390 f   libucrtd:onexit.obj
 0001:000503b0       ?fin$0@?0??heap_alloc_dbg_internal@@YAPEAX_KHQEBDH@Z@4HA 00000001400513b0 f   libucrtd:debug_heap.obj
 0001:000503b0       _CrtMemCheckpoint$fin$0    00000001400513b0 f   libucrtd:debug_heap.obj
 0001:000503d0       ?fin$0@?0??validate_heap_if_required_nolock@@YAXXZ@4HA 00000001400513d0 f   libucrtd:debug_heap.obj
 0001:000503f0       _CrtCheckMemory$fin$0      00000001400513f0 f   libucrtd:debug_heap.obj
 0001:000503f0       _CrtMemDumpAllObjectsSince$fin$0 00000001400513f0 f   libucrtd:debug_heap.obj
 0001:000503f0       _CrtSetDbgFlag$fin$0       00000001400513f0 f   libucrtd:debug_heap.obj
 0001:000503f0       _msize_dbg$fin$0           00000001400513f0 f   libucrtd:debug_heap.obj
 0001:000503f0       _realloc_dbg$fin$0         00000001400513f0 f   libucrtd:debug_heap.obj
 0001:00050410       _free_dbg$fin$0            0000000140051410 f   libucrtd:debug_heap.obj
 0001:00050410       _query_new_handler$fin$0   0000000140051410 f   libucrtd:new_handler.obj
 0001:00050430       __acrt_initialize_lowio$fin$0 0000000140051430 f   libucrtd:ioinit.obj
 0001:00050450       _ctrlfp$filt$0             0000000140051450 f   libucrtd:fpctrl.obj
 0001:000504a0       ?fin$0@?0??update_thread_multibyte_data_internal@@YAPEAU__crt_multibyte_data@@QEAU__acrt_ptd@@QEAPEAU1@@Z@4HA 00000001400514a0 f   libucrtd:mbctype.obj
 0001:000504c0       __acrt_lowio_ensure_fh_exists$fin$0 00000001400514c0 f   libucrtd:osfinfo.obj
 0001:000504e0       __acrt_update_thread_locale_data$fin$0 00000001400514e0 f   libucrtd:locale_refcounting.obj
 0001:00050500       raise$fin$0                0000000140051500 f   libucrtd:signal.obj
 0001:00050530       _VCrtDbgReportA$fin$0      0000000140051530 f   libucrtd:dbgrptt.obj
 0001:0005054b       _VCrtDbgReportA$fin$1      000000014005154b f   libucrtd:dbgrptt.obj
 0001:00050570       _VCrtDbgReportW$fin$0      0000000140051570 f   libucrtd:dbgrptt.obj
 0001:0005058b       _VCrtDbgReportW$fin$1      000000014005158b f   libucrtd:dbgrptt.obj
 0001:000505b0       _fcloseall$fin$0           00000001400515b0 f   libucrtd:closeall.obj
 0001:000505d0       ?fin$0@?0???$?RV<lambda_842d9ff0dc9ef11c61343bbaebe7f885>@@AEAV<lambda_c5860995281e5c4ce005b3de8f5874ee>@@V<lambda_d90129c13df834fdcbf8d2b88dafcf2d>@@@?$__crt_seh_guarded_call@X@@QEAAX$$QEAV<lambda_842d9ff0dc9ef11c61343bbaebe7f885>@@AEAV<lambda_c5860995281e5c4ce005b3de8f5874ee>@@$$QEAV<lambda_d90129c13df834fdcbf8d2b88dafcf2d>@@@Z@4HA 00000001400515d0 f   libucrtd:fflush.obj
 0001:000505f0       ?dtor$0@?0??shortsort@@YAXPEAD0_KP6AHPEBX2@Z@Z@4HA 00000001400515f0 f   libucrtd:qsort.obj
 0001:00050610       ?fin$0@?0??_fclose_internal@@YAHQEAU_iobuf@@AEAV__crt_cached_ptd_host@@@Z@4HA 0000000140051610 f   libucrtd:fclose.obj
 0001:00050640       ?fin$0@?0???$?RV<lambda_19eaff14c5fe7be5b1b106a862eb1091>@@AEAV<lambda_af29824b49a67d335554598d6cad2be6>@@V<lambda_3ce37f5b621ab310299ea5f68cbdf3bb>@@@?$__crt_seh_guarded_call@H@@QEAAH$$QEAV<lambda_19eaff14c5fe7be5b1b106a862eb1091>@@AEAV<lambda_af29824b49a67d335554598d6cad2be6>@@$$QEAV<lambda_3ce37f5b621ab310299ea5f68cbdf3bb>@@@Z@4HA 0000000140051640 f   libucrtd:close.obj
 0001:00050640       ?fin$0@?0???$?RV<lambda_7d29013d608e9f25a034de83c9b9e983>@@AEAV<lambda_3e4146214822e0ea86c47ff907aef2ff>@@V<lambda_b869e5a4e1069fcb5c3da79c0d999133>@@@?$__crt_seh_guarded_call@H@@QEAAH$$QEAV<lambda_7d29013d608e9f25a034de83c9b9e983>@@AEAV<lambda_3e4146214822e0ea86c47ff907aef2ff>@@$$QEAV<lambda_b869e5a4e1069fcb5c3da79c0d999133>@@@Z@4HA 0000000140051640 f   libucrtd:commit.obj
 0001:00050660       _write_internal$fin$0      0000000140051660 f   libucrtd:write.obj
 0001:00050680       common_control87$filt$0    0000000140051680 f   libucrtd:ieee.obj
 0001:000506d0       _IsNonwritableInCurrentImage$filt$0 00000001400516d0 f   LIBCMTD:pesect.obj
 0002:00000450       ?pre_cpp_initializer@@3P6AXXZEA 0000000140052450     LIBCMTD:exe_winmain.obj
 0002:00000468       ?pre_c_initializer@@3P6AHXZEA 0000000140052468     LIBCMTD:exe_winmain.obj
 0002:00000470       ?post_pgo_initializer@@3P6AHXZEA 0000000140052470     LIBCMTD:exe_winmain.obj
 0002:000004f0       $SG126272                  00000001400524f0     main.obj
 0002:00000500       $SG126273                  0000000140052500     main.obj
 0002:00000538       $SG126275                  0000000140052538     main.obj
 0002:00000570       $SG126305                  0000000140052570     main.obj
 0002:00000580       $SG126396                  0000000140052580     main.obj
 0002:00000598       $SG126397                  0000000140052598     main.obj
 0002:000005a8       $SG126408                  00000001400525a8     main.obj
 0002:000005c8       $SG94418                   00000001400525c8     main.obj
 0002:000005d4       $SG95905                   00000001400525d4     main.obj
 0002:000005e0       $SG95906                   00000001400525e0     main.obj
 0002:00000608       $SG97481                   0000000140052608     main.obj
 0002:00000618       $SG97482                   0000000140052618     main.obj
 0002:00000628       $SG97483                   0000000140052628     main.obj
 0002:00000638       $SG97484                   0000000140052638     main.obj
 0002:00000648       $SG97643                   0000000140052648     main.obj
 0002:00000660       $SG97644                   0000000140052660     main.obj
 0002:00000750       GS_ExceptionPointers       0000000140052750     LIBCMTD:gs_report.obj
 0002:00000780       ?ExceptionTemplate@?1??UnwindNestedFrames@__FrameHandler4@@SAXPEA_KPEAUEHExceptionRecord@@PEAU_CONTEXT@@0PEAXPEAUFuncInfo4@FH4@@HHPEAUHandlerType4@6@PEAU_xDISPATCHER_CONTEXT@@E@Z@4U_EXCEPTION_RECORD@@B 0000000140052780     libvcruntimed:risctrnsctrl.obj
 0002:00000820       ?ExceptionTemplate@?1??UnwindNestedFrames@__FrameHandler3@@SAXPEA_KPEAUEHExceptionRecord@@PEAU_CONTEXT@@0PEAXPEBU_s_FuncInfo@@HHPEBU_s_HandlerType@@PEAU_xDISPATCHER_CONTEXT@@E@Z@4U_EXCEPTION_RECORD@@B 0000000140052820     libvcruntimed:risctrnsctrl.obj
 0002:00000970       ?tokenTable@@3QBUStringLiteral@@B 0000000140052970     libvcruntimed:undname.obj
 0002:00000a80       ?nameTable@@3QBUStringLiteral@@B 0000000140052a80     libvcruntimed:undname.obj
 0002:00000fb0       ?rttiTable@@3QBUStringLiteral@@B 0000000140052fb0     libvcruntimed:undname.obj
 0002:00001000       ?IndirectionName@@3QBUStringLiteral@@B 0000000140053000     libvcruntimed:undname.obj
 0002:00001060       ?PrefixName@@3QBUStringLiteral@@B 0000000140053060     libvcruntimed:undname.obj
 0002:00001750       ?module_names@?A0x14174aea@@3QBQEB_WB 0000000140053750     libvcruntimed:winapi_downlevel.obj
 0002:000019c0       ?candidate_modules@?1??try_get_FlsAlloc@@YAP6AKP6AXPEAX@Z@ZXZ@4QBW4module_id@?A0x14174aea@@B 00000001400539c0     libvcruntimed:winapi_downlevel.obj
 0002:000019d8       ?candidate_modules@?1??try_get_FlsFree@@YAP6AHK@ZXZ@4QBW4module_id@?A0x14174aea@@B 00000001400539d8     libvcruntimed:winapi_downlevel.obj
 0002:000019e8       ?candidate_modules@?1??try_get_FlsGetValue@@YAP6APEAXK@ZXZ@4QBW4module_id@?A0x14174aea@@B 00000001400539e8     libvcruntimed:winapi_downlevel.obj
 0002:00001a00       ?candidate_modules@?1??try_get_FlsSetValue@@YAP6AHKPEAX@ZXZ@4QBW4module_id@?A0x14174aea@@B 0000000140053a00     libvcruntimed:winapi_downlevel.obj
 0002:00001a18       ?candidate_modules@?1??try_get_InitializeCriticalSectionEx@@YAP6AHPEAU_RTL_CRITICAL_SECTION@@KK@ZXZ@4QBW4module_id@?A0x14174aea@@B 0000000140053a18     libvcruntimed:winapi_downlevel.obj
 0002:00001d30       $cppxdata$??0?$output_adapter_data@DV?$string_output_adapter@D@__crt_stdio_output@@@__crt_stdio_output@@IEAA@AEBV?$string_output_adapter@D@1@_KQEBDAEAV__crt_cached_ptd_host@@QEAD@Z 0000000140053d30     libucrtd:output.obj
 0002:00001d58       $cppxdata$?find_next_state@?$output_processor@DV?$string_output_adapter@D@__crt_stdio_output@@V?$standard_base@DV?$string_output_adapter@D@__crt_stdio_output@@@2@@__crt_stdio_output@@AEBA?AW4state@2@DW432@@Z 0000000140053d58     libucrtd:output.obj
 0002:00001d80       $cppxdata$??0?$output_adapter_data@_WV?$string_output_adapter@_W@__crt_stdio_output@@@__crt_stdio_output@@IEAA@AEBV?$string_output_adapter@_W@1@_KQEB_WAEAV__crt_cached_ptd_host@@QEAD@Z 0000000140053d80     libucrtd:output.obj
 0002:00001da8       $cppxdata$?find_next_state@?$output_processor@DV?$string_output_adapter@D@__crt_stdio_output@@V?$format_validation_base@DV?$string_output_adapter@D@__crt_stdio_output@@@2@@__crt_stdio_output@@AEBA?AW4state@2@DW432@@Z 0000000140053da8     libucrtd:output.obj
 0002:00001dd0       $cppxdata$?find_next_state@?$output_processor@_WV?$string_output_adapter@_W@__crt_stdio_output@@V?$format_validation_base@_WV?$string_output_adapter@_W@__crt_stdio_output@@@2@@__crt_stdio_output@@AEBA?AW4state@2@_WW432@@Z 0000000140053dd0     libucrtd:output.obj
 0002:00004880       L_real_one                 0000000140056880     libucrtd:cosf.obj
 0002:00004890       L_one_half                 0000000140056890     libucrtd:cosf.obj
 0002:000048a0       L_2bypi                    00000001400568a0     libucrtd:cosf.obj
 0002:000048b0       L_one_sixth                00000001400568b0     libucrtd:cosf.obj
 0002:000048c0       L_piby2                    00000001400568c0     libucrtd:cosf.obj
 0002:000048d0       L_piby2_1                  00000001400568d0     libucrtd:cosf.obj
 0002:000048e0       L_piby2_1tail              00000001400568e0     libucrtd:cosf.obj
 0002:000048f0       L_piby2_2                  00000001400568f0     libucrtd:cosf.obj
 0002:00004900       L_piby2_2tail              0000000140056900     libucrtd:cosf.obj
 0002:00004910       L_large_x_sse2             0000000140056910     libucrtd:cosf.obj
 0002:00004920       L_large_x_fma3             0000000140056920     libucrtd:cosf.obj
 0002:00004930       L_sign_mask                0000000140056930     libucrtd:cosf.obj
 0002:00004940       L__int_three               0000000140056940     libucrtd:cosf.obj
 0002:00004950       L__min_norm_double         0000000140056950     libucrtd:cosf.obj
 0002:00004960       L_two_to_neg_7             0000000140056960     libucrtd:cosf.obj
 0002:00004970       L_two_to_neg_13            0000000140056970     libucrtd:cosf.obj
 0002:00004980       L_two_to_32_float          0000000140056980     libucrtd:cosf.obj
 0002:00004988       L_one_float                0000000140056988     libucrtd:cosf.obj
 0002:00004990       L_inf_mask_32              0000000140056990     libucrtd:cosf.obj
 0002:000049a0       L_signbit                  00000001400569a0     libucrtd:sinf.obj
 0002:000049b0       L_sign_mask                00000001400569b0     libucrtd:sinf.obj
 0002:000049c0       L_one                      00000001400569c0     libucrtd:sinf.obj
 0002:000049d0       L_int_three                00000001400569d0     libucrtd:sinf.obj
 0002:000049e0       L_one_half                 00000001400569e0     libucrtd:sinf.obj
 0002:000049f0       L_twobypi                  00000001400569f0     libucrtd:sinf.obj
 0002:00004a00       L_piby2_1                  0000000140056a00     libucrtd:sinf.obj
 0002:00004a10       L_one_sixth                0000000140056a10     libucrtd:sinf.obj
 0002:00004a20       L_piby2_1tail              0000000140056a20     libucrtd:sinf.obj
 0002:00004a30       L_piby2_2                  0000000140056a30     libucrtd:sinf.obj
 0002:00004a40       L_piby2_2tail              0000000140056a40     libucrtd:sinf.obj
 0002:00004a50       L_inf_mask_32              0000000140056a50     libucrtd:sinf.obj
 0002:00004a60       L_int_two                  0000000140056a60     libucrtd:sinf.obj
 0002:00004a70       L_piby2_lead               0000000140056a70     libucrtd:sinf.obj
 0002:00004a80       L_piby4                    0000000140056a80     libucrtd:sinf.obj
 0002:00004a90       L_mask_3f2                 0000000140056a90     libucrtd:sinf.obj
 0002:00004aa0       L_mask_3f8                 0000000140056aa0     libucrtd:sinf.obj
 0002:00004ab0       L_large_x_fma3             0000000140056ab0     libucrtd:sinf.obj
 0002:00004ab8       L_large_x_sse2             0000000140056ab8     libucrtd:sinf.obj
 0002:00004ac0       L_near_one                 0000000140056ac0     libucrtd:sinf.obj
 0002:00004ac8       L_two_to_32                0000000140056ac8     libucrtd:sinf.obj
 0002:00004ae0       L_sign_mask                0000000140056ae0     libucrtd:tanf.obj
 0002:00004af0       L_twobypi                  0000000140056af0     libucrtd:tanf.obj
 0002:00004b00       L_int_three                0000000140056b00     libucrtd:tanf.obj
 0002:00004b10       L_int_one                  0000000140056b10     libucrtd:tanf.obj
 0002:00004b20       L_signbit                  0000000140056b20     libucrtd:tanf.obj
 0002:00004b30       L_tanf                     0000000140056b30     libucrtd:tanf.obj
 0002:00004b58       L_large_x_sse2             0000000140056b58     libucrtd:tanf.obj
 0002:00004b60       L_large_x_fma3             0000000140056b60     libucrtd:tanf.obj
 0002:00004b68       L_point_333                0000000140056b68     libucrtd:tanf.obj
 0002:00004b70       L_mask_3e4                 0000000140056b70     libucrtd:tanf.obj
 0002:00004b78       L_mask_3f2                 0000000140056b78     libucrtd:tanf.obj
 0002:00004b80       L_point_five               0000000140056b80     libucrtd:tanf.obj
 0002:00004b88       L_piby2_1                  0000000140056b88     libucrtd:tanf.obj
 0002:00004b90       L_piby2_1tail              0000000140056b90     libucrtd:tanf.obj
 0002:00004b98       L_piby2_lead               0000000140056b98     libucrtd:tanf.obj
 0002:00004ba0       L_n_one                    0000000140056ba0     libucrtd:tanf.obj
 0002:00004ba8       L_piby4                    0000000140056ba8     libucrtd:tanf.obj
 0002:00004bb0       L_min_norm                 0000000140056bb0     libucrtd:tanf.obj
 0002:00004bb8       L_near_one_f               0000000140056bb8     libucrtd:tanf.obj
 0002:00004bc0       L_inf_mask_32              0000000140056bc0     libucrtd:tanf.obj
 0002:00004bc8       L_two_to_32                0000000140056bc8     libucrtd:tanf.obj
 0002:00005100       $cppxdata$??$common_configure_argv@D@@YAHW4_crt_argv_mode@@@Z 0000000140057100     libucrtd:argv_parsing.obj
 0002:000052a0       $cppxdata$??$uninitialize@A6AXAEAPEAPEAD@_E@?$dual_state_global@PEAPEAD@__crt_state_management@@QEAAXA6AXAEAPEAPEAD@_E@Z 00000001400572a0     libucrtd:environment_initialization.obj
 0002:000052c8       $cppxdata$??$uninitialize@A6AXAEAPEAPEA_W@_E@?$dual_state_global@PEAPEA_W@__crt_state_management@@QEAAXA6AXAEAPEAPEA_W@_E@Z 00000001400572c8     libucrtd:environment_initialization.obj
 0002:00005478       $cppxdata$?try_cor_exit_process@@YAXI@Z 0000000140057478     libucrtd:exit.obj
 0002:000054a0       $cppxdata$?common_exit@@YAXHW4_crt_exit_cleanup_mode@@W4_crt_exit_return_mode@@@Z 00000001400574a0     libucrtd:exit.obj
 0002:000054c8       $cppxdata$??$__acrt_lock_and_call@V<lambda_6e4b09c48022b2350581041d5f6b0c4c>@@@@YAXW4__acrt_lock_id@@$$QEAV<lambda_6e4b09c48022b2350581041d5f6b0c4c>@@@Z 00000001400574c8     libucrtd:exit.obj
 0002:00005750       $cppxdata$??$uninitialize@V<lambda_363eea9039da1e8169e2d060c7fe5cbc>@@@?$dual_state_global@PEAU__crt_locale_data@@@__crt_state_management@@QEAAX$$QEAV<lambda_363eea9039da1e8169e2d060c7fe5cbc>@@@Z 0000000140057750     libucrtd:wsetlocale.obj
 0002:00005778       $cppxdata$??$__acrt_lock_and_call@V<lambda_3e16ef9562a7dcce91392c22ab16ea36>@@@@YAXW4__acrt_lock_id@@$$QEAV<lambda_3e16ef9562a7dcce91392c22ab16ea36>@@@Z 0000000140057778     libucrtd:wsetlocale.obj
 0002:00005958       $cppxdata$??$__acrt_lock_and_call@V<lambda_208ce30acdd7200aa596f2796f4d5154>@@@@YAHW4__acrt_lock_id@@$$QEAV<lambda_208ce30acdd7200aa596f2796f4d5154>@@@Z 0000000140057958     libucrtd:onexit.obj
 0002:00005980       $cppxdata$??R<lambda_d121dba8a4adeaf3a9819e48611155df>@@QEBAHXZ 0000000140057980     libucrtd:onexit.obj
 0002:000059a8       $cppxdata$??$__acrt_lock_and_call@V<lambda_d121dba8a4adeaf3a9819e48611155df>@@@@YAHW4__acrt_lock_id@@$$QEAV<lambda_d121dba8a4adeaf3a9819e48611155df>@@@Z 00000001400579a8     libucrtd:onexit.obj
 0002:00005a10       __acrt_initializers        0000000140057a10     libucrtd:initialization.obj
 0002:00005b10       $cppxdata$??$uninitialize@V<lambda_af27fe6ede5d83bbdbd622796c194e9c>@@@?$dual_state_global@PEAU__crt_multibyte_data@@@__crt_state_management@@QEAAX$$QEAV<lambda_af27fe6ede5d83bbdbd622796c194e9c>@@@Z 0000000140057b10     libucrtd:initialization.obj
 0002:00005b68       ?block_use_names@@3QBQEBDB 0000000140057b68     libucrtd:debug_heap.obj
 0002:00005bb8       $cppxdata$?realloc_dbg_nolock@@YAPEAXQEAXQEA_KHQEBDH_N@Z 0000000140057bb8     libucrtd:debug_heap.obj
 0002:00005be0       $cppxdata$?free_dbg_nolock@@YAXQEAXH@Z 0000000140057be0     libucrtd:debug_heap.obj
 0002:00005c08       $cppxdata$?dump_all_object_since_nolock@@YAXQEBU_CrtMemState@@@Z 0000000140057c08     libucrtd:debug_heap.obj
 0002:00006d20       ?report_type_messages@@3QBQEB_WB 0000000140058d20     libucrtd:dbgrpt.obj
 0002:00006d80       ?more_info_string@@3QEB_WEB 0000000140058d80     libucrtd:dbgrpt.obj
 0002:0000708e       ?empty_string@?1???$common_message_window@D@@YAHHQEAXQEBD111@Z@4QBDB 000000014005908e     libucrtd:dbgrpt.obj
 0002:00007308       ?empty_string@?1???$common_message_window@_W@@YAHHQEAXQEB_W111@Z@4QB_WB 0000000140059308     libucrtd:dbgrpt.obj
 0002:00007310       ?errtable@@3QBUerrentry@?A0x31fdb9ec@@B 0000000140059310     libucrtd:errno.obj
 0002:000074a0       ?strings@?1??fp_format_nan_or_infinity@@YAHW4__acrt_fp_class@@_NPEAD_K1@Z@4QAY03QEBDA 00000001400594a0     libucrtd:cvt.obj
 0002:00007fb8       $cppxdata$?construct_ptd@@YAXQEAU__acrt_ptd@@QEAPEAU__crt_locale_data@@@Z 0000000140059fb8     libucrtd:per_thread_data.obj
 0002:00007fe0       $cppxdata$??$__acrt_lock_and_call@V<lambda_8d0ee55de4b1038c4002e0adecdf1839>@@@@YAXW4__acrt_lock_id@@$$QEAV<lambda_8d0ee55de4b1038c4002e0adecdf1839>@@@Z 0000000140059fe0     libucrtd:per_thread_data.obj
 0002:00008008       $cppxdata$??$__acrt_lock_and_call@V<lambda_92619d2358a28f41a33ba319515a20b9>@@@@YAXW4__acrt_lock_id@@$$QEAV<lambda_92619d2358a28f41a33ba319515a20b9>@@@Z 000000014005a008     libucrtd:per_thread_data.obj
 0002:00008030       $cppxdata$?destroy_ptd@@YAXQEAU__acrt_ptd@@@Z 000000014005a030     libucrtd:per_thread_data.obj
 0002:00008058       $cppxdata$??$__acrt_lock_and_call@V<lambda_e157831efee4ea0afb0a2ace5dd5fd0d>@@@@YAXW4__acrt_lock_id@@$$QEAV<lambda_e157831efee4ea0afb0a2ace5dd5fd0d>@@@Z 000000014005a058     libucrtd:per_thread_data.obj
 0002:00008080       $cppxdata$??$__acrt_lock_and_call@V<lambda_8f455de75cd7d7f24b4096f044d8b9e6>@@@@YAXW4__acrt_lock_id@@$$QEAV<lambda_8f455de75cd7d7f24b4096f044d8b9e6>@@@Z 000000014005a080     libucrtd:per_thread_data.obj
 0002:00008770       L__piby2                   000000014005a770     libucrtd:remainder_piby2f_forasm.obj
 0002:00008780       L_piby2_lead               000000014005a780     libucrtd:remainder_piby2_forfma3.obj
 0002:00008790       L_fff800                   000000014005a790     libucrtd:remainder_piby2_forfma3.obj
 0002:000087a0       L_piby2_part1              000000014005a7a0     libucrtd:remainder_piby2_forfma3.obj
 0002:000087b0       L_piby2_part2              000000014005a7b0     libucrtd:remainder_piby2_forfma3.obj
 0002:000087c0       L_piby2_part3              000000014005a7c0     libucrtd:remainder_piby2_forfma3.obj
 0002:000087d0       L_piby2_1                  000000014005a7d0     libucrtd:remainder_piby2_forfma3.obj
 0002:000087e0       L_piby2_2                  000000014005a7e0     libucrtd:remainder_piby2_forfma3.obj
 0002:000087f0       L_piby2_3                  000000014005a7f0     libucrtd:remainder_piby2_forfma3.obj
 0002:00008800       L_piby2_1tail              000000014005a800     libucrtd:remainder_piby2_forfma3.obj
 0002:00008810       L_piby2_2tail              000000014005a810     libucrtd:remainder_piby2_forfma3.obj
 0002:00008820       L_piby2_3tail              000000014005a820     libucrtd:remainder_piby2_forfma3.obj
 0002:00008830       L_sign_mask                000000014005a830     libucrtd:remainder_piby2_forfma3.obj
 0002:00008840       L_twobypi                  000000014005a840     libucrtd:remainder_piby2_forfma3.obj
 0002:00008850       L_point_five               000000014005a850     libucrtd:remainder_piby2_forfma3.obj
 0002:00008860       L_int_three                000000014005a860     libucrtd:remainder_piby2_forfma3.obj
 0002:00008870       L_inf_mask_64              000000014005a870     libucrtd:remainder_piby2_forfma3.obj
 0002:00008880       L_signbit                  000000014005a880     libucrtd:remainder_piby2_forfma3.obj
 0002:00008890       L_r                        000000014005a890     libucrtd:remainder_piby2_forfma3.obj
 0002:000088a0       L_xc1                      000000014005a8a0     libucrtd:remainder_piby2_forfma3.obj
 0002:000088b0       L_xc2                      000000014005a8b0     libucrtd:remainder_piby2_forfma3.obj
 0002:000088c0       L_xc3                      000000014005a8c0     libucrtd:remainder_piby2_forfma3.obj
 0002:000088d0       L_sigma                    000000014005a8d0     libucrtd:remainder_piby2_forfma3.obj
 0002:000089f0       L__piby2                   000000014005a9f0     libucrtd:remainder_piby2f_forc.obj
 0002:00008a00       L__2_by_pi_bits            000000014005aa00     libucrtd:remainder_piby2f_forc.obj
 0002:00008c48       $cppxdata$??1?$__crt_win32_buffer@DU__crt_win32_buffer_internal_dynamic_resizing@@@@QEAA@XZ 000000014005ac48     libucrtd:argv_wildcards.obj
 0002:00008c48       $cppxdata$??1?$__crt_win32_buffer@_WU__crt_win32_buffer_internal_dynamic_resizing@@@@QEAA@XZ 000000014005ac48     libucrtd:argv_wildcards.obj
 0002:00008c70       $cppxdata$??$tcspbrk@AEAPEADAEAY02$$CBD@?$__crt_char_traits@D@@SAPEADAEAPEADAEAY02$$CBD@Z 000000014005ac70     libucrtd:argv_wildcards.obj
 0002:00008c98       $cppxdata$??$expand_argument_wildcards@D@@YAHQEAD0AEAV?$argument_list@D@?A0x5f5c8891@@@Z 000000014005ac98     libucrtd:argv_wildcards.obj
 0002:000090b8       $cppxdata$??1?$__crt_win32_buffer@DU__crt_win32_buffer_no_resizing@@@@QEAA@XZ 000000014005b0b8     libucrtd:getmodulefilenamea.obj
 0002:000090e0       ?_mb_locale_names@@3QBQEB_WB 000000014005b0e0     libucrtd:mbctype.obj
 0002:00009140       $cppxdata$?setmbcp_internal@@YAHH_NQEAU__acrt_ptd@@QEAPEAU__crt_multibyte_data@@@Z 000000014005b140     libucrtd:mbctype.obj
 0002:00009168       $cppxdata$??$__acrt_lock_and_call@V<lambda_bd5a608237428601b7e45fbdc72b1ae8>@@@@YAXW4__acrt_lock_id@@$$QEAV<lambda_bd5a608237428601b7e45fbdc72b1ae8>@@@Z 000000014005b168     libucrtd:mbctype.obj
 0002:00009eb0       ?module_names@?A0x391cf84c@@3QBQEB_WB 000000014005beb0     libucrtd:winapi_thunks.obj
 0002:0000a434       ?candidate_modules@?1??try_get_AreFileApisANSI@@YAP6AHXZXZ@4QBW4module_id@?A0x391cf84c@@B 000000014005c434     libucrtd:winapi_thunks.obj
 0002:0000a448       ?candidate_modules@?1??try_get_GetActiveWindow@@YAP6APEAUHWND__@@XZXZ@4QBW4module_id@?A0x391cf84c@@B 000000014005c448     libucrtd:winapi_thunks.obj
 0002:0000a460       ?candidate_modules@?1??try_get_GetLastActivePopup@@YAP6APEAUHWND__@@PEAU2@@ZXZ@4QBW4module_id@?A0x391cf84c@@B 000000014005c460     libucrtd:winapi_thunks.obj
 0002:0000a480       ?candidate_modules@?1??try_get_GetProcessWindowStation@@YAP6APEAUHWINSTA__@@XZXZ@4QBW4module_id@?A0x391cf84c@@B 000000014005c480     libucrtd:winapi_thunks.obj
 0002:0000a4a0       ?candidate_modules@?1??try_get_GetUserObjectInformationW@@YAP6AHPEAXH0KPEAK@ZXZ@4QBW4module_id@?A0x391cf84c@@B 000000014005c4a0     libucrtd:winapi_thunks.obj
 0002:0000a4c8       ?candidate_modules@?1??try_get_InitializeCriticalSectionEx@@YAP6AHPEAU_RTL_CRITICAL_SECTION@@KK@ZXZ@4QBW4module_id@?A0x391cf84c@@B 000000014005c4c8     libucrtd:winapi_thunks.obj
 0002:0000a4d0       ?candidate_modules@?1??try_get_LCMapStringEx@@YAP6AHPEB_WK0HPEA_WHPEAU_nlsversioninfo@@PEAX_J@ZXZ@4QBW4module_id@?A0x391cf84c@@B 000000014005c4d0     libucrtd:winapi_thunks.obj
 0002:0000a4e8       ?candidate_modules@?1??try_get_LocaleNameToLCID@@YAP6AKPEB_WK@ZXZ@4QBW4module_id@?A0x391cf84c@@B 000000014005c4e8     libucrtd:winapi_thunks.obj
 0002:0000a508       ?candidate_modules@?1??try_get_MessageBoxA@@YAP6AHPEAUHWND__@@PEBD1I@ZXZ@4QBW4module_id@?A0x391cf84c@@B 000000014005c508     libucrtd:winapi_thunks.obj
 0002:0000a520       ?candidate_modules@?1??try_get_MessageBoxW@@YAP6AHPEAUHWND__@@PEB_W1I@ZXZ@4QBW4module_id@?A0x391cf84c@@B 000000014005c520     libucrtd:winapi_thunks.obj
 0002:0000a534       ?candidate_modules@?1??try_get_AppPolicyGetProcessTerminationMethod@@YAP6AJPEAXPEAW4AppPolicyProcessTerminationMethod@@@ZXZ@4QBW4module_id@?A0x391cf84c@@B 000000014005c534     libucrtd:winapi_thunks.obj
 0002:0000a560       ?candidate_modules@?1??try_get_AppPolicyGetShowDeveloperDiagnostic@@YAP6AJPEAXPEAW4AppPolicyShowDeveloperDiagnostic@@@ZXZ@4QBW4module_id@?A0x391cf84c@@B 000000014005c560     libucrtd:winapi_thunks.obj
 0002:0000a58c       ?candidate_modules@?1??try_get_AppPolicyGetWindowingModel@@YAP6AJPEAXPEAW4AppPolicyWindowingModel@@@ZXZ@4QBW4module_id@?A0x391cf84c@@B 000000014005c58c     libucrtd:winapi_thunks.obj
 0002:0000a5b0       $cppxdata$??$__acrt_lock_and_call@V<lambda_44731a7d0e6d81c3e6aa82d741081786>@@@@YAP6AXH@ZW4__acrt_lock_id@@$$QEAV<lambda_44731a7d0e6d81c3e6aa82d741081786>@@@Z 000000014005c5b0     libucrtd:signal.obj
 0002:0000c620       $cppxdata$?common_flush_all@@YAH_N@Z 000000014005e620     libucrtd:fflush.obj
 0002:0000c648       $cppxdata$??$__acrt_lock_stream_and_call@V<lambda_c5860995281e5c4ce005b3de8f5874ee>@@@@YAXQEAU_iobuf@@$$QEAV<lambda_c5860995281e5c4ce005b3de8f5874ee>@@@Z 000000014005e648     libucrtd:fflush.obj
 0002:0000c670       $cppxdata$??$__acrt_lock_and_call@V<lambda_ab61a845afdef5b7c387490eaf3616ee>@@@@YAXW4__acrt_lock_id@@$$QEAV<lambda_ab61a845afdef5b7c387490eaf3616ee>@@@Z 000000014005e670     libucrtd:fflush.obj
 0002:0000c780       __real@433fffffffffffff    000000014005e780     libucrtd:fpsr.obj
 0002:0000c788       __real@c33fffffffffffff    000000014005e788     libucrtd:fpsr.obj
 0002:0000c798       $cppxdata$?shortsort@@YAXPEAD0_KP6AHPEBX2@Z@Z 000000014005e798     libucrtd:qsort.obj
 0002:0000cb30       ?LcidToLocaleNameTable@?A0x881e4c05@@3QBULcidToLocaleName@1@B 000000014005eb30     libucrtd:lcidtoname_downlevel.obj
 0002:0000e580       ?LocaleNameToIndexTable@?A0x881e4c05@@3QBULocaleNameIndex@1@B 0000000140060580     libucrtd:lcidtoname_downlevel.obj
 0002:0000fe18       $cppxdata$?_mbstowcs_l_helper@@YA_KPEA_WPEBD_KAEAV__crt_cached_ptd_host@@@Z 0000000140061e18     libucrtd:mbstowcs.obj
 0002:000101c0       __real_ninf                00000001400621c0     libucrtd:log10.obj
 0002:000101d0       __real_inf                 00000001400621d0     libucrtd:log10.obj
 0002:000101e0       __real_neg_qnan            00000001400621e0     libucrtd:log10.obj
 0002:000101f0       __real_qnanbit             00000001400621f0     libucrtd:log10.obj
 0002:00010200       __int_1023                 0000000140062200     libucrtd:log10.obj
 0002:00010210       __mask_001                 0000000140062210     libucrtd:log10.obj
 0002:00010220       __mask_mant                0000000140062220     libucrtd:log10.obj
 0002:00010230       __mask_mant_top8           0000000140062230     libucrtd:log10.obj
 0002:00010240       __mask_mant9               0000000140062240     libucrtd:log10.obj
 0002:00010250       __real_log10_e             0000000140062250     libucrtd:log10.obj
 0002:00010260       __real_log10_e_lead        0000000140062260     libucrtd:log10.obj
 0002:00010270       __real_log10_e_tail        0000000140062270     libucrtd:log10.obj
 0002:00010280       __real_log10_2_lead        0000000140062280     libucrtd:log10.obj
 0002:00010290       __real_log10_2_tail        0000000140062290     libucrtd:log10.obj
 0002:000102a0       __real_two                 00000001400622a0     libucrtd:log10.obj
 0002:000102b0       __real_one                 00000001400622b0     libucrtd:log10.obj
 0002:000102c0       __real_half                00000001400622c0     libucrtd:log10.obj
 0002:000102d0       __mask_100                 00000001400622d0     libucrtd:log10.obj
 0002:000102e0       __real_1_over_512          00000001400622e0     libucrtd:log10.obj
 0002:000102f0       __real_1_over_2            00000001400622f0     libucrtd:log10.obj
 0002:00010300       __real_1_over_3            0000000140062300     libucrtd:log10.obj
 0002:00010310       __real_1_over_4            0000000140062310     libucrtd:log10.obj
 0002:00010320       __real_1_over_5            0000000140062320     libucrtd:log10.obj
 0002:00010330       __real_1_over_6            0000000140062330     libucrtd:log10.obj
 0002:00010340       __real_neg_1023            0000000140062340     libucrtd:log10.obj
 0002:00010350       __mask_2045                0000000140062350     libucrtd:log10.obj
 0002:00010360       __real_threshold           0000000140062360     libucrtd:log10.obj
 0002:00010370       __real_near_one_lt         0000000140062370     libucrtd:log10.obj
 0002:00010380       __real_near_one_gt         0000000140062380     libucrtd:log10.obj
 0002:00010390       __real_min_norm            0000000140062390     libucrtd:log10.obj
 0002:000103a0       __real_notsign             00000001400623a0     libucrtd:log10.obj
 0002:000103b0       __real_ca1                 00000001400623b0     libucrtd:log10.obj
 0002:000103c0       __real_ca2                 00000001400623c0     libucrtd:log10.obj
 0002:000103d0       __real_ca3                 00000001400623d0     libucrtd:log10.obj
 0002:000103e0       __real_ca4                 00000001400623e0     libucrtd:log10.obj
 0002:000103f0       __mask_lower               00000001400623f0     libucrtd:log10.obj
 0002:00010400       __flag_x_zero              0000000140062400     libucrtd:log10.obj
 0002:00010404       __flag_x_neg               0000000140062404     libucrtd:log10.obj
 0002:00010408       __flag_x_nan               0000000140062408     libucrtd:log10.obj
 0002:00010588       $cppxdata$??$__acrt_lowio_lock_fh_and_call@V<lambda_3e4146214822e0ea86c47ff907aef2ff>@@@@YAHH$$QEAV<lambda_3e4146214822e0ea86c47ff907aef2ff>@@@Z 0000000140062588     libucrtd:commit.obj
 0002:00010620       $cppxdata$?write_double_translated_ansi_nolock@@YA?AUwrite_result@?A0x17268360@@HQEBDIAEAV__crt_cached_ptd_host@@@Z 0000000140062620     libucrtd:write.obj
 0002:00012258       $cppxdata$??$__acrt_lowio_lock_fh_and_call@V<lambda_af29824b49a67d335554598d6cad2be6>@@@@YAHH$$QEAV<lambda_af29824b49a67d335554598d6cad2be6>@@@Z 0000000140064258     libucrtd:close.obj
 0002:00012300       $cppxdata$??$console_output_reopen_and_retry@V<lambda_61c1b8a38cedca4df5fdc542e6ccae6d>@@@@YAHAEBV<lambda_61c1b8a38cedca4df5fdc542e6ccae6d>@@@Z 0000000140064300     libucrtd:initcon.obj
 0002:00012500       MoveSmall                  0000000140064500     libvcruntimed:memcpy.obj
 0002:00012540       MoveSmallYmm               0000000140064540     libvcruntimed:memcpy.obj
 0002:00012564       MoveSmallYmmNT             0000000140064564     libvcruntimed:memcpy.obj
 0002:00012588       MoveSmallXmm               0000000140064588     libvcruntimed:memcpy.obj
 0002:000125b0       SetSmall                   00000001400645b0     libvcruntimed:memset.obj
 0002:000125f0       SetSmallYmm                00000001400645f0     libvcruntimed:memset.obj
 0002:00012614       SetSmallYmmNT              0000000140064614     libvcruntimed:memset.obj
 0002:00012638       SetSmallXmm                0000000140064638     libvcruntimed:memset.obj
 0002:00012e30       $unwind$WinMain            0000000140064e30     main.obj
 0002:00012e44       $unwind$?arena_make@@YAXPEAUArena@@_K@Z 0000000140064e44     main.obj
 0002:00012e4c       $unwind$?arena_push_size@@YAPEAXPEAUArena@@AEB_K1@Z 0000000140064e4c     main.obj
 0002:00012e54       $unwind$?insertion_sort@@YAXPEAHH@Z 0000000140064e54     main.obj
 0002:00012e5c       $unwind$?insertion_sort@@YAXPEAMH@Z 0000000140064e5c     main.obj
 0002:00012e64       $unwind$?insertion_sort@@YAXPEAEH@Z 0000000140064e64     main.obj
 0002:00012e6c       $unwind$?quicksort@@YAXPEAHHH@Z 0000000140064e6c     main.obj
 0002:00012e74       $unwind$?quicksort@@YAXPEAMHH@Z 0000000140064e74     main.obj
 0002:00012e7c       $unwind$?quicksort@@YAXPEAEHH@Z 0000000140064e7c     main.obj
 0002:00012e84       $unwind$??$empty_key@UString@@@@YA?AUString@@XZ 0000000140064e84     main.obj
 0002:00012e8c       $unwind$?register_profiler@@YAHUString@@@Z 0000000140064e8c     main.obj
 0002:00012e98       $unwind$?push_profiler_index@@YAXH@Z 0000000140064e98     main.obj
 0002:00012ea0       $unwind$?pop_profiler_index@@YAHXZ 0000000140064ea0     main.obj
 0002:00012ea8       $unwind$?profiler_push@@YAXH@Z 0000000140064ea8     main.obj
 0002:00012eb0       $unwind$?profiler_pop@@YAXXZ 0000000140064eb0     main.obj
 0002:00012eb8       $unwind$?matrix_mul@@YAXPEATMatrix4@@00@Z 0000000140064eb8     main.obj
 0002:00012ec0       $unwind$?matrix_transpose@@YAXPEATMatrix4@@@Z 0000000140064ec0     main.obj
 0002:00012ec8       $unwind$?matrix_compose@@YAXHZZ 0000000140064ec8     main.obj
 0002:00012ed0       $unwind$?model_matrix_for_transform@@YAXPEATMatrix4@@PEAUTransform@@@Z 0000000140064ed0     main.obj
 0002:00012edc       $unwind$?view_matrix_for_camera@@YAXPEATMatrix4@@PEAUCamera@@@Z 0000000140064edc     main.obj
 0002:00012ef0       $unwind$?perspective_matrix_for_camera@@YAXPEATMatrix4@@PEAUCamera@@@Z 0000000140064ef0     main.obj
 0002:00012f04       $unwind$?mvp_matrix_for_transform@@YAXPEATMatrix4@@PEAUTransform@@00@Z 0000000140064f04     main.obj
 0002:00012f0c       $unwind$?tmatrix_compose@@YAPEATMatrix4@@HZZ 0000000140064f0c     main.obj
 0002:00012f14       $unwind$?quaternion_from_euler@@YA?AUQuaternion@@MMM@Z 0000000140064f14     main.obj
 0002:00012f1c       $unwind$?quaternion_normalize@@YA?AUQuaternion@@U1@@Z 0000000140064f1c     main.obj
 0002:00012f28       $unwind$?quaternion_rot_vector@@YA?ATVector3@@AEBT1@AEBUQuaternion@@@Z 0000000140064f28     main.obj
 0002:00012f3c       $unwind$?quaternion_to_matrix@@YAXAEBUQuaternion@@PEATMatrix4@@@Z 0000000140064f3c     main.obj
 0002:00012f50       $unwind$?quaternion_to_tmatrix@@YAPEATMatrix4@@UQuaternion@@@Z 0000000140064f50     main.obj
 0002:00012f58       $unwind$?draw_string@@YAXAEBUString@@PEAUFont@@AEBTVector2@@2AEBUColor@@AEBTRect@@@Z 0000000140064f58     main.obj
 0002:00012f6c       $unwind$?draw_string_wrapped@@YAXAEBUString@@PEAUFont@@AEBTVector2@@2AEBUColor@@AEBMAEBTRect@@@Z 0000000140064f6c     main.obj
 0002:00012f80       $unwind$?load_font_metadata@@YAXUString@@PEAUFont@@@Z 0000000140064f80     main.obj
 0002:00012f8c       $unwind$?fill_background@@YAXXZ 0000000140064f8c     main.obj
 0002:00012f94       $unwind$?triangulate_fan@@YAHPEATVector4@@HPEATTriangle4@@@Z 0000000140064f94     main.obj
 0002:00012fa0       $unwind$?clip_triangle@@YAHPEATTriangle4@@0@Z 0000000140064fa0     main.obj
 0002:00012fb4       $unwind$?rasterize_triangle@@YAXPEATTriangle@@UColor@@H@Z 0000000140064fb4     main.obj
 0002:00012fc8       $unwind$?triangle_clip_to_raster_space@@YAXPEATTriangle4@@@Z 0000000140064fc8     main.obj
 0002:00012fdc       $unwind$?render_mesh@@YAXUMesh@@PEATMatrix4@@PEAUColor@@@Z 0000000140064fdc     main.obj
 0002:00012ff0       $unwind$update_and_render  0000000140064ff0     main.obj
 0002:00013008       $cppxdata$update_and_render 0000000140065008     main.obj
 0002:00013011       $stateUnwindMap$update_and_render 0000000140065011     main.obj
 0002:00013017       $ip2state$update_and_render 0000000140065017     main.obj
 0002:00013020       $unwind$update_and_render$dtor$0 0000000140065020     main.obj
 0002:00013028       $unwind$?init_memory@@YAXXZ 0000000140065028     main.obj
 0002:00013034       $unwind$?init_engine_state@@YAXXZ 0000000140065034     main.obj
 0002:00013048       $unwind$platform_init_engine 0000000140065048     main.obj
 0002:00013054       $unwind$?bilinear_sample_premultiplied@@YA?AUColor@@PEAEHHHMM@Z 0000000140065054     main.obj
 0002:00013068       $unwind$?load_font_permanently@@YAXUString@@W4MYFONT@@@Z 0000000140065068     main.obj
 0002:00013074       $unwind$?model_matrix_test@@YAXPEATMatrix4@@0@Z 0000000140065074     main.obj
 0002:00013088       $unwind$?make_font_bmp@@YAXXZ 0000000140065088     main.obj
 0002:0001309c       $unwind$?window_procedure@@YA_JPEAUHWND__@@I_K_J@Z 000000014006509c     main.obj
 0002:000130b0       $unwind$?triangle_bounding_box@@YA?ATRect@@AEBTVector3@@00@Z 00000001400650b0     main.obj
 0002:000130b0       $unwind$_vsnprintf_l       00000001400650b0     main.obj
 0002:000130b0       $unwind$?should_round_up@@YA_NQEBD0HW4__acrt_has_trailing_digits@@W4__acrt_rounding_mode@@@Z 00000001400650b0     libucrtd:_fptostr.obj
 0002:000130b0       $unwind$memcpy_s           00000001400650b0     libucrtd:cfout.obj
 0002:000130b0       $unwind$?__mbrtowc_utf8@__crt_mbstring@@YA_KPEA_WPEBD_KPEAU_Mbstatet@@AEAV__crt_cached_ptd_host@@@Z 00000001400650b0     libucrtd:mbrtowc.obj
 0002:000130b0       $unwind$memcpy_s           00000001400650b0     libucrtd:mbctype.obj
 0002:000130b0       $unwind$_snwprintf_s       00000001400650b0     libucrtd:dbgrpt.obj
 0002:000130b0       $unwind$_snprintf_s        00000001400650b0     libucrtd:dbgrptt.obj
 0002:000130b0       $unwind$??$_tcstol_internal@DPEAPEAD$0A@@@YAJAEAV__crt_cached_ptd_host@@QEBDQEAPEADH@Z 00000001400650b0     libucrtd:output.obj
 0002:000130b0       $unwind$??$_tcstol_internal@_WPEAPEA_W$0A@@@YAJAEAV__crt_cached_ptd_host@@QEB_WQEAPEA_WH@Z 00000001400650b0     libucrtd:output.obj
 0002:000130b0       $unwind$?write_string@?$string_output_adapter@D@__crt_stdio_output@@QEBAXQEBDHQEAHAEAV__crt_cached_ptd_host@@@Z 00000001400650b0     libucrtd:output.obj
 0002:000130b0       $unwind$?write_string@?$string_output_adapter@_W@__crt_stdio_output@@QEBAXQEB_WHQEAHAEAV__crt_cached_ptd_host@@@Z 00000001400650b0     libucrtd:output.obj
 0002:000130b0       $unwind$_raise_exc         00000001400650b0     libucrtd:fpexcept.obj
 0002:000130b0       $unwind$_raise_excf        00000001400650b0     libucrtd:fpexcept.obj
 0002:000130b0       $unwind$__GSHandlerCheck_EH 00000001400650b0     LIBCMTD:gshandlereh.obj
 0002:000130b0       $unwind$__GSHandlerCheck_EH4 00000001400650b0     LIBCMTD:gshandlereh4.obj
 0002:000130b0       $unwind$__GSHandlerCheck_SEH 00000001400650b0     LIBCMTD:gshandlerseh.obj
 0002:000130b0       $unwind$??$__InternalCxxFrameHandlerWrapper@V__FrameHandler3@@@@YA?AW4_EXCEPTION_DISPOSITION@@PEAUEHExceptionRecord@@PEA_KPEAU_CONTEXT@@PEAU_xDISPATCHER_CONTEXT@@PEBU_s_FuncInfo@@H1E@Z 00000001400650b0     libvcruntimed:frame.obj
 0002:000130b0       $unwind$_vsprintf_s_l      00000001400650b0     libvcruntimed:undname.obj
 0002:000130b0       $unwind$sprintf_s          00000001400650b0     libvcruntimed:undname.obj
 0002:000130b8       $unwind$_vsprintf_l        00000001400650b8     main.obj
 0002:000130b8       $unwind$sprintf            00000001400650b8     main.obj
 0002:000130b8       $unwind$_calloc_dbg        00000001400650b8     libucrtd:debug_heap.obj
 0002:000130b8       $unwind$?common_lseek_do_seek_nolock@@YA_JQEAX_JHAEAV__crt_cached_ptd_host@@@Z 00000001400650b8     libucrtd:lseek.obj
 0002:000130b8       $unwind$_vsnprintf_s       00000001400650b8     libucrtd:dbgrptt.obj
 0002:000130b8       $unwind$??$?0AEBV?$string_output_adapter@D@__crt_stdio_output@@AEB_KAEBQEBDAEAV__crt_cached_ptd_host@@AEBQEAD@?$format_validation_base@DV?$string_output_adapter@D@__crt_stdio_output@@@__crt_stdio_output@@IEAA@AEBV?$string_output_adapter@D@1@AEB_KAEBQEBDAEAV__crt_cached_ptd_host@@AEBQEAD@Z 00000001400650b8     libucrtd:output.obj
 0002:000130b8       $unwind$??$?0AEBV?$string_output_adapter@D@__crt_stdio_output@@AEB_KAEBQEBDAEAV__crt_cached_ptd_host@@AEBQEAD@?$standard_base@DV?$string_output_adapter@D@__crt_stdio_output@@@__crt_stdio_output@@IEAA@AEBV?$string_output_adapter@D@1@AEB_KAEBQEBDAEAV__crt_cached_ptd_host@@AEBQEAD@Z 00000001400650b8     libucrtd:output.obj
 0002:000130b8       $unwind$??$?0AEBV?$string_output_adapter@_W@__crt_stdio_output@@AEB_KAEBQEB_WAEAV__crt_cached_ptd_host@@AEBQEAD@?$format_validation_base@_WV?$string_output_adapter@_W@__crt_stdio_output@@@__crt_stdio_output@@IEAA@AEBV?$string_output_adapter@_W@1@AEB_KAEBQEB_WAEAV__crt_cached_ptd_host@@AEBQEAD@Z 00000001400650b8     libucrtd:output.obj
 0002:000130b8       $unwind$??$?0AEBV?$string_output_adapter@_W@__crt_stdio_output@@AEB_KAEBQEB_WAEAV__crt_cached_ptd_host@@AEBQEAD@?$standard_base@_WV?$string_output_adapter@_W@__crt_stdio_output@@@__crt_stdio_output@@IEAA@AEBV?$string_output_adapter@_W@1@AEB_KAEBQEB_WAEAV__crt_cached_ptd_host@@AEBQEAD@Z 00000001400650b8     libucrtd:output.obj
 0002:000130b8       $unwind$??0?$output_processor@DV?$string_output_adapter@D@__crt_stdio_output@@V?$format_validation_base@DV?$string_output_adapter@D@__crt_stdio_output@@@2@@__crt_stdio_output@@QEAA@AEBV?$string_output_adapter@D@1@_KQEBDAEAV__crt_cached_ptd_host@@QEAD@Z 00000001400650b8     libucrtd:output.obj
 0002:000130b8       $unwind$??0?$output_processor@DV?$string_output_adapter@D@__crt_stdio_output@@V?$standard_base@DV?$string_output_adapter@D@__crt_stdio_output@@@2@@__crt_stdio_output@@QEAA@AEBV?$string_output_adapter@D@1@_KQEBDAEAV__crt_cached_ptd_host@@QEAD@Z 00000001400650b8     libucrtd:output.obj
 0002:000130b8       $unwind$??0?$output_processor@_WV?$string_output_adapter@_W@__crt_stdio_output@@V?$format_validation_base@_WV?$string_output_adapter@_W@__crt_stdio_output@@@2@@__crt_stdio_output@@QEAA@AEBV?$string_output_adapter@_W@1@_KQEB_WAEAV__crt_cached_ptd_host@@QEAD@Z 00000001400650b8     libucrtd:output.obj
 0002:000130b8       $unwind$??$__acrt_fenv_translate_bit@W4__acrt_fenv_abstract_control@@W4__acrt_fenv_machine_sse_control@@@@YA?AW4__acrt_fenv_abstract_control@@W4__acrt_fenv_machine_sse_control@@0W40@1@Z 00000001400650b8     libucrtd:_fenvutils.obj
 0002:000130b8       $unwind$??$__acrt_fenv_translate_bit@W4__acrt_fenv_machine_sse_control@@W4__acrt_fenv_abstract_control@@@@YA?AW4__acrt_fenv_machine_sse_control@@W4__acrt_fenv_abstract_control@@0W40@1@Z 00000001400650b8     libucrtd:_fenvutils.obj
 0002:000130b8       $unwind$__C_specific_handler_noexcept 00000001400650b8     libvcruntimed:chandler_noexcept.obj
 0002:000130b8       $unwind$?SetUnwindTryBlock@__FrameHandler3@@SAXPEA_KPEAU_xDISPATCHER_CONTEXT@@PEBU_s_FuncInfo@@H@Z 00000001400650b8     libvcruntimed:ehstate.obj
 0002:000130b8       $unwind$?ExFilterRethrowFH4@@YAHPEAU_EXCEPTION_POINTERS@@PEAUEHExceptionRecord@@HPEAH@Z 00000001400650b8     libvcruntimed:frame.obj
 0002:000130b8       $unwind$?_CallMemberFunction2@@YAXQEAX00H@Z 00000001400650b8     libvcruntimed:frame.obj
 0002:000130b8       $unwind$?DecompFuncInfo@FH4@@YA_JPEAEAEAUFuncInfo4@1@_KH@Z 00000001400650b8     libvcruntimed:risctrnsctrl.obj
 0002:000130c0       $unwind$?float_compare@@YAHMM@Z 00000001400650c0     main.obj
 0002:000130c8       $unwind$??$abs@M@@YAMM@Z   00000001400650c8     main.obj
 0002:000130d0       $unwind$?memcmp@@YAHPEAX0I@Z 00000001400650d0     main.obj
 0002:000130d0       $unwind$?memcpy@@YAXPEAX0I@Z 00000001400650d0     main.obj
 0002:000130d0       $unwind$??$is_wide_character_specifier@_W@__crt_stdio_output@@YA_N_K_WW4length_modifier@0@@Z 00000001400650d0     libucrtd:output.obj
 0002:000130d0       $unwind$?swap@@YAXPEAD0_K@Z 00000001400650d0     libucrtd:qsort.obj
 0002:000130d8       $unwind$??$Max@_K@@YA_K_K0@Z 00000001400650d8     main.obj
 0002:000130d8       $unwind$??$Min@_K@@YA_K_K0@Z 00000001400650d8     main.obj
 0002:000130d8       $unwind$??$swap@E@@YAXAEAE0@Z 00000001400650d8     main.obj
 0002:000130d8       $unwind$??$swap@H@@YAXAEAH0@Z 00000001400650d8     main.obj
 0002:000130d8       $unwind$??$swap@M@@YAXAEAM0@Z 00000001400650d8     main.obj
 0002:000130d8       $unwind$??$swap@PEATVector4@@@@YAXAEAPEATVector4@@0@Z 00000001400650d8     main.obj
 0002:000130d8       $unwind$?arena_set_size@@YAXPEAUArena@@_K@Z 00000001400650d8     main.obj
 0002:000130d8       $unwind$?initialize@?$dual_state_global@PEAPEAD@__crt_state_management@@QEAAXQEAPEAD@Z 00000001400650d8     libucrtd:environment_initialization.obj
 0002:000130d8       $unwind$?store_first_surrogate@?A0xc60ee810@@YAX_SPEAU_Mbstatet@@@Z 00000001400650d8     libucrtd:c16rtomb.obj
 0002:000130d8       $unwind$??8__crt_strtox@@YA_NAEBUbig_integer@0@0@Z 00000001400650d8     libucrtd:cfout.obj
 0002:000130d8       $unwind$?wcsncnt@@YA_KPEB_W_K@Z 00000001400650d8     libucrtd:wcstombs.obj
 0002:000130d8       $unwind$?initialize@?$dual_state_global@P6AH_K@Z@__crt_state_management@@QEAAXQ6AH_K@Z@Z 00000001400650d8     libucrtd:new_handler.obj
 0002:000130d8       $unwind$?initialize@?$dual_state_global@PEAU__crt_locale_data@@@__crt_state_management@@QEAAXQEAU__crt_locale_data@@@Z 00000001400650d8     libucrtd:initialization.obj
 0002:000130d8       $unwind$?initialize@?$dual_state_global@PEAU__crt_multibyte_data@@@__crt_state_management@@QEAAXQEAU__crt_multibyte_data@@@Z 00000001400650d8     libucrtd:mbctype.obj
 0002:000130d8       $unwind$?initialize@?$dual_state_global@P6AXH@Z@__crt_state_management@@QEAAXQ6AXH@Z@Z 00000001400650d8     libucrtd:signal.obj
 0002:000130d8       $unwind$__strncnt          00000001400650d8     libucrtd:strncnt.obj
 0002:000130d8       $unwind$??$last_reached@$0A@@@YA_NQEBX0@Z 00000001400650d8     libucrtd:strnlen.obj
 0002:000130d8       $unwind$?compare_equals@?$__crt_simd_traits@$0A@E@@SA?AT__m128i@@T2@0@Z 00000001400650d8     libucrtd:strnlen.obj
 0002:000130d8       $unwind$?compare_equals@?$__crt_simd_traits@$0A@G@@SA?AT__m128i@@T2@0@Z 00000001400650d8     libucrtd:strnlen.obj
 0002:000130d8       $unwind$?initialize@?$dual_state_global@P6AHPEAU_exception@@@Z@__crt_state_management@@QEAAXQ6AHPEAU_exception@@@Z@Z 00000001400650d8     libucrtd:matherr.obj
 0002:000130d8       $unwind$__AdjustPointer    00000001400650d8     libvcruntimed:ehhelpers.obj
 0002:000130d8       $unwind$??8iterator@HandlerMap4@FH4@@QEBA_NAEBV012@@Z 00000001400650d8     libvcruntimed:frame.obj
 0002:000130d8       $unwind$??8iterator@HandlerMap@__FrameHandler3@@QEBA_NAEBV012@@Z 00000001400650d8     libvcruntimed:frame.obj
 0002:000130d8       $unwind$??Miterator@TryBlockMap4@FH4@@QEBA_NAEBV012@@Z 00000001400650d8     libvcruntimed:frame.obj
 0002:000130d8       $unwind$??Miterator@TryBlockMap@__FrameHandler3@@QEBA_NAEBV012@@Z 00000001400650d8     libvcruntimed:frame.obj
 0002:000130d8       $unwind$??Oiterator@UWMap4@FH4@@QEBA_NAEBV012@@Z 00000001400650d8     libvcruntimed:frame.obj
 0002:000130d8       $unwind$??Piterator@UWMap4@FH4@@QEBA_NAEBV012@@Z 00000001400650d8     libvcruntimed:frame.obj
 0002:000130d8       $unwind$??9iterator@TryBlockMap4@FH4@@QEBA_NAEBV012@@Z 00000001400650d8     libvcruntimed:risctrnsctrl.obj
 0002:000130e0       $unwind$?get_scratch@@YAPEAUScratch@@XZ 00000001400650e0     main.obj
 0002:000130e0       $unwind$?read_time_counter@@YANXZ 00000001400650e0     main.obj
 0002:000130e0       $unwind$?initialize_multibyte@@YAHXZ 00000001400650e0     libucrtd:multibyte_initializer.obj
 0002:000130e0       $unwind$initialize_pointers 00000001400650e0     libucrtd:initialization.obj
 0002:000130e0       $unwind$__acrt_initialize_locks 00000001400650e0     libucrtd:locks.obj
 0002:000130e0       $unwind$?internal_getptd_noexit@@YAPEAU__acrt_ptd@@XZ 00000001400650e0     libucrtd:per_thread_data.obj
 0002:000130e0       $unwind$?try_get_ptd_head@@YAPEAU__acrt_ptd@@XZ 00000001400650e0     libucrtd:per_thread_data.obj
 0002:000130e0       $unwind$__acrt_getptd      00000001400650e0     libucrtd:per_thread_data.obj
 0002:000130e0       $unwind$__acrt_getptd_head 00000001400650e0     libucrtd:per_thread_data.obj
 0002:000130e0       $unwind$?should_write_error_to_console@@YA_NXZ 00000001400650e0     libucrtd:report_runtime_error.obj
 0002:000130e0       $unwind$__acrt_AreFileApisANSI 00000001400650e0     libucrtd:winapi_thunks.obj
 0002:000130e0       $unwind$__acrt_can_show_message_box 00000001400650e0     libucrtd:winapi_thunks.obj
 0002:000130e0       $unwind$__acrt_initialize_multibyte 00000001400650e0     libucrtd:mbctype.obj
 0002:000130e0       $unwind$__acrt_update_thread_multibyte_data 00000001400650e0     libucrtd:mbctype.obj
 0002:000130e0       $unwind$__doserrno         00000001400650e0     libucrtd:errno.obj
 0002:000130e0       $unwind$_errno             00000001400650e0     libucrtd:errno.obj
 0002:000130e0       $unwind$_invalid_parameter_noinfo 00000001400650e0     libucrtd:invalid_parameter.obj
 0002:000130e0       $unwind$abort              00000001400650e0     libucrtd:abort.obj
 0002:000130e0       $unwind$?is_managed_app@@YA_NXZ 00000001400650e0     libucrtd:exit.obj
 0002:000130e0       $unwind$?should_call_terminate_process@@YA_NXZ 00000001400650e0     libucrtd:exit.obj
 0002:000130e0       $unwind$__acrt_uninitialize_stdio 00000001400650e0     libucrtd:_file.obj
 0002:000130e0       $unwind$_clrfp             00000001400650e0     libucrtd:fpctrl.obj
 0002:000130e0       $unwind$_statfp            00000001400650e0     libucrtd:fpctrl.obj
 0002:000130e0       $unwind$_clearfp           00000001400650e0     libucrtd:ieee.obj
 0002:000130e0       $unwind$?get_machine_sse_control@@YA?AW4__acrt_fenv_machine_sse_control@@XZ 00000001400650e0     libucrtd:_fenvutils.obj
 0002:000130e0       $unwind$?get_machine_sse_status@@YA?AW4__acrt_fenv_machine_sse_status@@XZ 00000001400650e0     libucrtd:_fenvutils.obj
 0002:000130e0       $unwind$__acrt_fenv_get_control 00000001400650e0     libucrtd:_fenvutils.obj
 0002:000130e0       $unwind$__acrt_fenv_get_status 00000001400650e0     libucrtd:_fenvutils.obj
 0002:000130e0       $unwind$__acrt_has_user_matherr 00000001400650e0     libucrtd:matherr.obj
 0002:000130e0       $unwind$__scrt_initialize_default_local_stdio_options 00000001400650e0     LIBCMTD:default_local_stdio_options.obj
 0002:000130e0       $unwind$?invoke_main@@YAHXZ 00000001400650e0     LIBCMTD:exe_winmain.obj
 0002:000130e0       $unwind$?set_commode@__scrt_file_policy@@SAXXZ 00000001400650e0     LIBCMTD:exe_winmain.obj
 0002:000130e0       $unwind$__security_init_cookie 00000001400650e0     LIBCMTD:gs_support.obj
 0002:000130e0       $unwind$_guard_icall_checks_enforced 00000001400650e0     LIBCMTD:guard_support.obj
 0002:000130e0       $unwind$__scrt_is_managed_app 00000001400650e0     LIBCMTD:utility_desktop.obj
 0002:000130e0       $unwind$__vcrt_initialize_locks 00000001400650e0     libvcruntimed:locks.obj
 0002:000130e0       $unwind$__vcrt_uninitialize_locks 00000001400650e0     libvcruntimed:locks.obj
 0002:000130e0       $unwind$__vcrt_getptd      00000001400650e0     libvcruntimed:per_thread_data.obj
 0002:000130e8       $unwind$?scratch_push_size@@YAPEAXPEAUScratch@@HH@Z 00000001400650e8     main.obj
 0002:000130e8       $unwind$__dcrt_write_console 00000001400650e8     libucrtd:initcon.obj
 0002:000130e8       $unwind$__acrt_InitializeCriticalSectionEx 00000001400650e8     libucrtd:winapi_thunks.obj
 0002:000130e8       $unwind$??$type_case_integer_parse_into_buffer@I$07@?$output_processor@DV?$string_output_adapter@D@__crt_stdio_output@@V?$format_validation_base@DV?$string_output_adapter@D@__crt_stdio_output@@@2@@__crt_stdio_output@@AEAAXI_N@Z 00000001400650e8     libucrtd:output.obj
 0002:000130e8       $unwind$??$type_case_integer_parse_into_buffer@I$07@?$output_processor@DV?$string_output_adapter@D@__crt_stdio_output@@V?$standard_base@DV?$string_output_adapter@D@__crt_stdio_output@@@2@@__crt_stdio_output@@AEAAXI_N@Z 00000001400650e8     libucrtd:output.obj
 0002:000130e8       $unwind$??$type_case_integer_parse_into_buffer@I$07@?$output_processor@_WV?$string_output_adapter@_W@__crt_stdio_output@@V?$format_validation_base@_WV?$string_output_adapter@_W@__crt_stdio_output@@@2@@__crt_stdio_output@@AEAAXI_N@Z 00000001400650e8     libucrtd:output.obj
 0002:000130e8       $unwind$??$type_case_integer_parse_into_buffer@I$09@?$output_processor@DV?$string_output_adapter@D@__crt_stdio_output@@V?$format_validation_base@DV?$string_output_adapter@D@__crt_stdio_output@@@2@@__crt_stdio_output@@AEAAXI_N@Z 00000001400650e8     libucrtd:output.obj
 0002:000130e8       $unwind$??$type_case_integer_parse_into_buffer@I$09@?$output_processor@DV?$string_output_adapter@D@__crt_stdio_output@@V?$standard_base@DV?$string_output_adapter@D@__crt_stdio_output@@@2@@__crt_stdio_output@@AEAAXI_N@Z 00000001400650e8     libucrtd:output.obj
 0002:000130e8       $unwind$??$type_case_integer_parse_into_buffer@I$09@?$output_processor@_WV?$string_output_adapter@_W@__crt_stdio_output@@V?$format_validation_base@_WV?$string_output_adapter@_W@__crt_stdio_output@@@2@@__crt_stdio_output@@AEAAXI_N@Z 00000001400650e8     libucrtd:output.obj
 0002:000130e8       $unwind$??$type_case_integer_parse_into_buffer@I$0BA@@?$output_processor@DV?$string_output_adapter@D@__crt_stdio_output@@V?$format_validation_base@DV?$string_output_adapter@D@__crt_stdio_output@@@2@@__crt_stdio_output@@AEAAXI_N@Z 00000001400650e8     libucrtd:output.obj
 0002:000130e8       $unwind$??$type_case_integer_parse_into_buffer@I$0BA@@?$output_processor@DV?$string_output_adapter@D@__crt_stdio_output@@V?$standard_base@DV?$string_output_adapter@D@__crt_stdio_output@@@2@@__crt_stdio_output@@AEAAXI_N@Z 00000001400650e8     libucrtd:output.obj
 0002:000130e8       $unwind$??$type_case_integer_parse_into_buffer@I$0BA@@?$output_processor@_WV?$string_output_adapter@_W@__crt_stdio_output@@V?$format_validation_base@_WV?$string_output_adapter@_W@__crt_stdio_output@@@2@@__crt_stdio_output@@AEAAXI_N@Z 00000001400650e8     libucrtd:output.obj
