 platform

 Timestamp is 6855e224 (Sat Jun 21 00:35:16 2025)

 Preferred load address is 0000000140000000

 Start         Length     Name                   Class
 0001:00000000 0003f3f0H .text$mn                CODE
 0001:0003f3f0 00000040H .text$mn$00             CODE
 0001:0003f430 00000a70H .text$mn$21             CODE
 0001:0003fea0 0000064dH .text$x                 CODE
 0002:00000000 000003d0H .idata$5                DATA
 0002:000003d0 00000038H .00cfg                  DATA
 0002:00000408 00000008H .CRT$XCA                DATA
 0002:00000410 00000008H .CRT$XCAA               DATA
 0002:00000418 00000008H .CRT$XCZ                DATA
 0002:00000420 00000008H .CRT$XIA                DATA
 0002:00000428 00000008H .CRT$XIAA               DATA
 0002:00000430 00000008H .CRT$XIAC               DATA
 0002:00000438 00000020H .CRT$XIC                DATA
 0002:00000458 00000008H .CRT$XIZ                DATA
 0002:00000460 00000008H .CRT$XPA                DATA
 0002:00000468 00000010H .CRT$XPX                DATA
 0002:00000478 00000008H .CRT$XPXA               DATA
 0002:00000480 00000008H .CRT$XPZ                DATA
 0002:00000488 00000008H .CRT$XTA                DATA
 0002:00000490 00000010H .CRT$XTZ                DATA
 0002:00000498 00000000H .gehcont$y              DATA
 0002:00000498 00000000H .gfids$y                DATA
 0002:000004a0 000117f0H .rdata                  DATA
 0002:00011c90 00000170H .rdata$00               DATA
 0002:00011e00 00000000H .rdata$CastGuardVftablesA DATA
 0002:00011e00 00000000H .rdata$CastGuardVftablesC DATA
 0002:00011e00 0000016cH .rdata$r                DATA
 0002:00011f6c 000000d4H .rdata$voltmd           DATA
 0002:00012040 00000388H .rdata$zzzdbg           DATA
 0002:000123c8 00000008H .rtc$IAA                DATA
 0002:000123d0 00000008H .rtc$IZZ                DATA
 0002:000123d8 00000008H .rtc$TAA                DATA
 0002:000123e0 00000008H .rtc$TZZ                DATA
 0002:000123e8 000011e0H .xdata                  DATA
 0002:000135c8 00000084H .xdata$x                DATA
 0002:0001364c 00000000H .edata                  DATA
 0002:0001364c 00000050H .idata$2                DATA
 0002:0001369c 00000014H .idata$3                DATA
 0002:000136b0 000003d0H .idata$4                DATA
 0002:00013a80 0000086cH .idata$6                DATA
 0003:00000000 00000ad0H .data                   DATA
 0003:00000ad0 00000050H .data$r                 DATA
 0003:00000b20 00000020H .data$rs                DATA
 0003:00000b40 00001960H .bss                    DATA
 0004:00000000 000031bcH .pdata                  DATA

  Address         Publics by Value              Rva+Base               Lib:Object

 0000:00000000       __AbsoluteZero             0000000000000000     <absolute>
 0000:00000000       ___safe_se_handler_count   0000000000000000     <absolute>
 0000:00000000       ___safe_se_handler_table   0000000000000000     <absolute>
 0000:00000000       __arm64x_extra_rfe_table   0000000000000000     <absolute>
 0000:00000000       __arm64x_extra_rfe_table_size 0000000000000000     <absolute>
 0000:00000000       __arm64x_native_entrypoint 0000000000000000     <absolute>
 0000:00000000       __arm64x_redirection_metadata 0000000000000000     <absolute>
 0000:00000000       __arm64x_redirection_metadata_count 0000000000000000     <absolute>
 0000:00000000       __dynamic_value_reloc_table 0000000000000000     <absolute>
 0000:00000000       __enclave_config           0000000000000000     <absolute>
 0000:00000000       __guard_check_icall_a64n_fptr 0000000000000000     <absolute>
 0000:00000000       __guard_eh_cont_count      0000000000000000     <absolute>
 0000:00000000       __guard_eh_cont_table      0000000000000000     <absolute>
 0000:00000000       __guard_fids_count         0000000000000000     <absolute>
 0000:00000000       __guard_fids_table         0000000000000000     <absolute>
 0000:00000000       __guard_iat_count          0000000000000000     <absolute>
 0000:00000000       __guard_iat_table          0000000000000000     <absolute>
 0000:00000000       __guard_longjmp_count      0000000000000000     <absolute>
 0000:00000000       __guard_longjmp_table      0000000000000000     <absolute>
 0000:00000000       __hybrid_auxiliary_delayload_iat 0000000000000000     <absolute>
 0000:00000000       __hybrid_auxiliary_delayload_iat_copy 0000000000000000     <absolute>
 0000:00000000       __hybrid_auxiliary_iat     0000000000000000     <absolute>
 0000:00000000       __hybrid_auxiliary_iat_copy 0000000000000000     <absolute>
 0000:00000000       __hybrid_code_map          0000000000000000     <absolute>
 0000:00000000       __hybrid_code_map_count    0000000000000000     <absolute>
 0000:00000000       __hybrid_image_info_bitfield 0000000000000000     <absolute>
 0000:00000000       __x64_code_ranges_to_entry_points 0000000000000000     <absolute>
 0000:00000000       __x64_code_ranges_to_entry_points_count 0000000000000000     <absolute>
 0000:00000100       __guard_flags              0000000000000100     <absolute>
 0000:00000000       __ImageBase                0000000140000000     <linker-defined>
 0001:00000000       ?platform_init_engine_stub@@YAXPEAUPlatform_init_result@@@Z 0000000140001000 f   platform.obj
 0001:00000010       ?platform_init_memory_base_stub@@YAXPEAUGlobals@@@Z 0000000140001010 f   platform.obj
 0001:00000020       ?update_and_render_stub@@YAXPEAUPlatform_frame_pass@@PEAUEngine_frame_result@@@Z 0000000140001020 f   platform.obj
 0001:00000040       WinMain                    0000000140001040 f   platform.obj
 0001:00000d90       ?load_dll@@YAPEAUHINSTANCE__@@XZ 0000000140001d90 f   platform.obj
 0001:00000ea0       ?unload_dll@@YAXPEAUHINSTANCE__@@@Z 0000000140001ea0 f   platform.obj
 0001:00000ef0       ?init_keymap@@YAXXZ        0000000140001ef0 f   platform.obj
 0001:00001040       ?window_procedure@@YA_JPEAUHWND__@@I_K_J@Z 0000000140002040 f   platform.obj
 0001:00001500       ??$Max@K@@YAKKK@Z          0000000140002500 f i platform.obj
 0001:00001530       ??$align_up@_K@@YA_K_K0@Z  0000000140002530 f i platform.obj
 0001:00001580       ??$is_pow2@_K@@YAH_K@Z     0000000140002580 f i platform.obj
 0001:000015a0       ?bit_array_get@@YAHUBit_array@@I@Z 00000001400025a0 f i platform.obj
 0001:00001600       ?bit_array_set@@YAXUBit_array@@I@Z 0000000140002600 f i platform.obj
 0001:00001680       ?bit_array_unset@@YAXUBit_array@@I@Z 0000000140002680 f i platform.obj
 0001:00001700       ?copy_and_maybe_overwrite_file@@YAHPEBE0@Z 0000000140002700 f i platform.obj
 0001:00001770       ?copy_file@@YAHPEBE0@Z     0000000140002770 f i platform.obj
 0001:000017e0       ?create_directory@@YAHPEBE@Z 00000001400027e0 f i platform.obj
 0001:00001840       ?create_or_open_file_for_writing@@YAXPEBEPEAPEAX@Z 0000000140002840 f i platform.obj
 0001:000018d0       ?delete_directory@@YAHPEBE@Z 00000001400028d0 f i platform.obj
 0001:00001920       ?delete_file@@YAHPEBE@Z    0000000140002920 f i platform.obj
 0001:00001980       ?directory_exists@@YAHPEBE@Z 0000000140002980 f i platform.obj
 0001:000019d0       ?dword_for_bit@@YAII@Z     00000001400029d0 f i platform.obj
 0001:000019f0       ?dword_mask_for_bit@@YA_KI@Z 00000001400029f0 f i platform.obj
 0001:00001a20       ?get_file_size@@YAHPEBEPEAI@Z 0000000140002a20 f i platform.obj
 0001:00001aa0       ?get_flags@@YAEEE@Z        0000000140002aa0 f i platform.obj
 0001:00001ac0       ?move_and_maybe_overwrite_file@@YAHPEBE0@Z 0000000140002ac0 f i platform.obj
 0001:00001b30       ?move_file@@YAHPEBE0@Z     0000000140002b30 f i platform.obj
 0001:00001ba0       ?open_existing_file_for_reading@@YAHPEBEPEAPEAX@Z 0000000140002ba0 f i platform.obj
 0001:00001c30       ?read_entire_file@@YAHPEBEPEAXI@Z 0000000140002c30 f i platform.obj
 0001:00001cd0       ?read_time_counter@@YANXZ  0000000140002cd0 f i platform.obj
 0001:00001d10       ?set_flags@@YAEEE@Z        0000000140002d10 f i platform.obj
 0001:00001d30       ?unset_flags@@YAEEE@Z      0000000140002d30 f i platform.obj
 0001:00001d50       ?write_entire_file@@YAXPEBEPEAXI@Z 0000000140002d50 f i platform.obj
 0001:00001de0       __local_stdio_printf_options 0000000140002de0 f i platform.obj
 0001:00001df0       _vsnprintf_l               0000000140002df0 f i platform.obj
 0001:00001e70       _vsprintf_l                0000000140002e70 f i platform.obj
 0001:00001ec0       sprintf                    0000000140002ec0 f i platform.obj
 0001:00001f10       __GSHandlerCheck           0000000140002f10 f   LIBCMTD:gshandler.obj
 0001:00001f50       __GSHandlerCheckCommon     0000000140002f50 f   LIBCMTD:gshandler.obj
 0001:00002060       __security_check_cookie    0000000140003060 f   LIBCMTD:amdsecgs.obj
 0001:00002340       ?configure_argv@__scrt_narrow_argv_policy@@SAHXZ 0000000140003340 f i LIBCMTD:exe_winmain.obj
 0001:00002360       ?initialize_environment@__scrt_narrow_environment_policy@@SAHXZ 0000000140003360 f i LIBCMTD:exe_winmain.obj
 0001:000023b0       ?set_app_type@__scrt_winmain_policy@@SAXXZ 00000001400033b0 f i LIBCMTD:exe_winmain.obj
 0001:000023d0       ?set_commode@__scrt_file_policy@@SAXXZ 00000001400033d0 f i LIBCMTD:exe_winmain.obj
 0001:000023f0       ?set_fmode@__scrt_file_policy@@SAXXZ 00000001400033f0 f i LIBCMTD:exe_winmain.obj
 0001:00002410       WinMainCRTStartup          0000000140003410 f   LIBCMTD:exe_winmain.obj
 0001:00002430       __raise_securityfailure    0000000140003430 f   LIBCMTD:gs_report.obj
 0001:00002470       __report_gsfailure         0000000140003470 f   LIBCMTD:gs_report.obj
 0001:00002550       __report_rangecheckfailure 0000000140003550 f   LIBCMTD:gs_report.obj
 0001:00002570       __report_securityfailure   0000000140003570 f   LIBCMTD:gs_report.obj
 0001:000028d0       NtCurrentTeb               00000001400038d0 f i LIBCMTD:utility.obj
 0001:000028e0       __scrt_acquire_startup_lock 00000001400038e0 f   LIBCMTD:utility.obj
 0001:00002950       __scrt_initialize_crt      0000000140003950 f   LIBCMTD:utility.obj
 0001:000029a0       __scrt_initialize_onexit_tables 00000001400039a0 f   LIBCMTD:utility.obj
 0001:00002ab0       __scrt_is_nonwritable_in_current_image 0000000140003ab0 f   LIBCMTD:utility.obj
 0001:00002b40       __scrt_release_startup_lock 0000000140003b40 f   LIBCMTD:utility.obj
 0001:00002b70       __scrt_uninitialize_crt    0000000140003b70 f   LIBCMTD:utility.obj
 0001:00002bb0       _onexit                    0000000140003bb0 f   LIBCMTD:utility.obj
 0001:00002c30       atexit                     0000000140003c30 f   LIBCMTD:utility.obj
 0001:00002d30       __security_init_cookie     0000000140003d30 f   LIBCMTD:gs_support.obj
 0001:00002db0       ?get_current_state_index@__crt_state_management@@YA_KAEBV__crt_scoped_get_last_error_reset@@@Z 0000000140003db0 f   libucrtd:output.obj
 0001:00002db0       _matherr                   0000000140003db0 f   LIBCMTD:matherr.obj
 0001:00002dc0       _get_startup_argv_mode     0000000140003dc0 f   LIBCMTD:argv_mode.obj
 0001:00002dd0       ?get_current_state_index@__crt_state_management@@YA_KXZ 0000000140003dd0 f   libucrtd:matherr.obj
 0001:00002dd0       ?get_invalid_value@__crt_hmodule_traits@@SAPEAUHINSTANCE__@@XZ 0000000140003dd0 f   libucrtd:exit.obj
 0001:00002dd0       __scrt_exe_initialize_mta  0000000140003dd0 f   LIBCMTD:utility_desktop.obj
 0001:00002dd0       __scrt_initialize_winrt    0000000140003dd0 f   LIBCMTD:utility_desktop.obj
 0001:00002dd0       __scrt_stub_for_initialize_mta 0000000140003dd0 f   LIBCMTD:utility_desktop.obj
 0001:00002dd0       _get_startup_commit_mode   0000000140003dd0 f   LIBCMTD:commit_mode.obj
 0001:00002dd0       _get_startup_new_mode      0000000140003dd0 f   LIBCMTD:new_mode.obj
 0001:00002dd0       _get_startup_thread_locale_mode 0000000140003dd0 f   LIBCMTD:thread_locale.obj
 0001:00002de0       _get_startup_file_mode     0000000140003de0 f   LIBCMTD:file_mode.obj
 0001:00002df0       ?__scrt_initialize_type_info@@YAXXZ 0000000140003df0 f   LIBCMTD:tncleanup.obj
 0001:00002e10       _should_initialize_environment 0000000140003e10 f   LIBCMTD:env_mode.obj
 0001:00002e20       _initialize_denormal_control 0000000140003e20 f   LIBCMTD:denormal_control.obj
 0001:00002e20       _initialize_invalid_parameter_handler 0000000140003e20 f   LIBCMTD:invalid_parameter_handler.obj
 0001:00002e30       __local_stdio_scanf_options 0000000140003e30 f i LIBCMTD:default_local_stdio_options.obj
 0001:00002e40       __scrt_initialize_default_local_stdio_options 0000000140003e40 f   LIBCMTD:default_local_stdio_options.obj
 0001:00002e90       __scrt_is_user_matherr_present 0000000140003e90 f   LIBCMTD:matherr_detection.obj
 0001:00002ec0       __scrt_get_dyn_tls_init_callback 0000000140003ec0 f   LIBCMTD:dyn_tls_init.obj
 0001:00002ed0       __scrt_get_dyn_tls_dtor_callback 0000000140003ed0 f   LIBCMTD:dyn_tls_dtor.obj
 0001:00002ee0       __crt_debugger_hook        0000000140003ee0 f   LIBCMTD:utility_desktop.obj
 0001:00002ef0       __scrt_fastfail            0000000140003ef0 f   LIBCMTD:utility_desktop.obj
 0001:00003090       __scrt_get_show_window_mode 0000000140004090 f   LIBCMTD:utility_desktop.obj
 0001:000030f0       __scrt_initialize_mta      00000001400040f0 f   LIBCMTD:utility_desktop.obj
 0001:00003100       __scrt_is_managed_app      0000000140004100 f   LIBCMTD:utility_desktop.obj
 0001:000031b0       __scrt_set_unhandled_exception_filter 00000001400041b0 f   LIBCMTD:utility_desktop.obj
 0001:000031d0       __scrt_unhandled_exception_filter 00000001400041d0 f   LIBCMTD:utility_desktop.obj
 0001:00003270       _RTC_Initialize            0000000140004270 f   LIBCMTD:initsect.obj
 0001:000032c0       _RTC_Terminate             00000001400042c0 f   LIBCMTD:initsect.obj
 0001:00003310       ??1?$__crt_simd_cleanup_guard@$0A@@@QEAA@XZ 0000000140004310 f i libucrtd:strnlen.obj
 0001:00003310       ??1scoped_global_state_reset@__crt_state_management@@QEAA@XZ 0000000140004310 f i libucrtd:onexit.obj
 0001:00003310       _guard_check_icall_nop     0000000140004310 f i LIBCMTD:guard_support.obj
 0001:00003320       ReadNoFence64              0000000140004320 f i LIBCMTD:guard_support.obj
 0001:00003340       ReadPointerNoFence         0000000140004340 f i LIBCMTD:guard_support.obj
 0001:00003360       _guard_icall_checks_enforced 0000000140004360 f i LIBCMTD:guard_support.obj
 0001:000033a0       __isa_available_init       00000001400043a0 f   LIBCMTD:cpu_disp.obj
 0001:00003890       __scrt_is_ucrt_dll_in_use  0000000140004890 f   LIBCMTD:ucrt_detection.obj
 0001:000038c0       __C_specific_handler       00000001400048c0 f   libvcruntimed:riscchandler.obj
 0001:00003d30       __vcrt_initialize          0000000140004d30 f   libvcruntimed:initialization.obj
 0001:00003d70       __vcrt_uninitialize        0000000140004d70 f   libvcruntimed:initialization.obj
 0001:00003d90       ??$?RD@__crt_internal_free_policy@@QEBAXQEBD@Z 0000000140004d90 f i libvcruntimed:std_type_info.obj
 0001:00003d90       ??$?RU__vcrt_ptd@@@__crt_internal_free_policy@@QEBAXQEBU__vcrt_ptd@@@Z 0000000140004d90 f i libvcruntimed:per_thread_data.obj
 0001:00003dc0       ??0?$__crt_scoped_stack_ptr@_W@@QEAA@U?$__crt_scoped_stack_ptr_tag@_W@@@Z 0000000140004dc0 f i libucrtd:getstringtypea.obj
 0001:00003dc0       ??0?$__crt_scoped_stack_ptr_tag@_W@@QEAA@QEA_W@Z 0000000140004dc0 f i libucrtd:getstringtypea.obj
 0001:00003dc0       ??0?$__crt_unique_handle_t@U__crt_findfile_traits@@@@QEAA@QEAX@Z 0000000140004dc0 f i libucrtd:argv_wildcards.obj
 0001:00003dc0       ??0?$__crt_unique_handle_t@U__crt_hmodule_traits@@@@QEAA@QEAUHINSTANCE__@@@Z 0000000140004dc0 f i libucrtd:exit.obj
 0001:00003dc0       ??0?$__crt_unique_heap_ptr@DU__crt_internal_free_policy@@@@QEAA@QEAD@Z 0000000140004dc0 f i libvcruntimed:std_type_info.obj
 0001:00003dc0       ??0?$__crt_unique_heap_ptr@DU__crt_public_free_policy@@@@QEAA@QEAD@Z 0000000140004dc0 f i libvcruntimed:std_exception.obj
 0001:00003dc0       ??0?$__crt_unique_heap_ptr@EU__crt_internal_free_policy@@@@QEAA@QEAE@Z 0000000140004dc0 f i libucrtd:argv_parsing.obj
 0001:00003dc0       ??0?$__crt_unique_heap_ptr@P6AXXZU__crt_internal_free_policy@@@@QEAA@QEAP6AXXZ@Z 0000000140004dc0 f i libucrtd:onexit.obj
 0001:00003dc0       ??0?$__crt_unique_heap_ptr@PEADU__crt_internal_free_policy@@@@QEAA@QEAPEAD@Z 0000000140004dc0 f i libucrtd:argv_parsing.obj
 0001:00003dc0       ??0?$__crt_unique_heap_ptr@PEAU__crt_stdio_stream_data@@U__crt_internal_free_policy@@@@QEAA@QEAPEAU__crt_stdio_stream_data@@@Z 0000000140004dc0 f i libucrtd:_file.obj
 0001:00003dc0       ??0?$__crt_unique_heap_ptr@U__acrt_ptd@@U__crt_internal_free_policy@@@@QEAA@QEAU__acrt_ptd@@@Z 0000000140004dc0 f i libucrtd:per_thread_data.obj
 0001:00003dc0       ??0?$__crt_unique_heap_ptr@U__crt_lowio_handle_data@@U__crt_internal_free_policy@@@@QEAA@QEAU__crt_lowio_handle_data@@@Z 0000000140004dc0 f i libucrtd:osfinfo.obj
 0001:00003dc0       ??0?$__crt_unique_heap_ptr@U__crt_multibyte_data@@U__crt_internal_free_policy@@@@QEAA@QEAU__crt_multibyte_data@@@Z 0000000140004dc0 f i libucrtd:wsetlocale.obj
 0001:00003dc0       ??0?$__crt_unique_heap_ptr@U__vcrt_ptd@@U__crt_internal_free_policy@@@@QEAA@QEAU__vcrt_ptd@@@Z 0000000140004dc0 f i libvcruntimed:per_thread_data.obj
 0001:00003dc0       ??0?$string_output_adapter@D@__crt_stdio_output@@QEAA@QEAU?$string_output_adapter_context@D@1@@Z 0000000140004dc0 f i libucrtd:output.obj
 0001:00003dc0       ??0?$string_output_adapter@_W@__crt_stdio_output@@QEAA@QEAU?$string_output_adapter_context@_W@1@@Z 0000000140004dc0 f i libucrtd:output.obj
 0001:00003dc0       ??0__crt_stdio_stream@@QEAA@QEAU__crt_stdio_stream_data@@@Z 0000000140004dc0 f i libucrtd:closeall.obj
 0001:00003dc0       ??0__crt_stdio_stream@@QEAA@QEAU_iobuf@@@Z 0000000140004dc0 f i libucrtd:output.obj
 0001:00003de0       ??1?$__crt_unique_heap_ptr@DU__crt_internal_free_policy@@@@QEAA@XZ 0000000140004de0 f i libvcruntimed:std_type_info.obj
 0001:00003de0       ??1?$__crt_unique_heap_ptr@U__vcrt_ptd@@U__crt_internal_free_policy@@@@QEAA@XZ 0000000140004de0 f i libvcruntimed:per_thread_data.obj
 0001:00003e00       ??B?$__crt_unique_heap_ptr@DU__crt_internal_free_policy@@@@QEBA_NXZ 0000000140004e00 f i libvcruntimed:std_type_info.obj
 0001:00003e00       ??B?$__crt_unique_heap_ptr@DU__crt_public_free_policy@@@@QEBA_NXZ 0000000140004e00 f i libvcruntimed:std_exception.obj
 0001:00003e00       ??B?$__crt_unique_heap_ptr@EU__crt_internal_free_policy@@@@QEBA_NXZ 0000000140004e00 f i libucrtd:argv_parsing.obj
 0001:00003e00       ??B?$__crt_unique_heap_ptr@PEADU__crt_internal_free_policy@@@@QEBA_NXZ 0000000140004e00 f i libucrtd:environment_initialization.obj
 0001:00003e00       ??B?$__crt_unique_heap_ptr@U__acrt_ptd@@U__crt_internal_free_policy@@@@QEBA_NXZ 0000000140004e00 f i libucrtd:per_thread_data.obj
 0001:00003e00       ??B?$__crt_unique_heap_ptr@U__crt_lowio_handle_data@@U__crt_internal_free_policy@@@@QEBA_NXZ 0000000140004e00 f i libucrtd:osfinfo.obj
 0001:00003e00       ??B?$__crt_unique_heap_ptr@U__crt_multibyte_data@@U__crt_internal_free_policy@@@@QEBA_NXZ 0000000140004e00 f i libucrtd:wsetlocale.obj
 0001:00003e00       ??B?$__crt_unique_heap_ptr@U__vcrt_ptd@@U__crt_internal_free_policy@@@@QEBA_NXZ 0000000140004e00 f i libvcruntimed:per_thread_data.obj
 0001:00003e20       ?__crt_interlocked_read_64@@YA_JPED_J@Z 0000000140004e20 f i libvcruntimed:std_type_info.obj
 0001:00003e40       ??C__crt_stdio_stream@@QEBAPEAU__crt_stdio_stream_data@@XZ 0000000140004e40 f i libucrtd:output.obj
 0001:00003e40       ?get@?$__crt_scoped_stack_ptr@_W@@QEBAPEA_WXZ 0000000140004e40 f i libucrtd:getstringtypea.obj
 0001:00003e40       ?get@?$__crt_unique_handle_t@U__crt_findfile_traits@@@@QEBAPEAXXZ 0000000140004e40 f i libucrtd:argv_wildcards.obj
 0001:00003e40       ?get@?$__crt_unique_handle_t@U__crt_hmodule_traits@@@@QEBAPEAUHINSTANCE__@@XZ 0000000140004e40 f i libucrtd:exit.obj
 0001:00003e40       ?get@?$__crt_unique_heap_ptr@DU__crt_internal_free_policy@@@@QEBAPEADXZ 0000000140004e40 f i libvcruntimed:std_type_info.obj
 0001:00003e40       ?get@?$__crt_unique_heap_ptr@DU__crt_public_free_policy@@@@QEBAPEADXZ 0000000140004e40 f i libvcruntimed:std_exception.obj
 0001:00003e40       ?get@?$__crt_unique_heap_ptr@EU__crt_internal_free_policy@@@@QEBAPEAEXZ 0000000140004e40 f i libucrtd:argv_parsing.obj
 0001:00003e40       ?get@?$__crt_unique_heap_ptr@PEADU__crt_internal_free_policy@@@@QEBAPEAPEADXZ 0000000140004e40 f i libucrtd:argv_parsing.obj
 0001:00003e40       ?get@?$__crt_unique_heap_ptr@U__acrt_ptd@@U__crt_internal_free_policy@@@@QEBAPEAU__acrt_ptd@@XZ 0000000140004e40 f i libucrtd:per_thread_data.obj
 0001:00003e40       ?get@?$__crt_unique_heap_ptr@U__crt_lowio_handle_data@@U__crt_internal_free_policy@@@@QEBAPEAU__crt_lowio_handle_data@@XZ 0000000140004e40 f i libucrtd:osfinfo.obj
 0001:00003e40       ?get@?$__crt_unique_heap_ptr@U__crt_multibyte_data@@U__crt_internal_free_policy@@@@QEBAPEAU__crt_multibyte_data@@XZ 0000000140004e40 f i libucrtd:wsetlocale.obj
 0001:00003e40       ?get@?$__crt_unique_heap_ptr@U__vcrt_ptd@@U__crt_internal_free_policy@@@@QEBAPEAU__vcrt_ptd@@XZ 0000000140004e40 f i libvcruntimed:per_thread_data.obj
 0001:00003e40       ?public_stream@__crt_stdio_stream@@QEBAPEAU_iobuf@@XZ 0000000140004e40 f i libucrtd:output.obj
 0001:00003e40       ?save_state@?$c_string_character_source@D@__crt_strtox@@QEBAPEBDXZ 0000000140004e40 f i libucrtd:output.obj
 0001:00003e40       ?save_state@?$c_string_character_source@_W@__crt_strtox@@QEBAPEB_WXZ 0000000140004e40 f i libucrtd:output.obj
 0001:00003e50       ??B?$__crt_scoped_stack_ptr@_W@@QEBA_NXZ 0000000140004e50 f i libucrtd:lcmapstringa.obj
 0001:00003e50       ?is_valid@?$__crt_unique_heap_ptr@DU__crt_internal_free_policy@@@@QEBA_NXZ 0000000140004e50 f i libvcruntimed:std_type_info.obj
 0001:00003e50       ?is_valid@?$__crt_unique_heap_ptr@DU__crt_public_free_policy@@@@QEBA_NXZ 0000000140004e50 f i libvcruntimed:std_exception.obj
 0001:00003e50       ?is_valid@?$__crt_unique_heap_ptr@EU__crt_internal_free_policy@@@@QEBA_NXZ 0000000140004e50 f i libucrtd:argv_parsing.obj
 0001:00003e50       ?is_valid@?$__crt_unique_heap_ptr@PEADU__crt_internal_free_policy@@@@QEBA_NXZ 0000000140004e50 f i libucrtd:environment_initialization.obj
 0001:00003e50       ?is_valid@?$__crt_unique_heap_ptr@U__acrt_ptd@@U__crt_internal_free_policy@@@@QEBA_NXZ 0000000140004e50 f i libucrtd:per_thread_data.obj
 0001:00003e50       ?is_valid@?$__crt_unique_heap_ptr@U__crt_lowio_handle_data@@U__crt_internal_free_policy@@@@QEBA_NXZ 0000000140004e50 f i libucrtd:osfinfo.obj
 0001:00003e50       ?is_valid@?$__crt_unique_heap_ptr@U__crt_multibyte_data@@U__crt_internal_free_policy@@@@QEBA_NXZ 0000000140004e50 f i libucrtd:wsetlocale.obj
 0001:00003e50       ?is_valid@?$__crt_unique_heap_ptr@U__vcrt_ptd@@U__crt_internal_free_policy@@@@QEBA_NXZ 0000000140004e50 f i libvcruntimed:per_thread_data.obj
 0001:00003e50       ?valid@__crt_stdio_stream@@QEBA_NXZ 0000000140004e50 f i libucrtd:output.obj
 0001:00003e80       ?release@?$__crt_unique_heap_ptr@DU__crt_internal_free_policy@@@@QEAAXXZ 0000000140004e80 f i libvcruntimed:std_type_info.obj
 0001:00003e80       ?release@?$__crt_unique_heap_ptr@U__vcrt_ptd@@U__crt_internal_free_policy@@@@QEAAXXZ 0000000140004e80 f i libvcruntimed:per_thread_data.obj
 0001:00003eb0       __std_type_info_compare    0000000140004eb0 f   libvcruntimed:std_type_info.obj
 0001:00003ef0       __DestructExceptionObject  0000000140004ef0 f   libvcruntimed:ehhelpers.obj
 0001:00003ff0       ?_CallMemberFunction0@@YAXQEAX0@Z 0000000140004ff0 f i libvcruntimed:ehhelpers.obj
 0001:000040d0       _IsExceptionObjectToBeDestroyed 00000001400050d0 f   libvcruntimed:ehhelpers.obj
 0001:00004120       __AdjustPointer            0000000140005120 f   libvcruntimed:ehhelpers.obj
 0001:000041a0       __FrameUnwindFilter        00000001400051a0 f   libvcruntimed:ehhelpers.obj
 0001:00004250       __current_exception        0000000140005250 f   libvcruntimed:ehhelpers.obj
 0001:00004270       __current_exception_context 0000000140005270 f   libvcruntimed:ehhelpers.obj
 0001:000042c0       _NLG_Notify                00000001400052c0 f   libvcruntimed:notify.obj
 0001:000042e0       __NLG_Dispatch2            00000001400052e0 f   libvcruntimed:notify.obj
 0001:000042f0       __NLG_Return2              00000001400052f0 f   libvcruntimed:notify.obj
 0001:00004300       __except_validate_context_record 0000000140005300 f   libvcruntimed:jbcxrval.obj
 0001:000043a0       ?detach@?$__crt_unique_heap_ptr@DU__crt_internal_free_policy@@@@QEAAPEADXZ 00000001400053a0 f i libucrtd:environment_initialization.obj
 0001:000043a0       ?detach@?$__crt_unique_heap_ptr@DU__crt_public_free_policy@@@@QEAAPEADXZ 00000001400053a0 f i libvcruntimed:std_exception.obj
 0001:000043a0       ?detach@?$__crt_unique_heap_ptr@EU__crt_internal_free_policy@@@@QEAAPEAEXZ 00000001400053a0 f i libucrtd:argv_parsing.obj
 0001:000043a0       ?detach@?$__crt_unique_heap_ptr@P6AXXZU__crt_internal_free_policy@@@@QEAAPEAP6AXXZXZ 00000001400053a0 f i libucrtd:onexit.obj
 0001:000043a0       ?detach@?$__crt_unique_heap_ptr@PEADU__crt_internal_free_policy@@@@QEAAPEAPEADXZ 00000001400053a0 f i libucrtd:argv_parsing.obj
 0001:000043a0       ?detach@?$__crt_unique_heap_ptr@PEAU__crt_stdio_stream_data@@U__crt_internal_free_policy@@@@QEAAPEAPEAU__crt_stdio_stream_data@@XZ 00000001400053a0 f i libucrtd:_file.obj
 0001:000043a0       ?detach@?$__crt_unique_heap_ptr@U__acrt_ptd@@U__crt_internal_free_policy@@@@QEAAPEAU__acrt_ptd@@XZ 00000001400053a0 f i libucrtd:per_thread_data.obj
 0001:000043a0       ?detach@?$__crt_unique_heap_ptr@U__crt_lowio_handle_data@@U__crt_internal_free_policy@@@@QEAAPEAU__crt_lowio_handle_data@@XZ 00000001400053a0 f i libucrtd:osfinfo.obj
 0001:000043a0       ?detach@?$__crt_unique_heap_ptr@U__crt_multibyte_data@@U__crt_internal_free_policy@@@@QEAAPEAU__crt_multibyte_data@@XZ 00000001400053a0 f i libucrtd:wsetlocale.obj
 0001:000043a0       ?detach@?$__crt_unique_heap_ptr@U__vcrt_ptd@@U__crt_internal_free_policy@@@@QEAAPEAU__vcrt_ptd@@XZ 00000001400053a0 f i libvcruntimed:per_thread_data.obj
 0001:00004410       __vcrt_freefls             0000000140005410 f   libvcruntimed:per_thread_data.obj
 0001:00004450       __vcrt_getptd              0000000140005450 f   libvcruntimed:per_thread_data.obj
 0001:00004480       __vcrt_getptd_noexit       0000000140005480 f   libvcruntimed:per_thread_data.obj
 0001:00004620       __vcrt_initialize_ptd      0000000140005620 f   libvcruntimed:per_thread_data.obj
 0001:00004670       __vcrt_uninitialize_ptd    0000000140005670 f   libvcruntimed:per_thread_data.obj
 0001:000046a0       __vcrt_initialize_locks    00000001400056a0 f   libvcruntimed:locks.obj
 0001:00004710       __vcrt_uninitialize_locks  0000000140005710 f   libvcruntimed:locks.obj
 0001:00004770       _vsprintf_s_l              0000000140005770 f i libvcruntimed:undname.obj
 0001:000047e0       sprintf_s                  00000001400057e0 f i libvcruntimed:undname.obj
 0001:00004840       ??$__crt_interlocked_exchange_pointer@UHINSTANCE__@@PEAU1@@@YAPEAUHINSTANCE__@@PEDSEAU0@QEAU0@@Z 0000000140005840 f i libvcruntimed:winapi_downlevel.obj
 0001:00004840       ??$__crt_interlocked_exchange_pointer@UHINSTANCE__@@PEAX@@YAPEAUHINSTANCE__@@PEDSEAU0@QEAX@Z 0000000140005840 f i libvcruntimed:winapi_downlevel.obj
 0001:00004840       ??$__crt_interlocked_exchange_pointer@XPEAX@@YAPEAXPEDSEAXQEAX@Z 0000000140005840 f i libvcruntimed:winapi_downlevel.obj
 0001:00004860       ??$__crt_interlocked_read_pointer@UHINSTANCE__@@@@YAPEAUHINSTANCE__@@PEDSEAU0@@Z 0000000140005860 f i libvcruntimed:winapi_downlevel.obj
 0001:00004860       ??$__crt_interlocked_read_pointer@X@@YAPEAXPEDSEAX@Z 0000000140005860 f i libvcruntimed:winapi_downlevel.obj
 0001:00004880       ?get_invalid_value@__crt_findfile_traits@@SAPEAXXZ 0000000140005880 f   libucrtd:argv_wildcards.obj
 0001:00004d70       __vcrt_FlsAlloc            0000000140005d70 f   libvcruntimed:winapi_downlevel.obj
 0001:00004dc0       __vcrt_FlsFree             0000000140005dc0 f   libvcruntimed:winapi_downlevel.obj
 0001:00004e10       __vcrt_FlsGetValue         0000000140005e10 f   libvcruntimed:winapi_downlevel.obj
 0001:00004e60       __vcrt_FlsSetValue         0000000140005e60 f   libvcruntimed:winapi_downlevel.obj
 0001:00004ec0       __vcrt_InitializeCriticalSectionEx 0000000140005ec0 f   libvcruntimed:winapi_downlevel.obj
 0001:00004f30       ??$?0AEAViterator@TryBlockMap@__FrameHandler3@@AEAV012@$0A@@?$pair@Viterator@TryBlockMap@__FrameHandler3@@V123@@std@@QEAA@AEAViterator@TryBlockMap@__FrameHandler3@@0@Z 0000000140005f30 f i libvcruntimed:risctrnsctrl.obj
 0001:00005040       ??$_CallSETranslator@V__FrameHandler3@@@@YAHPEAUEHExceptionRecord@@PEA_KPEAU_CONTEXT@@PEAU_xDISPATCHER_CONTEXT@@PEBU_s_FuncInfo@@K1H@Z 0000000140006040 f i libvcruntimed:risctrnsctrl.obj
 0001:000050d0       ??0iterator@HandlerMap@__FrameHandler3@@QEAA@AEAV12@I@Z 00000001400060d0 f i libvcruntimed:frame.obj
 0001:000050d0       ??0iterator@TryBlockMap@__FrameHandler3@@QEAA@AEAV12@I@Z 00000001400060d0 f i libvcruntimed:risctrnsctrl.obj
 0001:00005100       ?CatchTryBlock@__FrameHandler3@@SAPEBU_s_TryBlockMapEntry@@PEBU_s_FuncInfo@@H@Z 0000000140006100 f   libvcruntimed:risctrnsctrl.obj
 0001:00005190       ?ExecutionInCatch@__FrameHandler3@@SA_NPEAU_xDISPATCHER_CONTEXT@@PEBU_s_FuncInfo@@@Z 0000000140006190 f   libvcruntimed:risctrnsctrl.obj
 0001:000051e0       ?FrameUnwindToEmptyState@__FrameHandler3@@SAXPEA_KPEAU_xDISPATCHER_CONTEXT@@PEBU_s_FuncInfo@@@Z 00000001400061e0 f   libvcruntimed:risctrnsctrl.obj
 0001:00005280       ?GetEstablisherFrame@__FrameHandler3@@SAPEA_KPEA_KPEAU_xDISPATCHER_CONTEXT@@PEBU_s_FuncInfo@@0@Z 0000000140006280 f   libvcruntimed:risctrnsctrl.obj
 0001:000053f0       ?GetRangeOfTrysToCheck@__FrameHandler3@@SA?AU?$pair@Viterator@TryBlockMap@__FrameHandler3@@V123@@std@@AEAVTryBlockMap@1@HPEAU_xDISPATCHER_CONTEXT@@PEBU_s_FuncInfo@@H@Z 00000001400063f0 f   libvcruntimed:risctrnsctrl.obj
 0001:00005630       ?UnwindNestedFrames@__FrameHandler3@@SAXPEA_KPEAUEHExceptionRecord@@PEAU_CONTEXT@@0PEAXPEBU_s_FuncInfo@@HHPEBU_s_HandlerType@@PEAU_xDISPATCHER_CONTEXT@@E@Z 0000000140006630 f   libvcruntimed:risctrnsctrl.obj
 0001:000057a0       _CreateFrameInfo           00000001400067a0 f   libvcruntimed:risctrnsctrl.obj
 0001:00005810       _FindAndUnlinkFrame        0000000140006810 f   libvcruntimed:risctrnsctrl.obj
 0001:00005890       _GetImageBase              0000000140006890 f   libvcruntimed:risctrnsctrl.obj
 0001:000058b0       _GetThrowImageBase         00000001400068b0 f   libvcruntimed:risctrnsctrl.obj
 0001:000058d0       _SetImageBase              00000001400068d0 f   libvcruntimed:risctrnsctrl.obj
 0001:000058f0       _SetThrowImageBase         00000001400068f0 f   libvcruntimed:risctrnsctrl.obj
 0001:00005910       __CxxFrameHandler3         0000000140006910 f   libvcruntimed:risctrnsctrl.obj
 0001:000059f0       ?GetCurrentState@__FrameHandler3@@SAHPEA_KPEAU_xDISPATCHER_CONTEXT@@PEBU_s_FuncInfo@@@Z 00000001400069f0 f   libvcruntimed:ehstate.obj
 0001:00005a50       ?GetUnwindTryBlock@__FrameHandler3@@SAHPEA_KPEAU_xDISPATCHER_CONTEXT@@PEBU_s_FuncInfo@@@Z 0000000140006a50 f   libvcruntimed:ehstate.obj
 0001:00005aa0       ?SetState@__FrameHandler3@@SAXPEA_KPEBU_s_FuncInfo@@H@Z 0000000140006aa0 f   libvcruntimed:ehstate.obj
 0001:00005ad0       ?SetUnwindTryBlock@__FrameHandler3@@SAXPEA_KPEAU_xDISPATCHER_CONTEXT@@PEBU_s_FuncInfo@@H@Z 0000000140006ad0 f   libvcruntimed:ehstate.obj
 0001:00005b40       ?StateFromControlPc@__FrameHandler3@@SAHPEBU_s_FuncInfo@@PEAU_xDISPATCHER_CONTEXT@@@Z 0000000140006b40 f   libvcruntimed:ehstate.obj
 0001:00005b80       ?StateFromIp@__FrameHandler3@@SAHPEBU_s_FuncInfo@@PEAU_xDISPATCHER_CONTEXT@@_K@Z 0000000140006b80 f   libvcruntimed:ehstate.obj
 0001:00005c80       ?__RVAtoRealOffset@@YA_KPEAU_xDISPATCHER_CONTEXT@@H@Z 0000000140006c80 f i libvcruntimed:ehstate.obj
 0001:00006e70       ??$TypeMatchHelper@V__FrameHandler3@@@@YAHPEBU_s_HandlerType@@PEBU_s_CatchableType@@PEBU_s_ThrowInfo@@@Z 0000000140007e70 f i libvcruntimed:frame.obj
 0001:00007070       ??$__InternalCxxFrameHandler@V__FrameHandler3@@@@YA?AW4_EXCEPTION_DISPOSITION@@PEAUEHExceptionRecord@@PEA_KPEAU_CONTEXT@@PEAU_xDISPATCHER_CONTEXT@@PEBU_s_FuncInfo@@H1E@Z 0000000140008070 f i libvcruntimed:frame.obj
 0001:000074f0       ??$__InternalCxxFrameHandlerWrapper@V__FrameHandler3@@@@YA?AW4_EXCEPTION_DISPOSITION@@PEAUEHExceptionRecord@@PEA_KPEAU_CONTEXT@@PEAU_xDISPATCHER_CONTEXT@@PEBU_s_FuncInfo@@H1E@Z 00000001400084f0 f i libvcruntimed:frame.obj
 0001:00007560       ??0HandlerMap@__FrameHandler3@@QEAA@PEBU_s_TryBlockMapEntry@@_KI@Z 0000000140008560 f i libvcruntimed:frame.obj
 0001:000075b0       ??0TryBlockMap@__FrameHandler3@@QEAA@PEBU_s_FuncInfo@@_K@Z 00000001400085b0 f i libvcruntimed:frame.obj
 0001:000075e0       ??0bad_exception@std@@QEAA@AEBV01@@Z 00000001400085e0 f i libvcruntimed:frame.obj
 0001:00007620       ??0bad_exception@std@@QEAA@XZ 0000000140008620 f i libvcruntimed:frame.obj
 0001:00007660       ??0exception@std@@QEAA@AEBV01@@Z 0000000140008660 f i libvcruntimed:frame.obj
 0001:000076c0       ??0exception@std@@QEAA@QEBDH@Z 00000001400086c0 f i libvcruntimed:frame.obj
 0001:00007710       ??1bad_exception@std@@UEAA@XZ 0000000140008710 f i libvcruntimed:frame.obj
 0001:00007730       ??1exception@std@@UEAA@XZ  0000000140008730 f i libvcruntimed:frame.obj
 0001:00007760       ??8iterator@HandlerMap@__FrameHandler3@@QEBA_NAEBV012@@Z 0000000140008760 f i libvcruntimed:frame.obj
 0001:000077a0       ??8type_info@@QEBA_NAEBV0@@Z 00000001400087a0 f i libvcruntimed:frame.obj
 0001:00007820       ??9iterator@HandlerMap@__FrameHandler3@@QEBA_NAEBV012@@Z 0000000140008820 f i libvcruntimed:frame.obj
 0001:00007860       ??Diterator@HandlerMap@__FrameHandler3@@QEAA?BU_s_HandlerType@@XZ 0000000140008860 f i libvcruntimed:frame.obj
 0001:000078a0       ??Diterator@TryBlockMap@__FrameHandler3@@QEAA?BU_s_TryBlockMapEntry@@XZ 00000001400088a0 f i libvcruntimed:frame.obj
 0001:000078f0       ??Eiterator@HandlerMap@__FrameHandler3@@QEAAAEAV012@XZ 00000001400088f0 f i libvcruntimed:frame.obj
 0001:000078f0       ??Eiterator@TryBlockMap@__FrameHandler3@@QEAAAEAV012@XZ 00000001400088f0 f i libvcruntimed:frame.obj
 0001:00007910       ??Miterator@TryBlockMap@__FrameHandler3@@QEBA_NAEBV012@@Z 0000000140008910 f i libvcruntimed:frame.obj
 0001:00007950       ??_Ebad_exception@std@@UEAAPEAXI@Z 0000000140008950 f i libvcruntimed:frame.obj
 0001:00007950       ??_Gbad_exception@std@@UEAAPEAXI@Z 0000000140008950 f i libvcruntimed:frame.obj
 0001:00007990       ??_Eexception@std@@UEAAPEAXI@Z 0000000140008990 f i libvcruntimed:frame.obj
 0001:00007990       ??_Gexception@std@@UEAAPEAXI@Z 0000000140008990 f i libvcruntimed:frame.obj
 0001:000079d0       ?BuildCatchObject@__FrameHandler3@@SAXPEAUEHExceptionRecord@@PEAXPEBU_s_HandlerType@@PEBU_s_CatchableType@@@Z 00000001400089d0 f   libvcruntimed:frame.obj
 0001:00007a10       ?CxxCallCatchBlock@__FrameHandler3@@SAPEAXPEAU_EXCEPTION_RECORD@@@Z 0000000140008a10 f   libvcruntimed:frame.obj
 0001:00007d70       ?FrameUnwindToState@__FrameHandler3@@SAXPEA_KPEAU_xDISPATCHER_CONTEXT@@PEBU_s_FuncInfo@@H@Z 0000000140008d70 f   libvcruntimed:frame.obj
 0001:00007fc0       ?GetHandlerSearchState@__FrameHandler3@@SAHPEA_KPEAU_xDISPATCHER_CONTEXT@@PEBU_s_FuncInfo@@@Z 0000000140008fc0 f i libvcruntimed:frame.obj
 0001:00008070       ?GetMaxState@__FrameHandler3@@SAHPEAU_xDISPATCHER_CONTEXT@@PEBU_s_FuncInfo@@@Z 0000000140009070 f i libvcruntimed:frame.obj
 0001:00008270       ?TypeMatch@__FrameHandler3@@SAHPEBU_s_HandlerType@@PEBU_s_CatchableType@@PEBU_s_ThrowInfo@@@Z 0000000140009270 f   libvcruntimed:frame.obj
 0001:00008270       __TypeMatch                0000000140009270 f   libvcruntimed:frame.obj
 0001:000082a0       ?_CallMemberFunction1@@YAXQEAX00@Z 00000001400092a0 f i libvcruntimed:frame.obj
 0001:000082e0       ?_CallMemberFunction2@@YAXQEAX00H@Z 00000001400092e0 f i libvcruntimed:frame.obj
 0001:00008370       ?begin@HandlerMap@__FrameHandler3@@QEAA?AViterator@12@XZ 0000000140009370 f i libvcruntimed:frame.obj
 0001:000083a0       ?end@HandlerMap@__FrameHandler3@@QEAA?AViterator@12@XZ 00000001400093a0 f i libvcruntimed:frame.obj
 0001:000083d0       ?getESTypes@__FrameHandler3@@SAPEBU_s_ESTypeList@@PEBU_s_FuncInfo@@@Z 00000001400093d0 f i libvcruntimed:frame.obj
 0001:00008410       ?getLastEntry@HandlerMap@__FrameHandler3@@QEAAPEBU_s_HandlerType@@XZ 0000000140009410 f i libvcruntimed:frame.obj
 0001:00008430       ?getMagicNum@__FrameHandler3@@SAIPEBU_s_FuncInfo@@@Z 0000000140009430 f i libvcruntimed:frame.obj
 0001:00008450       ?getNumTryBlocks@TryBlockMap@__FrameHandler3@@QEAAIXZ 0000000140009450 f i libvcruntimed:frame.obj
 0001:00008470       ?isEHs@__FrameHandler3@@SA_NPEBU_s_FuncInfo@@@Z 0000000140009470 f i libvcruntimed:frame.obj
 0001:000084b0       ?isNoExcept@__FrameHandler3@@SA_NPEBU_s_FuncInfo@@@Z 00000001400094b0 f i libvcruntimed:frame.obj
 0001:000084f0       ?what@exception@std@@UEBAPEBDXZ 00000001400094f0 f i libvcruntimed:frame.obj
 0001:00008530       __vcrt_EncodePointer       0000000140009530 f i libvcruntimed:frame.obj
 0001:00008590       _CallSettingFrame          0000000140009590 f   libvcruntimed:handlers.obj
 0001:000085d0       ??$?RD@__crt_public_free_policy@@QEBAXQEBD@Z 00000001400095d0 f i libvcruntimed:std_exception.obj
 0001:000085f0       ??1?$__crt_unique_heap_ptr@DU__crt_public_free_policy@@@@QEAA@XZ 00000001400095f0 f i libvcruntimed:std_exception.obj
 0001:00008610       ?release@?$__crt_unique_heap_ptr@DU__crt_public_free_policy@@@@QEAAXXZ 0000000140009610 f i libvcruntimed:std_exception.obj
 0001:00008640       __std_exception_copy       0000000140009640 f   libvcruntimed:std_exception.obj
 0001:00008780       __std_exception_destroy    0000000140009780 f   libvcruntimed:std_exception.obj
 0001:000087c0       _CxxThrowException         00000001400097c0 f   libvcruntimed:throw.obj
 0001:00008900       ??$?0AEBV?$string_output_adapter@D@__crt_stdio_output@@AEB_KAEBQEBDAEAV__crt_cached_ptd_host@@AEBQEAD@?$format_validation_base@DV?$string_output_adapter@D@__crt_stdio_output@@@__crt_stdio_output@@IEAA@AEBV?$string_output_adapter@D@1@AEB_KAEBQEBDAEAV__crt_cached_ptd_host@@AEBQEAD@Z 0000000140009900 f i libucrtd:output.obj
 0001:00008950       ??$?0AEBV?$string_output_adapter@D@__crt_stdio_output@@AEB_KAEBQEBDAEAV__crt_cached_ptd_host@@AEBQEAD@?$standard_base@DV?$string_output_adapter@D@__crt_stdio_output@@@__crt_stdio_output@@IEAA@AEBV?$string_output_adapter@D@1@AEB_KAEBQEBDAEAV__crt_cached_ptd_host@@AEBQEAD@Z 0000000140009950 f i libucrtd:output.obj
 0001:000089c0       ??$?0AEBV?$string_output_adapter@_W@__crt_stdio_output@@AEB_KAEBQEB_WAEAV__crt_cached_ptd_host@@AEBQEAD@?$format_validation_base@_WV?$string_output_adapter@_W@__crt_stdio_output@@@__crt_stdio_output@@IEAA@AEBV?$string_output_adapter@_W@1@AEB_KAEBQEB_WAEAV__crt_cached_ptd_host@@AEBQEAD@Z 00000001400099c0 f i libucrtd:output.obj
 0001:00008a10       ??$?0AEBV?$string_output_adapter@_W@__crt_stdio_output@@AEB_KAEBQEB_WAEAV__crt_cached_ptd_host@@AEBQEAD@?$standard_base@_WV?$string_output_adapter@_W@__crt_stdio_output@@@__crt_stdio_output@@IEAA@AEBV?$string_output_adapter@_W@1@AEB_KAEBQEB_WAEAV__crt_cached_ptd_host@@AEBQEAD@Z 0000000140009a10 f i libucrtd:output.obj
 0001:00008a80       ??$__crt_interlocked_read@J@@YAJPEDJ@Z 0000000140009a80 f i libucrtd:output.obj
 0001:00008aa0       ??$_tcstol_internal@DPEAPEAD$0A@@@YAJAEAV__crt_cached_ptd_host@@QEBDQEAPEADH@Z 0000000140009aa0 f i libucrtd:output.obj
 0001:00008af0       ??$_tcstol_internal@_WPEAPEA_W$0A@@@YAJAEAV__crt_cached_ptd_host@@QEB_WQEAPEA_WH@Z 0000000140009af0 f i libucrtd:output.obj
 0001:0000ab80       ??$count@D@formatting_buffer@__crt_stdio_output@@QEBA_KXZ 000000014000bb80 f i libucrtd:output.obj
 0001:0000abd0       ??$count@_W@formatting_buffer@__crt_stdio_output@@QEBA_KXZ 000000014000bbd0 f i libucrtd:output.obj
 0001:0000ac20       ??$data@D@formatting_buffer@__crt_stdio_output@@QEAAPEADXZ 000000014000bc20 f i libucrtd:output.obj
 0001:0000ac20       ??$data@_W@formatting_buffer@__crt_stdio_output@@QEAAPEA_WXZ 000000014000bc20 f i libucrtd:output.obj
 0001:0000ac70       ??$ensure_buffer_is_big_enough@D@formatting_buffer@__crt_stdio_output@@QEAA_N_KAEAV__crt_cached_ptd_host@@@Z 000000014000bc70 f i libucrtd:output.obj
 0001:0000adb0       ??$ensure_buffer_is_big_enough@_W@formatting_buffer@__crt_stdio_output@@QEAA_N_KAEAV__crt_cached_ptd_host@@@Z 000000014000bdb0 f i libucrtd:output.obj
 0001:0000aef0       ??$extract_argument_from_va_list@C_J@?$standard_base@DV?$string_output_adapter@D@__crt_stdio_output@@@__crt_stdio_output@@IEAA_NAEA_J@Z 000000014000bef0 f i libucrtd:output.obj
 0001:0000aef0       ??$extract_argument_from_va_list@C_J@?$standard_base@_WV?$string_output_adapter@_W@__crt_stdio_output@@@__crt_stdio_output@@IEAA_NAEA_J@Z 000000014000bef0 f i libucrtd:output.obj
 0001:0000af30       ??$extract_argument_from_va_list@E_J@?$standard_base@DV?$string_output_adapter@D@__crt_stdio_output@@@__crt_stdio_output@@IEAA_NAEA_J@Z 000000014000bf30 f i libucrtd:output.obj
 0001:0000af30       ??$extract_argument_from_va_list@E_J@?$standard_base@_WV?$string_output_adapter@_W@__crt_stdio_output@@@__crt_stdio_output@@IEAA_NAEA_J@Z 000000014000bf30 f i libucrtd:output.obj
 0001:0000af70       ??$extract_argument_from_va_list@F_J@?$standard_base@DV?$string_output_adapter@D@__crt_stdio_output@@@__crt_stdio_output@@IEAA_NAEA_J@Z 000000014000bf70 f i libucrtd:output.obj
 0001:0000af70       ??$extract_argument_from_va_list@F_J@?$standard_base@_WV?$string_output_adapter@_W@__crt_stdio_output@@@__crt_stdio_output@@IEAA_NAEA_J@Z 000000014000bf70 f i libucrtd:output.obj
 0001:0000afb0       ??$extract_argument_from_va_list@GD@?$standard_base@DV?$string_output_adapter@D@__crt_stdio_output@@@__crt_stdio_output@@IEAA_NAEAD@Z 000000014000bfb0 f i libucrtd:output.obj
 0001:0000afe0       ??$extract_argument_from_va_list@G_J@?$standard_base@DV?$string_output_adapter@D@__crt_stdio_output@@@__crt_stdio_output@@IEAA_NAEA_J@Z 000000014000bfe0 f i libucrtd:output.obj
 0001:0000afe0       ??$extract_argument_from_va_list@G_J@?$standard_base@_WV?$string_output_adapter@_W@__crt_stdio_output@@@__crt_stdio_output@@IEAA_NAEA_J@Z 000000014000bfe0 f i libucrtd:output.obj
 0001:0000b020       ??$extract_argument_from_va_list@H_J@?$standard_base@DV?$string_output_adapter@D@__crt_stdio_output@@@__crt_stdio_output@@IEAA_NAEA_J@Z 000000014000c020 f i libucrtd:output.obj
 0001:0000b020       ??$extract_argument_from_va_list@H_J@?$standard_base@_WV?$string_output_adapter@_W@__crt_stdio_output@@@__crt_stdio_output@@IEAA_NAEA_J@Z 000000014000c020 f i libucrtd:output.obj
 0001:0000b050       ??$extract_argument_from_va_list@I_J@?$standard_base@DV?$string_output_adapter@D@__crt_stdio_output@@@__crt_stdio_output@@IEAA_NAEA_J@Z 000000014000c050 f i libucrtd:output.obj
 0001:0000b050       ??$extract_argument_from_va_list@I_J@?$standard_base@_WV?$string_output_adapter@_W@__crt_stdio_output@@@__crt_stdio_output@@IEAA_NAEA_J@Z 000000014000c050 f i libucrtd:output.obj
 0001:0000b080       ??$extract_argument_from_va_list@PEADPEAD@?$standard_base@DV?$string_output_adapter@D@__crt_stdio_output@@@__crt_stdio_output@@IEAA_NAEAPEAD@Z 000000014000c080 f i libucrtd:output.obj
 0001:0000b080       ??$extract_argument_from_va_list@PEADPEAD@?$standard_base@_WV?$string_output_adapter@_W@__crt_stdio_output@@@__crt_stdio_output@@IEAA_NAEAPEAD@Z 000000014000c080 f i libucrtd:output.obj
 0001:0000b080       ??$extract_argument_from_va_list@PEAUansi_string@?1??type_case_Z@?$output_processor@DV?$string_output_adapter@D@__crt_stdio_output@@V?$format_validation_base@DV?$string_output_adapter@D@__crt_stdio_output@@@2@@__crt_stdio_output@@AEAA_NXZ@PEAU1?1??234@AEAA_NXZ@@?$standard_base@DV?$string_output_adapter@D@__crt_stdio_output@@@__crt_stdio_output@@IEAA_NAEAPEAUansi_string@?1??type_case_Z@?$output_processor@DV?$string_output_adapter@D@__crt_stdio_output@@V?$format_validation_base@DV?$string_output_adapter@D@__crt_stdio_output@@@2@@1@AEAA_NXZ@@Z 000000014000c080 f i libucrtd:output.obj
 0001:0000b080       ??$extract_argument_from_va_list@PEAUansi_string@?1??type_case_Z@?$output_processor@DV?$string_output_adapter@D@__crt_stdio_output@@V?$standard_base@DV?$string_output_adapter@D@__crt_stdio_output@@@2@@__crt_stdio_output@@AEAA_NXZ@PEAU1?1??234@AEAA_NXZ@@?$standard_base@DV?$string_output_adapter@D@__crt_stdio_output@@@__crt_stdio_output@@IEAA_NAEAPEAUansi_string@?1??type_case_Z@?$output_processor@DV?$string_output_adapter@D@__crt_stdio_output@@V?$standard_base@DV?$string_output_adapter@D@__crt_stdio_output@@@2@@1@AEAA_NXZ@@Z 000000014000c080 f i libucrtd:output.obj
 0001:0000b080       ??$extract_argument_from_va_list@PEAUansi_string@?1??type_case_Z@?$output_processor@_WV?$string_output_adapter@_W@__crt_stdio_output@@V?$format_validation_base@_WV?$string_output_adapter@_W@__crt_stdio_output@@@2@@__crt_stdio_output@@AEAA_NXZ@PEAU1?1??234@AEAA_NXZ@@?$standard_base@_WV?$string_output_adapter@_W@__crt_stdio_output@@@__crt_stdio_output@@IEAA_NAEAPEAUansi_string@?1??type_case_Z@?$output_processor@_WV?$string_output_adapter@_W@__crt_stdio_output@@V?$format_validation_base@_WV?$string_output_adapter@_W@__crt_stdio_output@@@2@@1@AEAA_NXZ@@Z 000000014000c080 f i libucrtd:output.obj
 0001:0000b080       ??$extract_argument_from_va_list@PEAXPEAX@?$standard_base@DV?$string_output_adapter@D@__crt_stdio_output@@@__crt_stdio_output@@IEAA_NAEAPEAX@Z 000000014000c080 f i libucrtd:output.obj
 0001:0000b080       ??$extract_argument_from_va_list@PEAXPEAX@?$standard_base@_WV?$string_output_adapter@_W@__crt_stdio_output@@@__crt_stdio_output@@IEAA_NAEAPEAX@Z 000000014000c080 f i libucrtd:output.obj
 0001:0000b080       ??$extract_argument_from_va_list@_J_J@?$standard_base@DV?$string_output_adapter@D@__crt_stdio_output@@@__crt_stdio_output@@IEAA_NAEA_J@Z 000000014000c080 f i libucrtd:output.obj
 0001:0000b080       ??$extract_argument_from_va_list@_J_J@?$standard_base@_WV?$string_output_adapter@_W@__crt_stdio_output@@@__crt_stdio_output@@IEAA_NAEA_J@Z 000000014000c080 f i libucrtd:output.obj
 0001:0000b080       ??$extract_argument_from_va_list@_K_J@?$standard_base@DV?$string_output_adapter@D@__crt_stdio_output@@@__crt_stdio_output@@IEAA_NAEA_J@Z 000000014000c080 f i libucrtd:output.obj
 0001:0000b080       ??$extract_argument_from_va_list@_K_J@?$standard_base@_WV?$string_output_adapter@_W@__crt_stdio_output@@@__crt_stdio_output@@IEAA_NAEA_J@Z 000000014000c080 f i libucrtd:output.obj
 0001:0000b0b0       ??$extract_argument_from_va_list@U_CRT_DOUBLE@@U1@@?$standard_base@DV?$string_output_adapter@D@__crt_stdio_output@@@__crt_stdio_output@@IEAA_NAEAU_CRT_DOUBLE@@@Z 000000014000c0b0 f i libucrtd:output.obj
 0001:0000b0b0       ??$extract_argument_from_va_list@U_CRT_DOUBLE@@U1@@?$standard_base@_WV?$string_output_adapter@_W@__crt_stdio_output@@@__crt_stdio_output@@IEAA_NAEAU_CRT_DOUBLE@@@Z 000000014000c0b0 f i libucrtd:output.obj
 0001:0000b100       ??$extract_argument_from_va_list@_W_W@?$standard_base@DV?$string_output_adapter@D@__crt_stdio_output@@@__crt_stdio_output@@IEAA_NAEA_W@Z 000000014000c100 f i libucrtd:output.obj
 0001:0000b100       ??$extract_argument_from_va_list@_W_W@?$standard_base@_WV?$string_output_adapter@_W@__crt_stdio_output@@@__crt_stdio_output@@IEAA_NAEA_W@Z 000000014000c100 f i libucrtd:output.obj
 0001:0000b130       ??$is_overflow_condition@K@__crt_strtox@@YA_NIK@Z 000000014000c130 f i libucrtd:output.obj
 0001:0000b1a0       ??$is_wide_character_specifier@D@__crt_stdio_output@@YA_N_KDW4length_modifier@0@@Z 000000014000c1a0 f i libucrtd:output.obj
 0001:0000b240       ??$is_wide_character_specifier@_W@__crt_stdio_output@@YA_N_K_WW4length_modifier@0@@Z 000000014000c240 f i libucrtd:output.obj
 0001:0000b310       ??$make_c_string_character_source@DPEAPEAD@__crt_strtox@@YA?AV?$c_string_character_source@D@0@QEBDQEAPEAD@Z 000000014000c310 f i libucrtd:output.obj
 0001:0000b310       ??$make_c_string_character_source@_WPEAPEA_W@__crt_strtox@@YA?AV?$c_string_character_source@_W@0@QEB_WQEAPEA_W@Z 000000014000c310 f i libucrtd:output.obj
 0001:0000b350       ??$parse_integer@KV?$c_string_character_source@D@__crt_strtox@@$0A@@__crt_strtox@@YAKAEAV__crt_cached_ptd_host@@V?$c_string_character_source@D@0@H_N@Z 000000014000c350 f i libucrtd:output.obj
 0001:0000b7d0       ??$parse_integer@KV?$c_string_character_source@_W@__crt_strtox@@$0A@@__crt_strtox@@YAKAEAV__crt_cached_ptd_host@@V?$c_string_character_source@_W@0@H_N@Z 000000014000c7d0 f i libucrtd:output.obj
 0001:0000bc50       ??$read_va_arg@C@__crt_stdio_output@@YACAEAPEAD@Z 000000014000cc50 f i libucrtd:output.obj
 0001:0000bc50       ??$read_va_arg@E@__crt_stdio_output@@YAEAEAPEAD@Z 000000014000cc50 f i libucrtd:output.obj
 0001:0000bcc0       ??$read_va_arg@F@__crt_stdio_output@@YAFAEAPEAD@Z 000000014000ccc0 f i libucrtd:output.obj
 0001:0000bcc0       ??$read_va_arg@G@__crt_stdio_output@@YAGAEAPEAD@Z 000000014000ccc0 f i libucrtd:output.obj
 0001:0000bcc0       ??$read_va_arg@_W@__crt_stdio_output@@YA_WAEAPEAD@Z 000000014000ccc0 f i libucrtd:output.obj
 0001:0000bd30       ??$read_va_arg@H@__crt_stdio_output@@YAHAEAPEAD@Z 000000014000cd30 f i libucrtd:output.obj
 0001:0000bd30       ??$read_va_arg@I@__crt_stdio_output@@YAIAEAPEAD@Z 000000014000cd30 f i libucrtd:output.obj
 0001:0000bd90       ??$read_va_arg@PEAD@__crt_stdio_output@@YAPEADAEAPEAD@Z 000000014000cd90 f i libucrtd:output.obj
 0001:0000bd90       ??$read_va_arg@PEAUansi_string@?1??type_case_Z@?$output_processor@DV?$string_output_adapter@D@__crt_stdio_output@@V?$format_validation_base@DV?$string_output_adapter@D@__crt_stdio_output@@@2@@__crt_stdio_output@@AEAA_NXZ@@__crt_stdio_output@@YAPEAUansi_string@?1??type_case_Z@?$output_processor@DV?$string_output_adapter@D@__crt_stdio_output@@V?$format_validation_base@DV?$string_output_adapter@D@__crt_stdio_output@@@2@@0@AEAA_NXZ@AEAPEAD@Z 000000014000cd90 f i libucrtd:output.obj
 0001:0000bd90       ??$read_va_arg@PEAUansi_string@?1??type_case_Z@?$output_processor@DV?$string_output_adapter@D@__crt_stdio_output@@V?$standard_base@DV?$string_output_adapter@D@__crt_stdio_output@@@2@@__crt_stdio_output@@AEAA_NXZ@@__crt_stdio_output@@YAPEAUansi_string@?1??type_case_Z@?$output_processor@DV?$string_output_adapter@D@__crt_stdio_output@@V?$standard_base@DV?$string_output_adapter@D@__crt_stdio_output@@@2@@0@AEAA_NXZ@AEAPEAD@Z 000000014000cd90 f i libucrtd:output.obj
 0001:0000bd90       ??$read_va_arg@PEAUansi_string@?1??type_case_Z@?$output_processor@_WV?$string_output_adapter@_W@__crt_stdio_output@@V?$format_validation_base@_WV?$string_output_adapter@_W@__crt_stdio_output@@@2@@__crt_stdio_output@@AEAA_NXZ@@__crt_stdio_output@@YAPEAUansi_string@?1??type_case_Z@?$output_processor@_WV?$string_output_adapter@_W@__crt_stdio_output@@V?$format_validation_base@_WV?$string_output_adapter@_W@__crt_stdio_output@@@2@@0@AEAA_NXZ@AEAPEAD@Z 000000014000cd90 f i libucrtd:output.obj
 0001:0000bd90       ??$read_va_arg@PEAX@__crt_stdio_output@@YAPEAXAEAPEAD@Z 000000014000cd90 f i libucrtd:output.obj
 0001:0000bd90       ??$read_va_arg@U_CRT_DOUBLE@@@__crt_stdio_output@@YA?AU_CRT_DOUBLE@@AEAPEAD@Z 000000014000cd90 f i libucrtd:output.obj
 0001:0000bd90       ??$read_va_arg@_J@__crt_stdio_output@@YA_JAEAPEAD@Z 000000014000cd90 f i libucrtd:output.obj
 0001:0000bd90       ??$read_va_arg@_K@__crt_stdio_output@@YA_KAEAPEAD@Z 000000014000cd90 f i libucrtd:output.obj
 0001:0000be00       ??$scratch_count@D@formatting_buffer@__crt_stdio_output@@QEBA_KXZ 000000014000ce00 f i libucrtd:output.obj
 0001:0000be20       ??$scratch_data@D@formatting_buffer@__crt_stdio_output@@QEAAPEADXZ 000000014000ce20 f i libucrtd:output.obj
 0001:0000be90       ??$type_case_integer@$07@?$output_processor@DV?$string_output_adapter@D@__crt_stdio_output@@V?$format_validation_base@DV?$string_output_adapter@D@__crt_stdio_output@@@2@@__crt_stdio_output@@AEAA_N_N@Z 000000014000ce90 f i libucrtd:output.obj
 0001:0000c310       ??$type_case_integer@$07@?$output_processor@DV?$string_output_adapter@D@__crt_stdio_output@@V?$standard_base@DV?$string_output_adapter@D@__crt_stdio_output@@@2@@__crt_stdio_output@@AEAA_N_N@Z 000000014000d310 f i libucrtd:output.obj
 0001:0000c790       ??$type_case_integer@$07@?$output_processor@_WV?$string_output_adapter@_W@__crt_stdio_output@@V?$format_validation_base@_WV?$string_output_adapter@_W@__crt_stdio_output@@@2@@__crt_stdio_output@@AEAA_N_N@Z 000000014000d790 f i libucrtd:output.obj
 0001:0000cc10       ??$type_case_integer@$09@?$output_processor@DV?$string_output_adapter@D@__crt_stdio_output@@V?$format_validation_base@DV?$string_output_adapter@D@__crt_stdio_output@@@2@@__crt_stdio_output@@AEAA_N_N@Z 000000014000dc10 f i libucrtd:output.obj
 0001:0000d090       ??$type_case_integer@$09@?$output_processor@DV?$string_output_adapter@D@__crt_stdio_output@@V?$standard_base@DV?$string_output_adapter@D@__crt_stdio_output@@@2@@__crt_stdio_output@@AEAA_N_N@Z 000000014000e090 f i libucrtd:output.obj
 0001:0000d510       ??$type_case_integer@$09@?$output_processor@_WV?$string_output_adapter@_W@__crt_stdio_output@@V?$format_validation_base@_WV?$string_output_adapter@_W@__crt_stdio_output@@@2@@__crt_stdio_output@@AEAA_N_N@Z 000000014000e510 f i libucrtd:output.obj
 0001:0000d990       ??$type_case_integer@$0BA@@?$output_processor@DV?$string_output_adapter@D@__crt_stdio_output@@V?$format_validation_base@DV?$string_output_adapter@D@__crt_stdio_output@@@2@@__crt_stdio_output@@AEAA_N_N@Z 000000014000e990 f i libucrtd:output.obj
 0001:0000de10       ??$type_case_integer@$0BA@@?$output_processor@DV?$string_output_adapter@D@__crt_stdio_output@@V?$standard_base@DV?$string_output_adapter@D@__crt_stdio_output@@@2@@__crt_stdio_output@@AEAA_N_N@Z 000000014000ee10 f i libucrtd:output.obj
 0001:0000e290       ??$type_case_integer@$0BA@@?$output_processor@_WV?$string_output_adapter@_W@__crt_stdio_output@@V?$format_validation_base@_WV?$string_output_adapter@_W@__crt_stdio_output@@@2@@__crt_stdio_output@@AEAA_N_N@Z 000000014000f290 f i libucrtd:output.obj
 0001:0000e710       ??$type_case_integer_parse_into_buffer@I$07@?$output_processor@DV?$string_output_adapter@D@__crt_stdio_output@@V?$format_validation_base@DV?$string_output_adapter@D@__crt_stdio_output@@@2@@__crt_stdio_output@@AEAAXI_N@Z 000000014000f710 f i libucrtd:output.obj
 0001:0000e710       ??$type_case_integer_parse_into_buffer@I$07@?$output_processor@DV?$string_output_adapter@D@__crt_stdio_output@@V?$standard_base@DV?$string_output_adapter@D@__crt_stdio_output@@@2@@__crt_stdio_output@@AEAAXI_N@Z 000000014000f710 f i libucrtd:output.obj
 0001:0000e840       ??$type_case_integer_parse_into_buffer@I$07@?$output_processor@_WV?$string_output_adapter@_W@__crt_stdio_output@@V?$format_validation_base@_WV?$string_output_adapter@_W@__crt_stdio_output@@@2@@__crt_stdio_output@@AEAAXI_N@Z 000000014000f840 f i libucrtd:output.obj
 0001:0000e980       ??$type_case_integer_parse_into_buffer@I$09@?$output_processor@DV?$string_output_adapter@D@__crt_stdio_output@@V?$format_validation_base@DV?$string_output_adapter@D@__crt_stdio_output@@@2@@__crt_stdio_output@@AEAAXI_N@Z 000000014000f980 f i libucrtd:output.obj
 0001:0000e980       ??$type_case_integer_parse_into_buffer@I$09@?$output_processor@DV?$string_output_adapter@D@__crt_stdio_output@@V?$standard_base@DV?$string_output_adapter@D@__crt_stdio_output@@@2@@__crt_stdio_output@@AEAAXI_N@Z 000000014000f980 f i libucrtd:output.obj
 0001:0000eab0       ??$type_case_integer_parse_into_buffer@I$09@?$output_processor@_WV?$string_output_adapter@_W@__crt_stdio_output@@V?$format_validation_base@_WV?$string_output_adapter@_W@__crt_stdio_output@@@2@@__crt_stdio_output@@AEAAXI_N@Z 000000014000fab0 f i libucrtd:output.obj
 0001:0000ebf0       ??$type_case_integer_parse_into_buffer@I$0BA@@?$output_processor@DV?$string_output_adapter@D@__crt_stdio_output@@V?$format_validation_base@DV?$string_output_adapter@D@__crt_stdio_output@@@2@@__crt_stdio_output@@AEAAXI_N@Z 000000014000fbf0 f i libucrtd:output.obj
 0001:0000ebf0       ??$type_case_integer_parse_into_buffer@I$0BA@@?$output_processor@DV?$string_output_adapter@D@__crt_stdio_output@@V?$standard_base@DV?$string_output_adapter@D@__crt_stdio_output@@@2@@__crt_stdio_output@@AEAAXI_N@Z 000000014000fbf0 f i libucrtd:output.obj
 0001:0000ed20       ??$type_case_integer_parse_into_buffer@I$0BA@@?$output_processor@_WV?$string_output_adapter@_W@__crt_stdio_output@@V?$format_validation_base@_WV?$string_output_adapter@_W@__crt_stdio_output@@@2@@__crt_stdio_output@@AEAAXI_N@Z 000000014000fd20 f i libucrtd:output.obj
 0001:0000ee60       ??$type_case_integer_parse_into_buffer@_K$07@?$output_processor@DV?$string_output_adapter@D@__crt_stdio_output@@V?$format_validation_base@DV?$string_output_adapter@D@__crt_stdio_output@@@2@@__crt_stdio_output@@AEAAX_K_N@Z 000000014000fe60 f i libucrtd:output.obj
 0001:0000ee60       ??$type_case_integer_parse_into_buffer@_K$07@?$output_processor@DV?$string_output_adapter@D@__crt_stdio_output@@V?$standard_base@DV?$string_output_adapter@D@__crt_stdio_output@@@2@@__crt_stdio_output@@AEAAX_K_N@Z 000000014000fe60 f i libucrtd:output.obj
 0001:0000efa0       ??$type_case_integer_parse_into_buffer@_K$07@?$output_processor@_WV?$string_output_adapter@_W@__crt_stdio_output@@V?$format_validation_base@_WV?$string_output_adapter@_W@__crt_stdio_output@@@2@@__crt_stdio_output@@AEAAX_K_N@Z 000000014000ffa0 f i libucrtd:output.obj
 0001:0000f0e0       ??$type_case_integer_parse_into_buffer@_K$09@?$output_processor@DV?$string_output_adapter@D@__crt_stdio_output@@V?$format_validation_base@DV?$string_output_adapter@D@__crt_stdio_output@@@2@@__crt_stdio_output@@AEAAX_K_N@Z 00000001400100e0 f i libucrtd:output.obj
 0001:0000f0e0       ??$type_case_integer_parse_into_buffer@_K$09@?$output_processor@DV?$string_output_adapter@D@__crt_stdio_output@@V?$standard_base@DV?$string_output_adapter@D@__crt_stdio_output@@@2@@__crt_stdio_output@@AEAAX_K_N@Z 00000001400100e0 f i libucrtd:output.obj
 0001:0000f220       ??$type_case_integer_parse_into_buffer@_K$09@?$output_processor@_WV?$string_output_adapter@_W@__crt_stdio_output@@V?$format_validation_base@_WV?$string_output_adapter@_W@__crt_stdio_output@@@2@@__crt_stdio_output@@AEAAX_K_N@Z 0000000140010220 f i libucrtd:output.obj
 0001:0000f360       ??$type_case_integer_parse_into_buffer@_K$0BA@@?$output_processor@DV?$string_output_adapter@D@__crt_stdio_output@@V?$format_validation_base@DV?$string_output_adapter@D@__crt_stdio_output@@@2@@__crt_stdio_output@@AEAAX_K_N@Z 0000000140010360 f i libucrtd:output.obj
 0001:0000f360       ??$type_case_integer_parse_into_buffer@_K$0BA@@?$output_processor@DV?$string_output_adapter@D@__crt_stdio_output@@V?$standard_base@DV?$string_output_adapter@D@__crt_stdio_output@@@2@@__crt_stdio_output@@AEAAX_K_N@Z 0000000140010360 f i libucrtd:output.obj
 0001:0000f4a0       ??$type_case_integer_parse_into_buffer@_K$0BA@@?$output_processor@_WV?$string_output_adapter@_W@__crt_stdio_output@@V?$format_validation_base@_WV?$string_output_adapter@_W@__crt_stdio_output@@@2@@__crt_stdio_output@@AEAAX_K_N@Z 00000001400104a0 f i libucrtd:output.obj
 0001:0000f5e0       ??$write_multiple_characters@V?$string_output_adapter@D@__crt_stdio_output@@D@__crt_stdio_output@@YAXAEBV?$string_output_adapter@D@0@DHQEAHAEAV__crt_cached_ptd_host@@@Z 00000001400105e0 f i libucrtd:output.obj
 0001:0000f650       ??$write_multiple_characters@V?$string_output_adapter@_W@__crt_stdio_output@@D@__crt_stdio_output@@YAXAEBV?$string_output_adapter@_W@0@DHQEAHAEAV__crt_cached_ptd_host@@@Z 0000000140010650 f i libucrtd:output.obj
 0001:0000f6c0       ??0?$c_string_character_source@D@__crt_strtox@@QEAA@QEBDQEAPEBD@Z 00000001400106c0 f i libucrtd:output.obj
 0001:0000f6c0       ??0?$c_string_character_source@_W@__crt_strtox@@QEAA@QEB_WQEAPEB_W@Z 00000001400106c0 f i libucrtd:output.obj
 0001:0000f710       ??0?$cached@H@__crt_cached_ptd_host@@QEAA@XZ 0000000140010710 f i libucrtd:output.obj
 0001:0000f710       ??0?$cached@K@__crt_cached_ptd_host@@QEAA@XZ 0000000140010710 f i libucrtd:output.obj
 0001:0000f730       ??0?$common_data@D@__crt_stdio_output@@IEAA@AEAV__crt_cached_ptd_host@@@Z 0000000140010730 f i libucrtd:output.obj
 0001:0000f7f0       ??0?$common_data@_W@__crt_stdio_output@@IEAA@AEAV__crt_cached_ptd_host@@@Z 00000001400107f0 f i libucrtd:output.obj
 0001:0000f8b0       ??0?$output_adapter_data@DV?$string_output_adapter@D@__crt_stdio_output@@@__crt_stdio_output@@IEAA@AEBV?$string_output_adapter@D@1@_KQEBDAEAV__crt_cached_ptd_host@@QEAD@Z 00000001400108b0 f i libucrtd:output.obj
 0001:0000f930       ??0?$output_adapter_data@_WV?$string_output_adapter@_W@__crt_stdio_output@@@__crt_stdio_output@@IEAA@AEBV?$string_output_adapter@_W@1@_KQEB_WAEAV__crt_cached_ptd_host@@QEAD@Z 0000000140010930 f i libucrtd:output.obj
 0001:0000f9b0       ??0?$output_processor@DV?$string_output_adapter@D@__crt_stdio_output@@V?$format_validation_base@DV?$string_output_adapter@D@__crt_stdio_output@@@2@@__crt_stdio_output@@QEAA@AEBV?$string_output_adapter@D@1@_KQEBDAEAV__crt_cached_ptd_host@@QEAD@Z 00000001400109b0 f i libucrtd:output.obj
 0001:0000fa00       ??0?$output_processor@DV?$string_output_adapter@D@__crt_stdio_output@@V?$standard_base@DV?$string_output_adapter@D@__crt_stdio_output@@@2@@__crt_stdio_output@@QEAA@AEBV?$string_output_adapter@D@1@_KQEBDAEAV__crt_cached_ptd_host@@QEAD@Z 0000000140010a00 f i libucrtd:output.obj
 0001:0000fa50       ??0?$output_processor@_WV?$string_output_adapter@_W@__crt_stdio_output@@V?$format_validation_base@_WV?$string_output_adapter@_W@__crt_stdio_output@@@2@@__crt_stdio_output@@QEAA@AEBV?$string_output_adapter@_W@1@_KQEB_WAEAV__crt_cached_ptd_host@@QEAD@Z 0000000140010a50 f i libucrtd:output.obj
 0001:0000faa0       ??0__crt_cached_ptd_host@@QEAA@QEAU__crt_locale_pointers@@@Z 0000000140010aa0 f i libucrtd:output.obj
 0001:0000fb60       ??0__crt_scoped_get_last_error_reset@@QEAA@XZ 0000000140010b60 f i libucrtd:output.obj
 0001:0000fb80       ??0formatting_buffer@__crt_stdio_output@@QEAA@XZ 0000000140010b80 f i libucrtd:output.obj
 0001:0000fbc0       ??0guard@?$cached@H@__crt_cached_ptd_host@@QEAA@AEAU12@@Z 0000000140010bc0 f i libucrtd:output.obj
 0001:0000fc00       ??1?$c_string_character_source@D@__crt_strtox@@QEAA@XZ 0000000140010c00 f i libucrtd:output.obj
 0001:0000fc00       ??1?$c_string_character_source@_W@__crt_strtox@@QEAA@XZ 0000000140010c00 f i libucrtd:output.obj
 0001:0000fc30       ??1?$common_data@D@__crt_stdio_output@@QEAA@XZ 0000000140010c30 f i libucrtd:output.obj
 0001:0000fc30       ??1?$common_data@_W@__crt_stdio_output@@QEAA@XZ 0000000140010c30 f i libucrtd:output.obj
 0001:0000fc50       ??1?$format_validation_base@DV?$string_output_adapter@D@__crt_stdio_output@@@__crt_stdio_output@@QEAA@XZ 0000000140010c50 f i libucrtd:output.obj
 0001:0000fc50       ??1?$format_validation_base@_WV?$string_output_adapter@_W@__crt_stdio_output@@@__crt_stdio_output@@QEAA@XZ 0000000140010c50 f i libucrtd:output.obj
 0001:0000fc50       ??1?$output_processor@DV?$string_output_adapter@D@__crt_stdio_output@@V?$standard_base@DV?$string_output_adapter@D@__crt_stdio_output@@@2@@__crt_stdio_output@@QEAA@XZ 0000000140010c50 f i libucrtd:output.obj
 0001:0000fc70       ??1?$output_adapter_data@DV?$string_output_adapter@D@__crt_stdio_output@@@__crt_stdio_output@@QEAA@XZ 0000000140010c70 f i libucrtd:output.obj
 0001:0000fc70       ??1?$output_adapter_data@_WV?$string_output_adapter@_W@__crt_stdio_output@@@__crt_stdio_output@@QEAA@XZ 0000000140010c70 f i libucrtd:output.obj
 0001:0000fc90       ??1?$output_processor@DV?$string_output_adapter@D@__crt_stdio_output@@V?$format_validation_base@DV?$string_output_adapter@D@__crt_stdio_output@@@2@@__crt_stdio_output@@QEAA@XZ 0000000140010c90 f i libucrtd:output.obj
 0001:0000fc90       ??1?$output_processor@_WV?$string_output_adapter@_W@__crt_stdio_output@@V?$format_validation_base@_WV?$string_output_adapter@_W@__crt_stdio_output@@@2@@__crt_stdio_output@@QEAA@XZ 0000000140010c90 f i libucrtd:output.obj
 0001:0000fcb0       ??1?$standard_base@DV?$string_output_adapter@D@__crt_stdio_output@@@__crt_stdio_output@@QEAA@XZ 0000000140010cb0 f i libucrtd:output.obj
 0001:0000fcb0       ??1?$standard_base@_WV?$string_output_adapter@_W@__crt_stdio_output@@@__crt_stdio_output@@QEAA@XZ 0000000140010cb0 f i libucrtd:output.obj
 0001:0000fcd0       ??1__crt_cached_ptd_host@@QEAA@XZ 0000000140010cd0 f i libucrtd:output.obj
 0001:0000fd80       ??1__crt_scoped_get_last_error_reset@@QEAA@XZ 0000000140010d80 f i libucrtd:output.obj
 0001:0000fda0       ??1formatting_buffer@__crt_stdio_output@@QEAA@XZ 0000000140010da0 f i libucrtd:output.obj
 0001:0000fdd0       ??1guard@?$cached@H@__crt_cached_ptd_host@@QEAA@XZ 0000000140010dd0 f i libucrtd:output.obj
 0001:0000fe00       ??4?$__crt_unique_heap_ptr@DU__crt_internal_free_policy@@@@QEAAAEAV0@$$QEAV0@@Z 0000000140010e00 f i libucrtd:output.obj
 0001:0000fe40       ??A?$spectre_mitigated_lookup_table@Ustate_transition_pair@__crt_stdio_output@@$0IA@@__crt_stdio_output@@QEBAAEBUstate_transition_pair@1@_K@Z 0000000140010e40 f i libucrtd:output.obj
 0001:0000fe60       ?__crt_interlocked_read_32@@YAHPEDH@Z 0000000140010e60 f i libucrtd:output.obj
 0001:0000fe80       ?adjust_hexit@?$output_processor@DV?$string_output_adapter@D@__crt_stdio_output@@V?$format_validation_base@DV?$string_output_adapter@D@__crt_stdio_output@@@2@@__crt_stdio_output@@CADH_N@Z 0000000140010e80 f i libucrtd:output.obj
 0001:0000fe80       ?adjust_hexit@?$output_processor@DV?$string_output_adapter@D@__crt_stdio_output@@V?$standard_base@DV?$string_output_adapter@D@__crt_stdio_output@@@2@@__crt_stdio_output@@CADH_N@Z 0000000140010e80 f i libucrtd:output.obj
 0001:0000fe80       ?adjust_hexit@?$output_processor@_WV?$string_output_adapter@_W@__crt_stdio_output@@V?$format_validation_base@_WV?$string_output_adapter@_W@__crt_stdio_output@@@2@@__crt_stdio_output@@CADH_N@Z 0000000140010e80 f i libucrtd:output.obj
 0001:0000fed0       ?advance_to_next_pass@?$standard_base@DV?$string_output_adapter@D@__crt_stdio_output@@@__crt_stdio_output@@IEAA_NXZ 0000000140010ed0 f i libucrtd:output.obj
 0001:0000fed0       ?advance_to_next_pass@?$standard_base@_WV?$string_output_adapter@_W@__crt_stdio_output@@@__crt_stdio_output@@IEAA_NXZ 0000000140010ed0 f i libucrtd:output.obj
 0001:0000ff20       ?check@?$cached@H@__crt_cached_ptd_host@@QEBA_NH@Z 0000000140010f20 f i libucrtd:output.obj
 0001:0000ff60       ?check_synchronize_global_state_index@__crt_cached_ptd_host@@AEAA_KAEBV__crt_scoped_get_last_error_reset@@@Z 0000000140010f60 f i libucrtd:output.obj
 0001:0000ffa0       ?check_synchronize_per_thread_data@__crt_cached_ptd_host@@AEAAPEAU__acrt_ptd@@XZ 0000000140010fa0 f i libucrtd:output.obj
 0001:0000ffe0       ?create_guard@?$cached@H@__crt_cached_ptd_host@@QEAA?AVguard@12@XZ 0000000140010fe0 f i libucrtd:output.obj
 0001:00010010       ?crop_zeroes@__crt_stdio_output@@YAXPEADQEAU__crt_locale_pointers@@@Z 0000000140011010 f i libucrtd:output.obj
 0001:00010160       ?disable@guard@?$cached@H@__crt_cached_ptd_host@@QEAAXXZ 0000000140011160 f i libucrtd:output.obj
 0001:00010170       ?enable@guard@?$cached@H@__crt_cached_ptd_host@@QEAAXXZ 0000000140011170 f i libucrtd:output.obj
 0001:00010180       ?find_next_state@?$output_processor@DV?$string_output_adapter@D@__crt_stdio_output@@V?$format_validation_base@DV?$string_output_adapter@D@__crt_stdio_output@@@2@@__crt_stdio_output@@AEBA?AW4state@2@DW432@@Z 0000000140011180 f i libucrtd:output.obj
 0001:00010220       ?find_next_state@?$output_processor@DV?$string_output_adapter@D@__crt_stdio_output@@V?$standard_base@DV?$string_output_adapter@D@__crt_stdio_output@@@2@@__crt_stdio_output@@AEBA?AW4state@2@DW432@@Z 0000000140011220 f i libucrtd:output.obj
 0001:000102c0       ?find_next_state@?$output_processor@_WV?$string_output_adapter@_W@__crt_stdio_output@@V?$format_validation_base@_WV?$string_output_adapter@_W@__crt_stdio_output@@@2@@__crt_stdio_output@@AEBA?AW4state@2@_WW432@@Z 00000001400112c0 f i libucrtd:output.obj
 0001:00010360       ?force_decimal_point@__crt_stdio_output@@YAXPEADQEAU__crt_locale_pointers@@@Z 0000000140011360 f i libucrtd:output.obj
 0001:00010460       ?force_synchronize_global_state_index@__crt_cached_ptd_host@@AEAA_KAEBV__crt_scoped_get_last_error_reset@@@Z 0000000140011460 f i libucrtd:output.obj
 0001:000104a0       ?force_synchronize_per_thread_data@__crt_cached_ptd_host@@AEAAPEAU__acrt_ptd@@XZ 00000001400114a0 f i libucrtd:output.obj
 0001:00010500       ?get@?$c_string_character_source@D@__crt_strtox@@QEAADXZ 0000000140011500 f i libucrtd:output.obj
 0001:00010540       ?get@?$c_string_character_source@_W@__crt_strtox@@QEAA_WXZ 0000000140011540 f i libucrtd:output.obj
 0001:00010580       ?get_errno@__crt_cached_ptd_host@@QEAAAEAU?$cached@H@1@XZ 0000000140011580 f i libucrtd:output.obj
 0001:00010590       ?get_flags@__crt_stdio_stream@@QEBAJXZ 0000000140011590 f i libucrtd:output.obj
 0001:000105c0       ?get_locale@__crt_cached_ptd_host@@QEAAPEAU__crt_locale_pointers@@XZ 00000001400115c0 f i libucrtd:output.obj
 0001:000105f0       ?get_raw_ptd@__crt_cached_ptd_host@@QEAAPEAU__acrt_ptd@@XZ 00000001400115f0 f i libucrtd:output.obj
 0001:00010610       ?has_flag@?$output_processor@DV?$string_output_adapter@D@__crt_stdio_output@@V?$format_validation_base@DV?$string_output_adapter@D@__crt_stdio_output@@@2@@__crt_stdio_output@@AEBA_NI@Z 0000000140011610 f i libucrtd:output.obj
 0001:00010610       ?has_flag@?$output_processor@DV?$string_output_adapter@D@__crt_stdio_output@@V?$standard_base@DV?$string_output_adapter@D@__crt_stdio_output@@@2@@__crt_stdio_output@@AEBA_NI@Z 0000000140011610 f i libucrtd:output.obj
 0001:00010610       ?has_flag@?$output_processor@_WV?$string_output_adapter@_W@__crt_stdio_output@@V?$format_validation_base@_WV?$string_output_adapter@_W@__crt_stdio_output@@@2@@__crt_stdio_output@@AEBA_NI@Z 0000000140011610 f i libucrtd:output.obj
 0001:00010650       ?is_string_backed@__crt_stdio_stream@@QEBA_NXZ 0000000140011650 f i libucrtd:output.obj
 0001:00010690       ?maximum_signed_value@__crt_strtox@@YAJK@Z 0000000140011690 f i libucrtd:output.obj
 0001:000106a0       ?minimum_signed_value@__crt_strtox@@YAJK@Z 00000001400116a0 f i libucrtd:output.obj
 0001:000106b0       ?narrow_null_string@?$output_processor@DV?$string_output_adapter@D@__crt_stdio_output@@V?$format_validation_base@DV?$string_output_adapter@D@__crt_stdio_output@@@2@@__crt_stdio_output@@CAPEADXZ 00000001400116b0 f i libucrtd:output.obj
 0001:000106b0       ?narrow_null_string@?$output_processor@DV?$string_output_adapter@D@__crt_stdio_output@@V?$standard_base@DV?$string_output_adapter@D@__crt_stdio_output@@@2@@__crt_stdio_output@@CAPEADXZ 00000001400116b0 f i libucrtd:output.obj
 0001:000106b0       ?narrow_null_string@?$output_processor@_WV?$string_output_adapter@_W@__crt_stdio_output@@V?$format_validation_base@_WV?$string_output_adapter@_W@__crt_stdio_output@@@2@@__crt_stdio_output@@CAPEADXZ 00000001400116b0 f i libucrtd:output.obj
 0001:000106c0       ?parse_digit@__crt_strtox@@YAID@Z 00000001400116c0 f i libucrtd:output.obj
 0001:00010730       ?parse_digit@__crt_strtox@@YAI_W@Z 0000000140011730 f i libucrtd:output.obj
 0001:00010780       ?parse_int_from_format_string@?$output_processor@DV?$string_output_adapter@D@__crt_stdio_output@@V?$format_validation_base@DV?$string_output_adapter@D@__crt_stdio_output@@@2@@__crt_stdio_output@@AEAA_NQEAH@Z 0000000140011780 f i libucrtd:output.obj
 0001:00010780       ?parse_int_from_format_string@?$output_processor@DV?$string_output_adapter@D@__crt_stdio_output@@V?$standard_base@DV?$string_output_adapter@D@__crt_stdio_output@@@2@@__crt_stdio_output@@AEAA_NQEAH@Z 0000000140011780 f i libucrtd:output.obj
 0001:00010880       ?parse_int_from_format_string@?$output_processor@_WV?$string_output_adapter@_W@__crt_stdio_output@@V?$format_validation_base@_WV?$string_output_adapter@_W@__crt_stdio_output@@@2@@__crt_stdio_output@@AEAA_NQEAH@Z 0000000140011880 f i libucrtd:output.obj
 0001:00010980       ?process@?$output_processor@DV?$string_output_adapter@D@__crt_stdio_output@@V?$format_validation_base@DV?$string_output_adapter@D@__crt_stdio_output@@@2@@__crt_stdio_output@@QEAAHXZ 0000000140011980 f i libucrtd:output.obj
 0001:00010d40       ?process@?$output_processor@DV?$string_output_adapter@D@__crt_stdio_output@@V?$standard_base@DV?$string_output_adapter@D@__crt_stdio_output@@@2@@__crt_stdio_output@@QEAAHXZ 0000000140011d40 f i libucrtd:output.obj
 0001:00011100       ?process@?$output_processor@_WV?$string_output_adapter@_W@__crt_stdio_output@@V?$format_validation_base@_WV?$string_output_adapter@_W@__crt_stdio_output@@@2@@__crt_stdio_output@@QEAAHXZ 0000000140012100 f i libucrtd:output.obj
 0001:000114c0       ?restore_state@?$c_string_character_source@D@__crt_strtox@@QEAA_NQEBD@Z 00000001400124c0 f i libucrtd:output.obj
 0001:000114c0       ?restore_state@?$c_string_character_source@_W@__crt_strtox@@QEAA_NQEB_W@Z 00000001400124c0 f i libucrtd:output.obj
 0001:000114e0       ?set@?$cached@H@__crt_cached_ptd_host@@QEAAHH@Z 00000001400124e0 f i libucrtd:output.obj
 0001:000114e0       ?set@?$cached@K@__crt_cached_ptd_host@@QEAAKK@Z 00000001400124e0 f i libucrtd:errno.obj
 0001:00011510       ?set_flag@?$output_processor@DV?$string_output_adapter@D@__crt_stdio_output@@V?$format_validation_base@DV?$string_output_adapter@D@__crt_stdio_output@@@2@@__crt_stdio_output@@AEAAXI@Z 0000000140012510 f i libucrtd:output.obj
 0001:00011510       ?set_flag@?$output_processor@DV?$string_output_adapter@D@__crt_stdio_output@@V?$standard_base@DV?$string_output_adapter@D@__crt_stdio_output@@@2@@__crt_stdio_output@@AEAAXI@Z 0000000140012510 f i libucrtd:output.obj
 0001:00011510       ?set_flag@?$output_processor@_WV?$string_output_adapter@_W@__crt_stdio_output@@V?$format_validation_base@_WV?$string_output_adapter@_W@__crt_stdio_output@@@2@@__crt_stdio_output@@AEAAXI@Z 0000000140012510 f i libucrtd:output.obj
 0001:00011530       ?should_format@?$standard_base@DV?$string_output_adapter@D@__crt_stdio_output@@@__crt_stdio_output@@IEAA_NXZ 0000000140012530 f i libucrtd:output.obj
 0001:00011530       ?should_format@?$standard_base@_WV?$string_output_adapter@_W@__crt_stdio_output@@@__crt_stdio_output@@IEAA_NXZ 0000000140012530 f i libucrtd:output.obj
 0001:00011530       ?validate_and_update_state_at_beginning_of_format_character@?$standard_base@DV?$string_output_adapter@D@__crt_stdio_output@@@__crt_stdio_output@@IEAA_NXZ 0000000140012530 f i libucrtd:output.obj
 0001:00011530       ?validate_and_update_state_at_beginning_of_format_character@?$standard_base@_WV?$string_output_adapter@_W@__crt_stdio_output@@@__crt_stdio_output@@IEAA_NXZ 0000000140012530 f i libucrtd:output.obj
 0001:00011530       ?validate_and_update_state_at_end_of_format_string@?$standard_base@DV?$string_output_adapter@D@__crt_stdio_output@@@__crt_stdio_output@@IEBA_NXZ 0000000140012530 f i libucrtd:output.obj
 0001:00011530       ?validate_state_for_type_case_a@?$standard_base@DV?$string_output_adapter@D@__crt_stdio_output@@@__crt_stdio_output@@IEBA_NXZ 0000000140012530 f i libucrtd:output.obj
 0001:00011530       ?validate_state_for_type_case_a@?$standard_base@_WV?$string_output_adapter@_W@__crt_stdio_output@@@__crt_stdio_output@@IEBA_NXZ 0000000140012530 f i libucrtd:output.obj
 0001:00011540       ?should_skip_normal_state_processing@?$standard_base@DV?$string_output_adapter@D@__crt_stdio_output@@@__crt_stdio_output@@IEAA_NXZ 0000000140012540 f i libucrtd:output.obj
 0001:00011540       ?should_skip_normal_state_processing@?$standard_base@_WV?$string_output_adapter@_W@__crt_stdio_output@@@__crt_stdio_output@@IEAA_NXZ 0000000140012540 f i libucrtd:output.obj
 0001:00011540       ?should_skip_type_state_output@?$standard_base@DV?$string_output_adapter@D@__crt_stdio_output@@@__crt_stdio_output@@IEBA_NXZ 0000000140012540 f i libucrtd:output.obj
 0001:00011540       ?should_skip_type_state_output@?$standard_base@_WV?$string_output_adapter@_W@__crt_stdio_output@@@__crt_stdio_output@@IEBA_NXZ 0000000140012540 f i libucrtd:output.obj
 0001:00011550       ?state_case_dot@?$output_processor@DV?$string_output_adapter@D@__crt_stdio_output@@V?$format_validation_base@DV?$string_output_adapter@D@__crt_stdio_output@@@2@@__crt_stdio_output@@AEAA_NXZ 0000000140012550 f i libucrtd:output.obj
 0001:00011550       ?state_case_dot@?$output_processor@DV?$string_output_adapter@D@__crt_stdio_output@@V?$standard_base@DV?$string_output_adapter@D@__crt_stdio_output@@@2@@__crt_stdio_output@@AEAA_NXZ 0000000140012550 f i libucrtd:output.obj
 0001:00011550       ?state_case_dot@?$output_processor@_WV?$string_output_adapter@_W@__crt_stdio_output@@V?$format_validation_base@_WV?$string_output_adapter@_W@__crt_stdio_output@@@2@@__crt_stdio_output@@AEAA_NXZ 0000000140012550 f i libucrtd:output.obj
 0001:00011570       ?state_case_flag@?$output_processor@DV?$string_output_adapter@D@__crt_stdio_output@@V?$format_validation_base@DV?$string_output_adapter@D@__crt_stdio_output@@@2@@__crt_stdio_output@@AEAA_NXZ 0000000140012570 f i libucrtd:output.obj
 0001:00011570       ?state_case_flag@?$output_processor@DV?$string_output_adapter@D@__crt_stdio_output@@V?$standard_base@DV?$string_output_adapter@D@__crt_stdio_output@@@2@@__crt_stdio_output@@AEAA_NXZ 0000000140012570 f i libucrtd:output.obj
 0001:00011610       ?state_case_flag@?$output_processor@_WV?$string_output_adapter@_W@__crt_stdio_output@@V?$format_validation_base@_WV?$string_output_adapter@_W@__crt_stdio_output@@@2@@__crt_stdio_output@@AEAA_NXZ 0000000140012610 f i libucrtd:output.obj
 0001:000116b0       ?state_case_normal@?$output_processor@DV?$string_output_adapter@D@__crt_stdio_output@@V?$format_validation_base@DV?$string_output_adapter@D@__crt_stdio_output@@@2@@__crt_stdio_output@@AEAA_NXZ 00000001400126b0 f i libucrtd:output.obj
 0001:000117b0       ?state_case_normal@?$output_processor@DV?$string_output_adapter@D@__crt_stdio_output@@V?$standard_base@DV?$string_output_adapter@D@__crt_stdio_output@@@2@@__crt_stdio_output@@AEAA_NXZ 00000001400127b0 f i libucrtd:output.obj
 0001:000118b0       ?state_case_normal@?$output_processor@_WV?$string_output_adapter@_W@__crt_stdio_output@@V?$format_validation_base@_WV?$string_output_adapter@_W@__crt_stdio_output@@@2@@__crt_stdio_output@@AEAA_NXZ 00000001400128b0 f i libucrtd:output.obj
 0001:000119b0       ?state_case_normal_common@?$output_processor@DV?$string_output_adapter@D@__crt_stdio_output@@V?$format_validation_base@DV?$string_output_adapter@D@__crt_stdio_output@@@2@@__crt_stdio_output@@AEAA_NXZ 00000001400129b0 f i libucrtd:output.obj
 0001:00011a10       ?state_case_normal_common@?$output_processor@DV?$string_output_adapter@D@__crt_stdio_output@@V?$standard_base@DV?$string_output_adapter@D@__crt_stdio_output@@@2@@__crt_stdio_output@@AEAA_NXZ 0000000140012a10 f i libucrtd:output.obj
 0001:00011a70       ?state_case_normal_common@?$output_processor@_WV?$string_output_adapter@_W@__crt_stdio_output@@V?$format_validation_base@_WV?$string_output_adapter@_W@__crt_stdio_output@@@2@@__crt_stdio_output@@AEAA_NXZ 0000000140012a70 f i libucrtd:output.obj
 0001:00011ad0       ?state_case_normal_tchar@?$output_processor@DV?$string_output_adapter@D@__crt_stdio_output@@V?$format_validation_base@DV?$string_output_adapter@D@__crt_stdio_output@@@2@@__crt_stdio_output@@AEAA_ND@Z 0000000140012ad0 f i libucrtd:output.obj
 0001:00011c60       ?state_case_normal_tchar@?$output_processor@DV?$string_output_adapter@D@__crt_stdio_output@@V?$standard_base@DV?$string_output_adapter@D@__crt_stdio_output@@@2@@__crt_stdio_output@@AEAA_ND@Z 0000000140012c60 f i libucrtd:output.obj
 0001:00011df0       ?state_case_normal_tchar@?$output_processor@_WV?$string_output_adapter@_W@__crt_stdio_output@@V?$format_validation_base@_WV?$string_output_adapter@_W@__crt_stdio_output@@@2@@__crt_stdio_output@@AEAA_N_W@Z 0000000140012df0 f i libucrtd:output.obj
 0001:00011e10       ?state_case_percent@?$output_processor@DV?$string_output_adapter@D@__crt_stdio_output@@V?$format_validation_base@DV?$string_output_adapter@D@__crt_stdio_output@@@2@@__crt_stdio_output@@AEAA_NXZ 0000000140012e10 f i libucrtd:output.obj
 0001:00011e10       ?state_case_percent@?$output_processor@DV?$string_output_adapter@D@__crt_stdio_output@@V?$standard_base@DV?$string_output_adapter@D@__crt_stdio_output@@@2@@__crt_stdio_output@@AEAA_NXZ 0000000140012e10 f i libucrtd:output.obj
 0001:00011e10       ?state_case_percent@?$output_processor@_WV?$string_output_adapter@_W@__crt_stdio_output@@V?$format_validation_base@_WV?$string_output_adapter@_W@__crt_stdio_output@@@2@@__crt_stdio_output@@AEAA_NXZ 0000000140012e10 f i libucrtd:output.obj
 0001:00011e60       ?state_case_precision@?$output_processor@DV?$string_output_adapter@D@__crt_stdio_output@@V?$format_validation_base@DV?$string_output_adapter@D@__crt_stdio_output@@@2@@__crt_stdio_output@@AEAA_NXZ 0000000140012e60 f i libucrtd:output.obj
 0001:00011e60       ?state_case_precision@?$output_processor@DV?$string_output_adapter@D@__crt_stdio_output@@V?$standard_base@DV?$string_output_adapter@D@__crt_stdio_output@@@2@@__crt_stdio_output@@AEAA_NXZ 0000000140012e60 f i libucrtd:output.obj
 0001:00011ee0       ?state_case_precision@?$output_processor@_WV?$string_output_adapter@_W@__crt_stdio_output@@V?$format_validation_base@_WV?$string_output_adapter@_W@__crt_stdio_output@@@2@@__crt_stdio_output@@AEAA_NXZ 0000000140012ee0 f i libucrtd:output.obj
 0001:00011f60       ?state_case_size@?$output_processor@DV?$string_output_adapter@D@__crt_stdio_output@@V?$format_validation_base@DV?$string_output_adapter@D@__crt_stdio_output@@@2@@__crt_stdio_output@@AEAA_NXZ 0000000140012f60 f i libucrtd:output.obj
 0001:00012420       ?state_case_size@?$output_processor@DV?$string_output_adapter@D@__crt_stdio_output@@V?$standard_base@DV?$string_output_adapter@D@__crt_stdio_output@@@2@@__crt_stdio_output@@AEAA_NXZ 0000000140013420 f i libucrtd:output.obj
 0001:000128e0       ?state_case_size@?$output_processor@_WV?$string_output_adapter@_W@__crt_stdio_output@@V?$format_validation_base@_WV?$string_output_adapter@_W@__crt_stdio_output@@@2@@__crt_stdio_output@@AEAA_NXZ 00000001400138e0 f i libucrtd:output.obj
 0001:00012da0       ?state_case_type@?$output_processor@DV?$string_output_adapter@D@__crt_stdio_output@@V?$format_validation_base@DV?$string_output_adapter@D@__crt_stdio_output@@@2@@__crt_stdio_output@@AEAA_NXZ 0000000140013da0 f i libucrtd:output.obj
 0001:00013260       ?state_case_type@?$output_processor@DV?$string_output_adapter@D@__crt_stdio_output@@V?$standard_base@DV?$string_output_adapter@D@__crt_stdio_output@@@2@@__crt_stdio_output@@AEAA_NXZ 0000000140014260 f i libucrtd:output.obj
 0001:00013720       ?state_case_type@?$output_processor@_WV?$string_output_adapter@_W@__crt_stdio_output@@V?$format_validation_base@_WV?$string_output_adapter@_W@__crt_stdio_output@@@2@@__crt_stdio_output@@AEAA_NXZ 0000000140014720 f i libucrtd:output.obj
 0001:00013cb0       ?state_case_width@?$output_processor@DV?$string_output_adapter@D@__crt_stdio_output@@V?$format_validation_base@DV?$string_output_adapter@D@__crt_stdio_output@@@2@@__crt_stdio_output@@AEAA_NXZ 0000000140014cb0 f i libucrtd:output.obj
 0001:00013cb0       ?state_case_width@?$output_processor@DV?$string_output_adapter@D@__crt_stdio_output@@V?$standard_base@DV?$string_output_adapter@D@__crt_stdio_output@@@2@@__crt_stdio_output@@AEAA_NXZ 0000000140014cb0 f i libucrtd:output.obj
 0001:00013d40       ?state_case_width@?$output_processor@_WV?$string_output_adapter@_W@__crt_stdio_output@@V?$format_validation_base@_WV?$string_output_adapter@_W@__crt_stdio_output@@@2@@__crt_stdio_output@@AEAA_NXZ 0000000140014d40 f i libucrtd:output.obj
 0001:00013dd0       ?state_count@?$format_validation_base@DV?$string_output_adapter@D@__crt_stdio_output@@@__crt_stdio_output@@KAIXZ 0000000140014dd0 f i libucrtd:output.obj
 0001:00013dd0       ?state_count@?$format_validation_base@_WV?$string_output_adapter@_W@__crt_stdio_output@@@__crt_stdio_output@@KAIXZ 0000000140014dd0 f i libucrtd:output.obj
 0001:00013de0       ?state_count@?$standard_base@DV?$string_output_adapter@D@__crt_stdio_output@@@__crt_stdio_output@@KAIXZ 0000000140014de0 f i libucrtd:output.obj
 0001:00013df0       ?state_transition_table@?$format_validation_base@DV?$string_output_adapter@D@__crt_stdio_output@@@__crt_stdio_output@@KAAEBV?$spectre_mitigated_lookup_table@Ustate_transition_pair@__crt_stdio_output@@$0IA@@2@XZ 0000000140014df0 f i libucrtd:output.obj
 0001:00013df0       ?state_transition_table@?$format_validation_base@_WV?$string_output_adapter@_W@__crt_stdio_output@@@__crt_stdio_output@@KAAEBV?$spectre_mitigated_lookup_table@Ustate_transition_pair@__crt_stdio_output@@$0IA@@2@XZ 0000000140014df0 f i libucrtd:output.obj
 0001:00013e00       ?state_transition_table@?$standard_base@DV?$string_output_adapter@D@__crt_stdio_output@@@__crt_stdio_output@@KAAEBV?$spectre_mitigated_lookup_table@Ustate_transition_pair@__crt_stdio_output@@$0IA@@2@XZ 0000000140014e00 f i libucrtd:output.obj
 0001:00013e10       ?tchar_string@?$common_data@D@__crt_stdio_output@@IEAAAEAPEADD@Z 0000000140014e10 f i libucrtd:output.obj
 0001:00013e30       ?tchar_string@?$common_data@D@__crt_stdio_output@@IEAAAEAPEADXZ 0000000140014e30 f i libucrtd:output.obj
 0001:00013e50       ?tchar_string@?$common_data@_W@__crt_stdio_output@@IEAAAEAPEA_WXZ 0000000140014e50 f i libucrtd:output.obj
 0001:00013e70       ?tchar_string@?$common_data@_W@__crt_stdio_output@@IEAAAEAPEA_W_W@Z 0000000140014e70 f i libucrtd:output.obj
 0001:00013e90       ?to_integer_size@__crt_stdio_output@@YA_KW4length_modifier@1@@Z 0000000140014e90 f i libucrtd:output.obj
 0001:00013f40       ?type_case_X@?$output_processor@DV?$string_output_adapter@D@__crt_stdio_output@@V?$format_validation_base@DV?$string_output_adapter@D@__crt_stdio_output@@@2@@__crt_stdio_output@@AEAA_NXZ 0000000140014f40 f i libucrtd:output.obj
 0001:00013f60       ?type_case_X@?$output_processor@DV?$string_output_adapter@D@__crt_stdio_output@@V?$standard_base@DV?$string_output_adapter@D@__crt_stdio_output@@@2@@__crt_stdio_output@@AEAA_NXZ 0000000140014f60 f i libucrtd:output.obj
 0001:00013f80       ?type_case_X@?$output_processor@_WV?$string_output_adapter@_W@__crt_stdio_output@@V?$format_validation_base@_WV?$string_output_adapter@_W@__crt_stdio_output@@@2@@__crt_stdio_output@@AEAA_NXZ 0000000140014f80 f i libucrtd:output.obj
 0001:00013fa0       ?type_case_Z@?$output_processor@DV?$string_output_adapter@D@__crt_stdio_output@@V?$format_validation_base@DV?$string_output_adapter@D@__crt_stdio_output@@@2@@__crt_stdio_output@@AEAA_NXZ 0000000140014fa0 f i libucrtd:output.obj
 0001:00013fa0       ?type_case_Z@?$output_processor@DV?$string_output_adapter@D@__crt_stdio_output@@V?$standard_base@DV?$string_output_adapter@D@__crt_stdio_output@@@2@@__crt_stdio_output@@AEAA_NXZ 0000000140014fa0 f i libucrtd:output.obj
 0001:000140c0       ?type_case_Z@?$output_processor@_WV?$string_output_adapter@_W@__crt_stdio_output@@V?$format_validation_base@_WV?$string_output_adapter@_W@__crt_stdio_output@@@2@@__crt_stdio_output@@AEAA_NXZ 00000001400150c0 f i libucrtd:output.obj
 0001:000141e0       ?type_case_a@?$output_processor@DV?$string_output_adapter@D@__crt_stdio_output@@V?$format_validation_base@DV?$string_output_adapter@D@__crt_stdio_output@@@2@@__crt_stdio_output@@AEAA_NXZ 00000001400151e0 f i libucrtd:output.obj
 0001:000141e0       ?type_case_a@?$output_processor@DV?$string_output_adapter@D@__crt_stdio_output@@V?$standard_base@DV?$string_output_adapter@D@__crt_stdio_output@@@2@@__crt_stdio_output@@AEAA_NXZ 00000001400151e0 f i libucrtd:output.obj
 0001:00014640       ?type_case_a@?$output_processor@_WV?$string_output_adapter@_W@__crt_stdio_output@@V?$format_validation_base@_WV?$string_output_adapter@_W@__crt_stdio_output@@@2@@__crt_stdio_output@@AEAA_NXZ 0000000140015640 f i libucrtd:output.obj
 0001:00014ab0       ?type_case_c@?$output_processor@DV?$string_output_adapter@D@__crt_stdio_output@@V?$format_validation_base@DV?$string_output_adapter@D@__crt_stdio_output@@@2@@__crt_stdio_output@@AEAA_NXZ 0000000140015ab0 f i libucrtd:output.obj
 0001:00014ab0       ?type_case_c@?$output_processor@DV?$string_output_adapter@D@__crt_stdio_output@@V?$standard_base@DV?$string_output_adapter@D@__crt_stdio_output@@@2@@__crt_stdio_output@@AEAA_NXZ 0000000140015ab0 f i libucrtd:output.obj
 0001:00014ad0       ?type_case_c@?$output_processor@_WV?$string_output_adapter@_W@__crt_stdio_output@@V?$format_validation_base@_WV?$string_output_adapter@_W@__crt_stdio_output@@@2@@__crt_stdio_output@@AEAA_NXZ 0000000140015ad0 f i libucrtd:output.obj
 0001:00014af0       ?type_case_c_tchar@?$output_processor@DV?$string_output_adapter@D@__crt_stdio_output@@V?$format_validation_base@DV?$string_output_adapter@D@__crt_stdio_output@@@2@@__crt_stdio_output@@AEAA_ND@Z 0000000140015af0 f i libucrtd:output.obj
 0001:00014af0       ?type_case_c_tchar@?$output_processor@DV?$string_output_adapter@D@__crt_stdio_output@@V?$standard_base@DV?$string_output_adapter@D@__crt_stdio_output@@@2@@__crt_stdio_output@@AEAA_ND@Z 0000000140015af0 f i libucrtd:output.obj
 0001:00014c60       ?type_case_c_tchar@?$output_processor@_WV?$string_output_adapter@_W@__crt_stdio_output@@V?$format_validation_base@_WV?$string_output_adapter@_W@__crt_stdio_output@@@2@@__crt_stdio_output@@AEAA_N_W@Z 0000000140015c60 f i libucrtd:output.obj
 0001:00014dc0       ?type_case_d@?$output_processor@DV?$string_output_adapter@D@__crt_stdio_output@@V?$format_validation_base@DV?$string_output_adapter@D@__crt_stdio_output@@@2@@__crt_stdio_output@@AEAA_NXZ 0000000140015dc0 f i libucrtd:output.obj
 0001:00014df0       ?type_case_d@?$output_processor@DV?$string_output_adapter@D@__crt_stdio_output@@V?$standard_base@DV?$string_output_adapter@D@__crt_stdio_output@@@2@@__crt_stdio_output@@AEAA_NXZ 0000000140015df0 f i libucrtd:output.obj
 0001:00014e20       ?type_case_d@?$output_processor@_WV?$string_output_adapter@_W@__crt_stdio_output@@V?$format_validation_base@_WV?$string_output_adapter@_W@__crt_stdio_output@@@2@@__crt_stdio_output@@AEAA_NXZ 0000000140015e20 f i libucrtd:output.obj
 0001:00014e50       ?type_case_n@?$output_processor@DV?$string_output_adapter@D@__crt_stdio_output@@V?$format_validation_base@DV?$string_output_adapter@D@__crt_stdio_output@@@2@@__crt_stdio_output@@AEAA_NXZ 0000000140015e50 f i libucrtd:output.obj
 0001:000150e0       ?type_case_n@?$output_processor@DV?$string_output_adapter@D@__crt_stdio_output@@V?$standard_base@DV?$string_output_adapter@D@__crt_stdio_output@@@2@@__crt_stdio_output@@AEAA_NXZ 00000001400160e0 f i libucrtd:output.obj
 0001:00015370       ?type_case_n@?$output_processor@_WV?$string_output_adapter@_W@__crt_stdio_output@@V?$format_validation_base@_WV?$string_output_adapter@_W@__crt_stdio_output@@@2@@__crt_stdio_output@@AEAA_NXZ 0000000140016370 f i libucrtd:output.obj
 0001:00015600       ?type_case_o@?$output_processor@DV?$string_output_adapter@D@__crt_stdio_output@@V?$format_validation_base@DV?$string_output_adapter@D@__crt_stdio_output@@@2@@__crt_stdio_output@@AEAA_NXZ 0000000140016600 f i libucrtd:output.obj
 0001:00015640       ?type_case_o@?$output_processor@DV?$string_output_adapter@D@__crt_stdio_output@@V?$standard_base@DV?$string_output_adapter@D@__crt_stdio_output@@@2@@__crt_stdio_output@@AEAA_NXZ 0000000140016640 f i libucrtd:output.obj
 0001:00015680       ?type_case_o@?$output_processor@_WV?$string_output_adapter@_W@__crt_stdio_output@@V?$format_validation_base@_WV?$string_output_adapter@_W@__crt_stdio_output@@@2@@__crt_stdio_output@@AEAA_NXZ 0000000140016680 f i libucrtd:output.obj
 0001:000156c0       ?type_case_p@?$output_processor@DV?$string_output_adapter@D@__crt_stdio_output@@V?$format_validation_base@DV?$string_output_adapter@D@__crt_stdio_output@@@2@@__crt_stdio_output@@AEAA_NXZ 00000001400166c0 f i libucrtd:output.obj
 0001:00015700       ?type_case_p@?$output_processor@DV?$string_output_adapter@D@__crt_stdio_output@@V?$standard_base@DV?$string_output_adapter@D@__crt_stdio_output@@@2@@__crt_stdio_output@@AEAA_NXZ 0000000140016700 f i libucrtd:output.obj
 0001:00015740       ?type_case_p@?$output_processor@_WV?$string_output_adapter@_W@__crt_stdio_output@@V?$format_validation_base@_WV?$string_output_adapter@_W@__crt_stdio_output@@@2@@__crt_stdio_output@@AEAA_NXZ 0000000140016740 f i libucrtd:output.obj
 0001:00015780       ?type_case_s@?$output_processor@DV?$string_output_adapter@D@__crt_stdio_output@@V?$format_validation_base@DV?$string_output_adapter@D@__crt_stdio_output@@@2@@__crt_stdio_output@@AEAA_NXZ 0000000140016780 f i libucrtd:output.obj
 0001:00015780       ?type_case_s@?$output_processor@DV?$string_output_adapter@D@__crt_stdio_output@@V?$standard_base@DV?$string_output_adapter@D@__crt_stdio_output@@@2@@__crt_stdio_output@@AEAA_NXZ 0000000140016780 f i libucrtd:output.obj
 0001:000158a0       ?type_case_s@?$output_processor@_WV?$string_output_adapter@_W@__crt_stdio_output@@V?$format_validation_base@_WV?$string_output_adapter@_W@__crt_stdio_output@@@2@@__crt_stdio_output@@AEAA_NXZ 00000001400168a0 f i libucrtd:output.obj
 0001:000159c0       ?type_case_s_compute_narrow_string_length@?$output_processor@DV?$string_output_adapter@D@__crt_stdio_output@@V?$format_validation_base@DV?$string_output_adapter@D@__crt_stdio_output@@@2@@__crt_stdio_output@@AEAAHHD@Z 00000001400169c0 f i libucrtd:output.obj
 0001:000159c0       ?type_case_s_compute_narrow_string_length@?$output_processor@DV?$string_output_adapter@D@__crt_stdio_output@@V?$standard_base@DV?$string_output_adapter@D@__crt_stdio_output@@@2@@__crt_stdio_output@@AEAAHHD@Z 00000001400169c0 f i libucrtd:output.obj
 0001:000159f0       ?type_case_s_compute_narrow_string_length@?$output_processor@_WV?$string_output_adapter@_W@__crt_stdio_output@@V?$format_validation_base@_WV?$string_output_adapter@_W@__crt_stdio_output@@@2@@__crt_stdio_output@@AEAAHH_W@Z 00000001400169f0 f i libucrtd:output.obj
 0001:00015a90       ?type_case_u@?$output_processor@DV?$string_output_adapter@D@__crt_stdio_output@@V?$format_validation_base@DV?$string_output_adapter@D@__crt_stdio_output@@@2@@__crt_stdio_output@@AEAA_NXZ 0000000140016a90 f i libucrtd:output.obj
 0001:00015ab0       ?type_case_u@?$output_processor@DV?$string_output_adapter@D@__crt_stdio_output@@V?$standard_base@DV?$string_output_adapter@D@__crt_stdio_output@@@2@@__crt_stdio_output@@AEAA_NXZ 0000000140016ab0 f i libucrtd:output.obj
 0001:00015ad0       ?type_case_u@?$output_processor@_WV?$string_output_adapter@_W@__crt_stdio_output@@V?$format_validation_base@_WV?$string_output_adapter@_W@__crt_stdio_output@@@2@@__crt_stdio_output@@AEAA_NXZ 0000000140016ad0 f i libucrtd:output.obj
 0001:00015af0       ?type_case_x@?$output_processor@DV?$string_output_adapter@D@__crt_stdio_output@@V?$format_validation_base@DV?$string_output_adapter@D@__crt_stdio_output@@@2@@__crt_stdio_output@@AEAA_NXZ 0000000140016af0 f i libucrtd:output.obj
 0001:00015b10       ?type_case_x@?$output_processor@DV?$string_output_adapter@D@__crt_stdio_output@@V?$standard_base@DV?$string_output_adapter@D@__crt_stdio_output@@@2@@__crt_stdio_output@@AEAA_NXZ 0000000140016b10 f i libucrtd:output.obj
 0001:00015b30       ?type_case_x@?$output_processor@_WV?$string_output_adapter@_W@__crt_stdio_output@@V?$format_validation_base@_WV?$string_output_adapter@_W@__crt_stdio_output@@@2@@__crt_stdio_output@@AEAA_NXZ 0000000140016b30 f i libucrtd:output.obj
 0001:00015b50       ?unget@?$c_string_character_source@D@__crt_strtox@@QEAAXD@Z 0000000140016b50 f i libucrtd:output.obj
 0001:00015c30       ?unget@?$c_string_character_source@_W@__crt_strtox@@QEAAX_W@Z 0000000140016c30 f i libucrtd:output.obj
 0001:00015d10       ?unsafe_value@?$cached@H@__crt_cached_ptd_host@@QEAAHXZ 0000000140016d10 f i libucrtd:output.obj
 0001:00015d10       ?unsafe_value@?$cached@K@__crt_cached_ptd_host@@QEAAKXZ 0000000140016d10 f i libucrtd:output.obj
 0001:00015d20       ?unset_flag@?$output_processor@DV?$string_output_adapter@D@__crt_stdio_output@@V?$format_validation_base@DV?$string_output_adapter@D@__crt_stdio_output@@@2@@__crt_stdio_output@@AEAAXI@Z 0000000140016d20 f i libucrtd:output.obj
 0001:00015d20       ?unset_flag@?$output_processor@DV?$string_output_adapter@D@__crt_stdio_output@@V?$standard_base@DV?$string_output_adapter@D@__crt_stdio_output@@@2@@__crt_stdio_output@@AEAAXI@Z 0000000140016d20 f i libucrtd:output.obj
 0001:00015d20       ?unset_flag@?$output_processor@_WV?$string_output_adapter@_W@__crt_stdio_output@@V?$format_validation_base@_WV?$string_output_adapter@_W@__crt_stdio_output@@@2@@__crt_stdio_output@@AEAAXI@Z 0000000140016d20 f i libucrtd:output.obj
 0001:00015d50       ?update_field_width@?$standard_base@DV?$string_output_adapter@D@__crt_stdio_output@@@__crt_stdio_output@@IEAA_NXZ 0000000140016d50 f i libucrtd:output.obj
 0001:00015d50       ?update_field_width@?$standard_base@_WV?$string_output_adapter@_W@__crt_stdio_output@@@__crt_stdio_output@@IEAA_NXZ 0000000140016d50 f i libucrtd:output.obj
 0001:00015d80       ?update_locale@__crt_cached_ptd_host@@AEAAXXZ 0000000140016d80 f i libucrtd:output.obj
 0001:00015db0       ?update_locale_slow@__crt_cached_ptd_host@@AEAAXXZ 0000000140016db0 f i libucrtd:output.obj
 0001:00015e60       ?update_precision@?$standard_base@DV?$string_output_adapter@D@__crt_stdio_output@@@__crt_stdio_output@@IEAA_NXZ 0000000140016e60 f i libucrtd:output.obj
 0001:00015e60       ?update_precision@?$standard_base@_WV?$string_output_adapter@_W@__crt_stdio_output@@@__crt_stdio_output@@IEAA_NXZ 0000000140016e60 f i libucrtd:output.obj
 0001:00015e90       ?valid@?$cached@H@__crt_cached_ptd_host@@QEBA_NXZ 0000000140016e90 f i libucrtd:output.obj
 0001:00015e90       ?valid@?$cached@K@__crt_cached_ptd_host@@QEBA_NXZ 0000000140016e90 f i libucrtd:output.obj
 0001:00015ea0       ?validate@?$c_string_character_source@D@__crt_strtox@@QEBA_NXZ 0000000140016ea0 f i libucrtd:output.obj
 0001:00015f60       ?validate@?$c_string_character_source@_W@__crt_strtox@@QEBA_NXZ 0000000140016f60 f i libucrtd:output.obj
 0001:00016020       ?validate@?$string_output_adapter@D@__crt_stdio_output@@QEBA_NAEAV__crt_cached_ptd_host@@@Z 0000000140017020 f i libucrtd:output.obj
 0001:00016100       ?validate@?$string_output_adapter@_W@__crt_stdio_output@@QEBA_NAEAV__crt_cached_ptd_host@@@Z 0000000140017100 f i libucrtd:output.obj
 0001:000161e0       ?validate_and_update_state_at_end_of_format_string@?$format_validation_base@DV?$string_output_adapter@D@__crt_stdio_output@@@__crt_stdio_output@@IEAA_NXZ 00000001400171e0 f i libucrtd:output.obj
 0001:000162d0       ?validate_and_update_state_at_end_of_format_string@?$format_validation_base@_WV?$string_output_adapter@_W@__crt_stdio_output@@@__crt_stdio_output@@IEAA_NXZ 00000001400172d0 f i libucrtd:output.obj
 0001:000163c0       ?wide_character_to_digit@__crt_strtox@@YAH_W@Z 00000001400173c0 f i libucrtd:output.obj
 0001:00016730       ?wide_null_string@?$output_processor@DV?$string_output_adapter@D@__crt_stdio_output@@V?$format_validation_base@DV?$string_output_adapter@D@__crt_stdio_output@@@2@@__crt_stdio_output@@CAPEA_WXZ 0000000140017730 f i libucrtd:output.obj
 0001:00016730       ?wide_null_string@?$output_processor@DV?$string_output_adapter@D@__crt_stdio_output@@V?$standard_base@DV?$string_output_adapter@D@__crt_stdio_output@@@2@@__crt_stdio_output@@CAPEA_WXZ 0000000140017730 f i libucrtd:output.obj
 0001:00016730       ?wide_null_string@?$output_processor@_WV?$string_output_adapter@_W@__crt_stdio_output@@V?$format_validation_base@_WV?$string_output_adapter@_W@__crt_stdio_output@@@2@@__crt_stdio_output@@CAPEA_WXZ 0000000140017730 f i libucrtd:output.obj
 0001:00016740       ?write_character@?$string_output_adapter@D@__crt_stdio_output@@QEBA_NDQEAHAEAV__crt_cached_ptd_host@@@Z 0000000140017740 f i libucrtd:output.obj
 0001:00016810       ?write_character@?$string_output_adapter@_W@__crt_stdio_output@@QEBA_N_WQEAHAEAV__crt_cached_ptd_host@@@Z 0000000140017810 f i libucrtd:output.obj
 0001:000168e0       ?write_stored_string_tchar@?$output_processor@DV?$string_output_adapter@D@__crt_stdio_output@@V?$format_validation_base@DV?$string_output_adapter@D@__crt_stdio_output@@@2@@__crt_stdio_output@@AEAA_ND@Z 00000001400178e0 f i libucrtd:output.obj
 0001:000168e0       ?write_stored_string_tchar@?$output_processor@DV?$string_output_adapter@D@__crt_stdio_output@@V?$standard_base@DV?$string_output_adapter@D@__crt_stdio_output@@@2@@__crt_stdio_output@@AEAA_ND@Z 00000001400178e0 f i libucrtd:output.obj
 0001:00016a90       ?write_stored_string_tchar@?$output_processor@_WV?$string_output_adapter@_W@__crt_stdio_output@@V?$format_validation_base@_WV?$string_output_adapter@_W@__crt_stdio_output@@@2@@__crt_stdio_output@@AEAA_N_W@Z 0000000140017a90 f i libucrtd:output.obj
 0001:00016bf0       ?write_string@?$string_output_adapter@D@__crt_stdio_output@@QEBAXQEBDHQEAHAEAV__crt_cached_ptd_host@@@Z 0000000140017bf0 f i libucrtd:output.obj
 0001:00016d60       ?write_string@?$string_output_adapter@_W@__crt_stdio_output@@QEBAXQEB_WHQEAHAEAV__crt_cached_ptd_host@@@Z 0000000140017d60 f i libucrtd:output.obj
 0001:00016ed0       __acrt_disable_global_locale_sync 0000000140017ed0 f i libucrtd:output.obj
 0001:00016f00       __acrt_enable_global_locale_sync 0000000140017f00 f i libucrtd:output.obj
 0001:00016f30       __acrt_isleadbyte_l_noupdate 0000000140017f30 f i libucrtd:output.obj
 0001:00016f60       __acrt_locale_changed      0000000140017f60 f i libucrtd:output.obj
 0001:00016f90       __acrt_locale_get_ctype_array_value 0000000140017f90 f i libucrtd:output.obj
 0001:00016fd0       __ascii_iswalpha           0000000140017fd0 f i libucrtd:output.obj
 0001:00017010       __ascii_toupper            0000000140018010 f i libucrtd:output.obj
 0001:00017030       __ascii_towupper           0000000140018030 f i libucrtd:output.obj
 0001:00017050       __stdio_common_vsnprintf_s 0000000140018050 f   libucrtd:output.obj
 0001:000170e0       __stdio_common_vsnwprintf_s 00000001400180e0 f   libucrtd:output.obj
 0001:00017170       __stdio_common_vsprintf    0000000140018170 f   libucrtd:output.obj
 0001:00017200       __stdio_common_vsprintf_s  0000000140018200 f   libucrtd:output.obj
 0001:00017290       _ctype_fast_check_internal 0000000140018290 f i libucrtd:output.obj
 0001:000172c0       _isdigit_fast_internal     00000001400182c0 f i libucrtd:output.obj
 0001:000172f0       _tolower_fast_internal     00000001400182f0 f i libucrtd:output.obj
 0001:00017390       _seh_filter_exe            0000000140018390 f   libucrtd:exception_filter.obj
 0001:00017830       __acrt_report_runtime_error 0000000140018830 f   libucrtd:report_runtime_error.obj
 0001:00017ab0       _invoke_watson_if_error    0000000140018ab0 f i libucrtd:report_runtime_error.obj
 0001:00017b00       _query_app_type            0000000140018b00 f   libucrtd:report_runtime_error.obj
 0001:00017b10       _set_app_type              0000000140018b10 f   libucrtd:report_runtime_error.obj
 0001:00017b20       ??$__crt_fast_decode_pointer@P6AHPEAU_exception@@@Z@@YAP6AHPEAU_exception@@@ZQ6AH0@Z@Z 0000000140018b20 f i libucrtd:matherr.obj
 0001:00017b20       ??$__crt_fast_decode_pointer@P6AH_K@Z@@YAP6AH_K@ZQ6AH0@Z@Z 0000000140018b20 f i libucrtd:new_handler.obj
 0001:00017b20       ??$__crt_fast_decode_pointer@P6AXH@Z@@YAP6AXH@ZQ6AXH@Z@Z 0000000140018b20 f i libucrtd:signal.obj
 0001:00017b20       ??$__crt_fast_decode_pointer@P6AXPEAXK0@Z@@YAP6AXPEAXK0@ZQ6AX0K0@Z@Z 0000000140018b20 f i libucrtd:exit.obj
 0001:00017b20       ??$__crt_fast_decode_pointer@P6AXPEB_W00I_K@Z@@YAP6AXPEB_W00I_K@ZQ6AX000I1@Z@Z 0000000140018b20 f i libucrtd:invalid_parameter.obj
 0001:00017b20       ??$__crt_fast_decode_pointer@P6AXXZ@@YAP6AXXZQ6AXXZ@Z 0000000140018b20 f i libucrtd:onexit.obj
 0001:00017b20       ??$__crt_fast_decode_pointer@PEAP6AXXZ@@YAPEAP6AXXZQEAP6AXXZ@Z 0000000140018b20 f i libucrtd:onexit.obj
 0001:00017b20       ??$__crt_fast_decode_pointer@PEAX@@YAPEAXQEAX@Z 0000000140018b20 f i libucrtd:winapi_thunks.obj
 0001:00017b60       ??$__crt_fast_encode_pointer@P6AHPEAU_exception@@@Z@@YAP6AHPEAU_exception@@@ZQ6AH0@Z@Z 0000000140018b60 f i libucrtd:matherr.obj
 0001:00017b60       ??$__crt_fast_encode_pointer@P6AHXZ@@YAP6AHXZQ6AHXZ@Z 0000000140018b60 f i libucrtd:onexit.obj
 0001:00017b60       ??$__crt_fast_encode_pointer@P6AXH@Z@@YAP6AXH@ZQ6AXH@Z@Z 0000000140018b60 f i libucrtd:signal.obj
 0001:00017b60       ??$__crt_fast_encode_pointer@P6AXPEAXK0@Z@@YAP6AXPEAXK0@ZQ6AX0K0@Z@Z 0000000140018b60 f i libucrtd:exit.obj
 0001:00017b60       ??$__crt_fast_encode_pointer@P6AXXZ@@YAP6AXXZQ6AXXZ@Z 0000000140018b60 f i libucrtd:onexit.obj
 0001:00017b60       ??$__crt_fast_encode_pointer@PEAP6AXXZ@@YAPEAP6AXXZQEAP6AXXZ@Z 0000000140018b60 f i libucrtd:onexit.obj
 0001:00017b60       ??$__crt_fast_encode_pointer@PEAX@@YAPEAXQEAX@Z 0000000140018b60 f i libucrtd:initialization.obj
 0001:00017ba0       ?__crt_rotate_pointer_value@@YA_K_KH@Z 0000000140018ba0 f i libucrtd:matherr.obj
 0001:00017bc0       ?initialize@?$dual_state_global@P6AHPEAU_exception@@@Z@__crt_state_management@@QEAAXQ6AHPEAU_exception@@@Z@Z 0000000140018bc0 f i libucrtd:matherr.obj
 0001:00017bc0       ?initialize@?$dual_state_global@P6AH_K@Z@__crt_state_management@@QEAAXQ6AH_K@Z@Z 0000000140018bc0 f i libucrtd:new_handler.obj
 0001:00017bc0       ?initialize@?$dual_state_global@P6AXH@Z@__crt_state_management@@QEAAXQ6AXH@Z@Z 0000000140018bc0 f i libucrtd:signal.obj
 0001:00017bc0       ?initialize@?$dual_state_global@PEAPEAD@__crt_state_management@@QEAAXQEAPEAD@Z 0000000140018bc0 f i libucrtd:environment_initialization.obj
 0001:00017bc0       ?initialize@?$dual_state_global@PEAU__crt_locale_data@@@__crt_state_management@@QEAAXQEAU__crt_locale_data@@@Z 0000000140018bc0 f i libucrtd:initialization.obj
 0001:00017bc0       ?initialize@?$dual_state_global@PEAU__crt_multibyte_data@@@__crt_state_management@@QEAAXQEAU__crt_multibyte_data@@@Z 0000000140018bc0 f i libucrtd:mbctype.obj
 0001:00017c10       ?value@?$dual_state_global@P6AHPEAU_exception@@@Z@__crt_state_management@@QEAAAEAP6AHPEAU_exception@@@ZXZ 0000000140018c10 f i libucrtd:matherr.obj
 0001:00017c10       ?value@?$dual_state_global@P6AH_K@Z@__crt_state_management@@QEAAAEAP6AH_K@ZXZ 0000000140018c10 f i libucrtd:new_handler.obj
 0001:00017c10       ?value@?$dual_state_global@P6AXH@Z@__crt_state_management@@QEAAAEAP6AXH@ZXZ 0000000140018c10 f i libucrtd:signal.obj
 0001:00017c10       ?value@?$dual_state_global@PEAE@__crt_state_management@@QEAAAEAPEAEXZ 0000000140018c10 f i libucrtd:mbctype.obj
 0001:00017c10       ?value@?$dual_state_global@PEAPEAD@__crt_state_management@@QEAAAEAPEAPEADXZ 0000000140018c10 f i libucrtd:environment_initialization.obj
 0001:00017c10       ?value@?$dual_state_global@PEAU__crt_locale_data@@@__crt_state_management@@QEAAAEAPEAU__crt_locale_data@@XZ 0000000140018c10 f i libucrtd:wsetlocale.obj
 0001:00017c10       ?value@?$dual_state_global@PEAU__crt_multibyte_data@@@__crt_state_management@@QEAAAEAPEAU__crt_multibyte_data@@XZ 0000000140018c10 f i libucrtd:locale_update.obj
 0001:00017c30       __acrt_has_user_matherr    0000000140018c30 f   libucrtd:matherr.obj
 0001:00017c70       __acrt_initialize_user_matherr 0000000140018c70 f   libucrtd:matherr.obj
 0001:00017c90       __acrt_invoke_user_matherr 0000000140018c90 f   libucrtd:matherr.obj
 0001:00017d00       __setusermatherr           0000000140018d00 f   libucrtd:matherr.obj
 0001:00017d40       ??$?RE@__crt_internal_free_policy@@QEBAXQEBE@Z 0000000140018d40 f i libucrtd:argv_parsing.obj
 0001:00017d40       ??$?RP6AXXZ@__crt_internal_free_policy@@QEBAXQEBQ6AXXZ@Z 0000000140018d40 f i libucrtd:onexit.obj
 0001:00017d40       ??$?RPEAD@__crt_internal_free_policy@@QEBAXQEBQEAD@Z 0000000140018d40 f i libucrtd:argv_parsing.obj
 0001:00017d40       ??$?RPEAU__crt_stdio_stream_data@@@__crt_internal_free_policy@@QEBAXQEBQEAU__crt_stdio_stream_data@@@Z 0000000140018d40 f i libucrtd:_file.obj
 0001:00017d40       ??$?RU__acrt_ptd@@@__crt_internal_free_policy@@QEBAXQEBU__acrt_ptd@@@Z 0000000140018d40 f i libucrtd:per_thread_data.obj
 0001:00017d40       ??$?RU__crt_lowio_handle_data@@@__crt_internal_free_policy@@QEBAXQEBU__crt_lowio_handle_data@@@Z 0000000140018d40 f i libucrtd:osfinfo.obj
 0001:00017d40       ??$?RU__crt_multibyte_data@@@__crt_internal_free_policy@@QEBAXQEBU__crt_multibyte_data@@@Z 0000000140018d40 f i libucrtd:wsetlocale.obj
 0001:00018100       ??$get_module_file_name@$$TAEAY0BAF@DH@?$__crt_char_traits@D@@SAK$$QEA$$TAEAY0BAF@D$$QEAH@Z 0000000140019100 f i libucrtd:argv_parsing.obj
 0001:00018100       ??$get_module_file_name@AEAPEAUHINSTANCE__@@AEAY0BAF@DK@?$__crt_char_traits@D@@SAKAEAPEAUHINSTANCE__@@AEAY0BAF@D$$QEAK@Z 0000000140019100 f i libucrtd:dbgrpt.obj
 0001:00018610       ??$set_program_name@PEAD@?$__crt_char_traits@D@@SAX$$QEAPEAD@Z 0000000140019610 f i libucrtd:argv_parsing.obj
 0001:00018630       ??1?$__crt_unique_heap_ptr@EU__crt_internal_free_policy@@@@QEAA@XZ 0000000140019630 f i libucrtd:argv_parsing.obj
 0001:00018630       ??1?$__crt_unique_heap_ptr@P6AXXZU__crt_internal_free_policy@@@@QEAA@XZ 0000000140019630 f i libucrtd:onexit.obj
 0001:00018630       ??1?$__crt_unique_heap_ptr@PEADU__crt_internal_free_policy@@@@QEAA@XZ 0000000140019630 f i libucrtd:argv_parsing.obj
 0001:00018630       ??1?$__crt_unique_heap_ptr@PEAU__crt_stdio_stream_data@@U__crt_internal_free_policy@@@@QEAA@XZ 0000000140019630 f i libucrtd:_file.obj
 0001:00018630       ??1?$__crt_unique_heap_ptr@U__acrt_ptd@@U__crt_internal_free_policy@@@@QEAA@XZ 0000000140019630 f i libucrtd:per_thread_data.obj
 0001:00018630       ??1?$__crt_unique_heap_ptr@U__crt_lowio_handle_data@@U__crt_internal_free_policy@@@@QEAA@XZ 0000000140019630 f i libucrtd:osfinfo.obj
 0001:00018630       ??1?$__crt_unique_heap_ptr@U__crt_multibyte_data@@U__crt_internal_free_policy@@@@QEAA@XZ 0000000140019630 f i libucrtd:wsetlocale.obj
 0001:00018700       ?dangerous_get_state_array@?$dual_state_global@H@__crt_state_management@@QEAAPEAHXZ 0000000140019700 f i libucrtd:txtmode.obj
 0001:00018700       ?dangerous_get_state_array@?$dual_state_global@P6AXPEB_W00I_K@Z@__crt_state_management@@QEAAPEAP6AXPEB_W00I_K@ZXZ 0000000140019700 f i libucrtd:invalid_parameter.obj
 0001:00018700       ?dangerous_get_state_array@?$dual_state_global@PEAE@__crt_state_management@@QEAAPEAPEAEXZ 0000000140019700 f i libucrtd:mbctype.obj
 0001:00018700       ?dangerous_get_state_array@?$dual_state_global@PEAU__crt_locale_data@@@__crt_state_management@@QEAAPEAPEAU__crt_locale_data@@XZ 0000000140019700 f i libucrtd:per_thread_data.obj
 0001:00018700       ?dangerous_get_state_array@?$dual_state_global@PEAU__crt_multibyte_data@@@__crt_state_management@@QEAAPEAPEAU__crt_multibyte_data@@XZ 0000000140019700 f i libucrtd:mbctype.obj
 0001:00018700       ?debug_info@?$__crt_win32_buffer@DU__crt_win32_buffer_internal_dynamic_resizing@@@@QEBAAEBV__crt_win32_buffer_empty_debug_info@@XZ 0000000140019700 f i libucrtd:argv_wildcards.obj
 0001:00018700       ?debug_info@?$__crt_win32_buffer@DU__crt_win32_buffer_no_resizing@@@@QEBAAEBV__crt_win32_buffer_empty_debug_info@@XZ 0000000140019700 f i libucrtd:getmodulefilenamea.obj
 0001:00018700       ?debug_info@?$__crt_win32_buffer@_WU__crt_win32_buffer_internal_dynamic_resizing@@@@QEBAAEBV__crt_win32_buffer_empty_debug_info@@XZ 0000000140019700 f i libucrtd:argv_wildcards.obj
 0001:00018700       ?get_address_of@?$__crt_unique_handle_t@U__crt_hmodule_traits@@@@QEAAPEAPEAUHINSTANCE__@@XZ 0000000140019700 f i libucrtd:exit.obj
 0001:00018700       ?get_address_of@?$__crt_unique_heap_ptr@PEADU__crt_internal_free_policy@@@@QEAAPEAPEAPEADXZ 0000000140019700 f i libucrtd:argv_parsing.obj
 0001:00018730       ?release@?$__crt_unique_heap_ptr@EU__crt_internal_free_policy@@@@QEAAXXZ 0000000140019730 f i libucrtd:argv_parsing.obj
 0001:00018730       ?release@?$__crt_unique_heap_ptr@P6AXXZU__crt_internal_free_policy@@@@QEAAXXZ 0000000140019730 f i libucrtd:onexit.obj
 0001:00018730       ?release@?$__crt_unique_heap_ptr@PEADU__crt_internal_free_policy@@@@QEAAXXZ 0000000140019730 f i libucrtd:argv_parsing.obj
 0001:00018730       ?release@?$__crt_unique_heap_ptr@PEAU__crt_stdio_stream_data@@U__crt_internal_free_policy@@@@QEAAXXZ 0000000140019730 f i libucrtd:_file.obj
 0001:00018730       ?release@?$__crt_unique_heap_ptr@U__acrt_ptd@@U__crt_internal_free_policy@@@@QEAAXXZ 0000000140019730 f i libucrtd:per_thread_data.obj
 0001:00018730       ?release@?$__crt_unique_heap_ptr@U__crt_lowio_handle_data@@U__crt_internal_free_policy@@@@QEAAXXZ 0000000140019730 f i libucrtd:osfinfo.obj
 0001:00018730       ?release@?$__crt_unique_heap_ptr@U__crt_multibyte_data@@U__crt_internal_free_policy@@@@QEAAXXZ 0000000140019730 f i libucrtd:wsetlocale.obj
 0001:000187a0       __acrt_allocate_buffer_for_argv 00000001400197a0 f   libucrtd:argv_parsing.obj
 0001:000188c0       _configure_narrow_argv     00000001400198c0 f   libucrtd:argv_parsing.obj
 0001:000188e0       _set_pgmptr                00000001400198e0 f i libucrtd:argv_parsing.obj
 0001:00018d10       ??$get_environment_from_os@$$V@?$__crt_char_traits@D@@SAPEADXZ 0000000140019d10 f i libucrtd:environment_initialization.obj
 0001:00018d20       ??$tcscpy_s@PEADAEB_KAEAPEAD@?$__crt_char_traits@D@@SAH$$QEAPEADAEB_KAEAPEAD@Z 0000000140019d20 f i libucrtd:environment_initialization.obj
 0001:00018d60       ??$tcslen@AEAPEAD@?$__crt_char_traits@D@@SA_KAEAPEAD@Z 0000000140019d60 f i libucrtd:environment_initialization.obj
 0001:00018d60       ??$tcslen@AEBQEBD@?$__crt_char_traits@D@@SA_KAEBQEBD@Z 0000000140019d60 f i libucrtd:dbgrpt.obj
 0001:00018d80       ??$uninitialize@A6AXAEAPEAPEAD@_E@?$dual_state_global@PEAPEAD@__crt_state_management@@QEAAXA6AXAEAPEAPEAD@_E@Z 0000000140019d80 f i libucrtd:environment_initialization.obj
 0001:00018e00       ??$uninitialize@A6AXAEAPEAPEA_W@_E@?$dual_state_global@PEAPEA_W@__crt_state_management@@QEAAXA6AXAEAPEAPEA_W@_E@Z 0000000140019e00 f i libucrtd:environment_initialization.obj
 0001:00018f50       __dcrt_uninitialize_environments_nolock 0000000140019f50 f   libucrtd:environment_initialization.obj
 0001:00018fa0       _initialize_narrow_environment 0000000140019fa0 f   libucrtd:environment_initialization.obj
 0001:000190f0       _get_narrow_winmain_command_line 000000014001a0f0 f   libucrtd:argv_winmain.obj
 0001:00019100       _initterm                  000000014001a100 f   libucrtd:initterm.obj
 0001:00019170       _initterm_e                000000014001a170 f   libucrtd:initterm.obj
 0001:000191f0       ??$?B$$A6AXH@Z@__crt_fast_encoded_nullptr_t@@QEBAP6AXH@ZXZ 000000014001a1f0 f i libucrtd:signal.obj
 0001:000191f0       ??$?B$$A6AXPEAXK0@Z@__crt_fast_encoded_nullptr_t@@QEBAP6AXPEAXK0@ZXZ 000000014001a1f0 f i libucrtd:exit.obj
 0001:000191f0       ??$?B$$A6AXXZ@__crt_fast_encoded_nullptr_t@@QEBAP6AXXZXZ 000000014001a1f0 f i libucrtd:onexit.obj
 0001:000191f0       ??$?BP6AXXZ@__crt_fast_encoded_nullptr_t@@QEBAPEAP6AXXZXZ 000000014001a1f0 f i libucrtd:onexit.obj
 0001:000191f0       ??$?BX@__crt_fast_encoded_nullptr_t@@QEBAPEAXXZ 000000014001a1f0 f i libucrtd:initialization.obj
 0001:000192b0       ??$__crt_get_proc_address@P6AXI@Z@@YAP6AXI@ZQEAUHINSTANCE__@@QEBD@Z 000000014001a2b0 f i libucrtd:exit.obj
 0001:00019350       ??1?$__crt_unique_handle_t@U__crt_hmodule_traits@@@@QEAA@XZ 000000014001a350 f i libucrtd:exit.obj
 0001:000194d0       ?__acrt_select_exit_lock@@YA?AW4__acrt_lock_id@@XZ 000000014001a4d0 f i libucrtd:exit.obj
 0001:000194e0       ?__crt_fast_encode_pointer@@YA?AU__crt_fast_encoded_nullptr_t@@$$T@Z 000000014001a4e0 f i libucrtd:exit.obj
 0001:00019520       ?close@?$__crt_unique_handle_t@U__crt_hmodule_traits@@@@QEAAXXZ 000000014001a520 f i libucrtd:exit.obj
 0001:00019560       ?close@__crt_hmodule_traits@@SA_NPEAUHINSTANCE__@@@Z 000000014001a560 f i libucrtd:exit.obj
 0001:00019850       __acrt_initialize_thread_local_exit_callback 000000014001a850 f   libucrtd:exit.obj
 0001:00019870       _c_exit                    000000014001a870 f   libucrtd:exit.obj
 0001:00019890       _cexit                     000000014001a890 f   libucrtd:exit.obj
 0001:000198b0       _exit                      000000014001a8b0 f   libucrtd:exit.obj
 0001:000198d0       _register_thread_local_exe_atexit_callback 000000014001a8d0 f   libucrtd:exit.obj
 0001:00019920       exit                       000000014001a920 f   libucrtd:exit.obj
 0001:00019940       ?value@?$dual_state_global@H@__crt_state_management@@QEAAAEAHXZ 000000014001a940 f i libucrtd:setmode.obj
 0001:00019940       ?value@?$dual_state_global@J@__crt_state_management@@QEAAAEAJXZ 000000014001a940 f i libucrtd:new_mode.obj
 0001:00019960       _set_fmode                 000000014001a960 f   libucrtd:setmode.obj
 0001:00019bc0       __acrt_set_locale_changed  000000014001abc0 f   libucrtd:wsetlocale.obj
 0001:00019bd0       __acrt_uninitialize_locale 000000014001abd0 f   libucrtd:wsetlocale.obj
 0001:00019c00       __ascii_tolower            000000014001ac00 f i libucrtd:wsetlocale.obj
 0001:00019c20       __ascii_towlower           000000014001ac20 f i libucrtd:wsetlocale.obj
 0001:00019c40       _configthreadlocale        000000014001ac40 f   libucrtd:wsetlocale.obj
 0001:00019da0       _query_new_mode            000000014001ada0 f   libucrtd:new_mode.obj
 0001:00019dc0       _set_new_mode              000000014001adc0 f   libucrtd:new_mode.obj
 0001:00019e90       __p__commode               000000014001ae90 f   libucrtd:ncommode.obj
 0001:0001a570       _crt_atexit                000000014001b570 f   libucrtd:onexit.obj
 0001:0001a590       _execute_onexit_table      000000014001b590 f   libucrtd:onexit.obj
 0001:0001a5d0       _initialize_onexit_table   000000014001b5d0 f   libucrtd:onexit.obj
 0001:0001a650       _register_onexit_function  000000014001b650 f   libucrtd:onexit.obj
 0001:0001a6f0       __acrt_uninitialize_command_line 000000014001b6f0 f   libucrtd:argv_data.obj
 0001:0001a960       __acrt_initialize          000000014001b960 f   libucrtd:initialization.obj
 0001:0001a990       __acrt_uninitialize        000000014001b990 f   libucrtd:initialization.obj
 0001:0001a9c0       terminate                  000000014001b9c0 f   libucrtd:terminate.obj
 0001:0001aa10       ??0_LocaleUpdate@@QEAA@QEAU__crt_locale_pointers@@@Z 000000014001ba10 f i libucrtd:debug_heap.obj
 0001:0001ab30       ??1_LocaleUpdate@@QEAA@XZ  000000014001bb30 f i libucrtd:debug_heap.obj
 0001:0001ab60       ?GetLocaleT@_LocaleUpdate@@QEAAPEAU__crt_locale_pointers@@XZ 000000014001bb60 f i libucrtd:debug_heap.obj
 0001:0001cf10       _CrtCheckMemory            000000014001df10 f   libucrtd:debug_heap.obj
 0001:0001d0a0       _CrtDumpMemoryLeaks        000000014001e0a0 f   libucrtd:debug_heap.obj
 0001:0001d160       _CrtIsValidHeapPointer     000000014001e160 f   libucrtd:debug_heap.obj
 0001:0001d1b0       _CrtIsValidPointer         000000014001e1b0 f   libucrtd:debug_heap.obj
 0001:0001d1f0       _CrtMemCheckpoint          000000014001e1f0 f   libucrtd:debug_heap.obj
 0001:0001d470       _CrtMemDumpAllObjectsSince 000000014001e470 f   libucrtd:debug_heap.obj
 0001:0001d4d0       _CrtSetDbgFlag             000000014001e4d0 f   libucrtd:debug_heap.obj
 0001:0001d630       _CrtSetDumpClient          000000014001e630 f   libucrtd:debug_heap.obj
 0001:0001d660       __acrt_get_locale_data_prefix 000000014001e660 f i libucrtd:debug_heap.obj
 0001:0001d680       _calloc_dbg                000000014001e680 f   libucrtd:debug_heap.obj
 0001:0001d720       _chvalidchk_l              000000014001e720 f i libucrtd:debug_heap.obj
 0001:0001d750       _free_dbg                  000000014001e750 f   libucrtd:debug_heap.obj
 0001:0001d7c0       _invoke_watson_if_oneof    000000014001e7c0 f i libucrtd:debug_heap.obj
 0001:0001d820       _ischartype_l              000000014001e820 f i libucrtd:debug_heap.obj
 0001:0001d8b0       _malloc_dbg                000000014001e8b0 f   libucrtd:debug_heap.obj
 0001:0001d8f0       _msize_dbg                 000000014001e8f0 f   libucrtd:debug_heap.obj
 0001:0001da90       _realloc_dbg               000000014001ea90 f   libucrtd:debug_heap.obj
 0001:0001db00       _recalloc_dbg              000000014001eb00 f   libucrtd:debug_heap.obj
 0001:0001e0e0       strcpy_s                   000000014001f0e0 f   libucrtd:strcpy_s.obj
 0001:0001e120       strcmp                     000000014001f120 f   libucrtd:strcmp.obj
 0001:0001e1a0       strlen                     000000014001f1a0 f   libucrtd:strlen.obj
 0001:0001e250       abort                      000000014001f250 f   libucrtd:abort.obj
 0001:0001e2d0       ??$initialize_from_array@$$BY00Q6AXPEB_W00I_K@Z@?$dual_state_global@P6AXPEB_W00I_K@Z@__crt_state_management@@QEAAXAEAY00Q6AXPEB_W00I_K@Z@Z 000000014001f2d0 f i libucrtd:invalid_parameter.obj
 0001:0001e3d0       ?check_synchronize_global_state_index@__crt_cached_ptd_host@@AEAA_KXZ 000000014001f3d0 f i libucrtd:invalid_parameter.obj
 0001:0001e430       ?get_current_global_state_index@__crt_cached_ptd_host@@QEAA_KXZ 000000014001f430 f i libucrtd:invalid_parameter.obj
 0001:0001e450       ?get_raw_ptd_noexit@__crt_cached_ptd_host@@QEAAPEAU__acrt_ptd@@XZ 000000014001f450 f i libucrtd:invalid_parameter.obj
 0001:0001e470       ?try_synchronize_per_thread_data@__crt_cached_ptd_host@@AEAAPEAU__acrt_ptd@@XZ 000000014001f470 f i libucrtd:invalid_parameter.obj
 0001:0001e4a0       ?value@?$dual_state_global@P6AXPEB_W00I_K@Z@__crt_state_management@@QEAAAEAP6AXPEB_W00I_K@ZAEAV__crt_cached_ptd_host@@@Z 000000014001f4a0 f i libucrtd:invalid_parameter.obj
 0001:0001e4d0       __acrt_call_reportfault    000000014001f4d0 f   libucrtd:invalid_parameter.obj
 0001:0001e600       __acrt_initialize_invalid_parameter_handler 000000014001f600 f   libucrtd:invalid_parameter.obj
 0001:0001e630       _invalid_parameter         000000014001f630 f   libucrtd:invalid_parameter.obj
 0001:0001e6a0       _invalid_parameter_internal 000000014001f6a0 f   libucrtd:invalid_parameter.obj
 0001:0001e7f0       _invalid_parameter_noinfo  000000014001f7f0 f   libucrtd:invalid_parameter.obj
 0001:0001e820       _invoke_watson             000000014001f820 f   libucrtd:invalid_parameter.obj
 0001:0001f630       ??$get_module_file_name@AEAPEAUHINSTANCE__@@AEAY0BAF@_WK@?$__crt_char_traits@_W@@SAKAEAPEAUHINSTANCE__@@AEAY0BAF@_W$$QEAK@Z 0000000140020630 f i libucrtd:dbgrpt.obj
 0001:0001f670       ??$tcscpy_s@AEAY0BAF@D_KPEBD@?$__crt_char_traits@D@@SAHAEAY0BAF@D$$QEA_K$$QEAPEBD@Z 0000000140020670 f i libucrtd:dbgrpt.obj
 0001:0001f6b0       ??$tcscpy_s@AEAY0BAF@_W_KPEB_W@?$__crt_char_traits@_W@@SAHAEAY0BAF@_W$$QEA_K$$QEAPEB_W@Z 00000001400206b0 f i libucrtd:dbgrpt.obj
 0001:0001f6f0       ??$tcslen@AEAY0BAF@D@?$__crt_char_traits@D@@SA_KAEAY0BAF@D@Z 00000001400206f0 f i libucrtd:dbgrpt.obj
 0001:0001f710       ??$tcslen@AEAY0BAF@_W@?$__crt_char_traits@_W@@SA_KAEAY0BAF@_W@Z 0000000140020710 f i libucrtd:dbgrpt.obj
 0001:0001f730       ??$tcslen@AEBQEB_W@?$__crt_char_traits@_W@@SA_KAEBQEB_W@Z 0000000140020730 f i libucrtd:dbgrpt.obj
 0001:0001f790       _CrtDbgReport              0000000140020790 f   libucrtd:dbgrpt.obj
 0001:0001f810       _CrtDbgReportW             0000000140020810 f   libucrtd:dbgrpt.obj
 0001:0001f890       __acrt_MessageWindowA      0000000140020890 f   libucrtd:dbgrpt.obj
 0001:0001f8e0       __acrt_MessageWindowW      00000001400208e0 f   libucrtd:dbgrpt.obj
 0001:0001f930       _snwprintf_s               0000000140020930 f i libucrtd:dbgrpt.obj
 0001:0001f9a0       _vsnwprintf_s_l            00000001400209a0 f i libucrtd:dbgrpt.obj
 0001:0001fa30       strncmp                    0000000140020a30 f   libucrtd:strncmp.obj
 0001:0001fab0       wcsncmp                    0000000140020ab0 f   libucrtd:wcsncmp.obj
 0001:0001fb40       free                       0000000140020b40 f   libucrtd:free.obj
 0001:0001fb70       malloc                     0000000140020b70 f   libucrtd:malloc.obj
 0001:0001fba0       _CrtGetDebugFillThreshold  0000000140020ba0 f   libucrtd:debug_fill_threshold.obj
 0001:0001fbb0       ?get_doserrno@__crt_cached_ptd_host@@QEAAAEAU?$cached@K@1@XZ 0000000140020bb0 f i libucrtd:errno.obj
 0001:0001fbc0       __acrt_errno_from_os_error 0000000140020bc0 f   libucrtd:errno.obj
 0001:0001fc50       __acrt_errno_map_os_error  0000000140020c50 f   libucrtd:errno.obj
 0001:0001fc80       __acrt_errno_map_os_error_ptd 0000000140020c80 f   libucrtd:errno.obj
 0001:0001fce0       __doserrno                 0000000140020ce0 f   libucrtd:errno.obj
 0001:0001fd10       _errno                     0000000140020d10 f   libucrtd:errno.obj
 0001:000210a0       ??1?$__crt_simd_cleanup_guard@$00@@QEAA@XZ 00000001400220a0 f i libucrtd:strnlen.obj
 0001:000210b0       ?compare_equals@?$__crt_simd_traits@$00E@@SA?AT__m256i@@T2@0@Z 00000001400220b0 f i libucrtd:strnlen.obj
 0001:000210f0       ?compare_equals@?$__crt_simd_traits@$00G@@SA?AT__m256i@@T2@0@Z 00000001400220f0 f i libucrtd:strnlen.obj
 0001:00021130       ?compare_equals@?$__crt_simd_traits@$0A@E@@SA?AT__m128i@@T2@0@Z 0000000140022130 f i libucrtd:strnlen.obj
 0001:00021160       ?compare_equals@?$__crt_simd_traits@$0A@G@@SA?AT__m128i@@T2@0@Z 0000000140022160 f i libucrtd:strnlen.obj
 0001:00021190       ?compute_byte_mask@?$__crt_simd_pack_traits@$00@@SAHT__m256i@@@Z 0000000140022190 f i libucrtd:strnlen.obj
 0001:000211b0       ?compute_byte_mask@?$__crt_simd_pack_traits@$0A@@@SAHT__m128i@@@Z 00000001400221b0 f i libucrtd:strnlen.obj
 0001:000211d0       ?get_zero_pack@?$__crt_simd_pack_traits@$00@@SA?AT__m256i@@XZ 00000001400221d0 f i libucrtd:strnlen.obj
 0001:00021200       ?get_zero_pack@?$__crt_simd_pack_traits@$0A@@@SA?AT__m128i@@XZ 0000000140022200 f i libucrtd:strnlen.obj
 0001:00021220       strnlen                    0000000140022220 f   libucrtd:strnlen.obj
 0001:00021250       wcslen                     0000000140022250 f   libucrtd:strnlen.obj
 0001:00021270       wcsnlen                    0000000140022270 f   libucrtd:strnlen.obj
 0001:000212a0       ?value_explicit@?$dual_state_global@PEAU__crt_locale_data@@@__crt_state_management@@QEAAAEAPEAU__crt_locale_data@@_K@Z 00000001400222a0 f i libucrtd:locale_update.obj
 0001:000212a0       ?value_explicit@?$dual_state_global@PEAU__crt_multibyte_data@@@__crt_state_management@@QEAAAEAPEAU__crt_multibyte_data@@_K@Z 00000001400222a0 f i libucrtd:locale_update.obj
 0001:000212c0       __acrt_should_sync_with_global_locale 00000001400222c0 f i libucrtd:locale_update.obj
 0001:00021300       __acrt_update_locale_info  0000000140022300 f   libucrtd:locale_update.obj
 0001:00021350       __acrt_update_locale_info_explicit 0000000140022350 f   libucrtd:locale_update.obj
 0001:000213b0       __acrt_update_multibyte_info 00000001400223b0 f   libucrtd:locale_update.obj
 0001:00021400       __acrt_update_multibyte_info_explicit 0000000140022400 f   libucrtd:locale_update.obj
 0001:00021460       ?__acrt_fp_classify@@YA?AW4__acrt_fp_class@@AEBN@Z 0000000140022460 f i libucrtd:cvt.obj
 0001:00021560       ?__acrt_fp_is_negative@@YA_NAEBN@Z 0000000140022560 f i libucrtd:cvt.obj
 0001:00022e80       ?strrchr@@YAPEADQEADH@Z    0000000140023e80 f i libucrtd:cvt.obj
 0001:00022ea0       __acrt_fp_format           0000000140023ea0 f   libucrtd:cvt.obj
 0001:00023560       ?value_or@?$cached@H@__crt_cached_ptd_host@@QEBAHH@Z 0000000140024560 f i libucrtd:wctomb.obj
 0001:00023590       _wctomb_internal           0000000140024590 f   libucrtd:wctomb.obj
 0001:00023af0       _isleadbyte_fast_internal  0000000140024af0 f i libucrtd:mbtowc.obj
 0001:00023b20       _mbtowc_internal           0000000140024b20 f   libucrtd:mbtowc.obj
 0001:00023eb0       ?lowio_handle@__crt_stdio_stream@@QEBAHXZ 0000000140024eb0 f i libucrtd:fileno.obj
 0001:00023ee0       _fileno                    0000000140024ee0 f   libucrtd:fileno.obj
 0001:00023fc0       __acrt_initialize_stdio    0000000140024fc0 f   libucrtd:_file.obj
 0001:000241b0       __acrt_uninitialize_stdio  00000001400251b0 f   libucrtd:_file.obj
 0001:00024240       _lock_file                 0000000140025240 f   libucrtd:_file.obj
 0001:00024280       _unlock_file               0000000140025280 f   libucrtd:_file.obj
 0001:000242c0       _get_printf_count_output   00000001400252c0 f   libucrtd:printf_count_output.obj
 0001:000242f0       ?has_any_of@__crt_stdio_stream@@QEBA_NJ@Z 00000001400252f0 f i libucrtd:_sftbuf.obj
 0001:00024330       ?set_flags@__crt_stdio_stream@@QEBA_NJ@Z 0000000140025330 f i libucrtd:_sftbuf.obj
 0001:000243a0       ?unset_flags@__crt_stdio_stream@@QEBA_NJ@Z 00000001400253a0 f i libucrtd:_sftbuf.obj
 0001:00024d40       __acrt_getptd              0000000140025d40 f   libucrtd:per_thread_data.obj
 0001:00024d70       __acrt_getptd_head         0000000140025d70 f   libucrtd:per_thread_data.obj
 0001:00024da0       __acrt_getptd_noexit       0000000140025da0 f   libucrtd:per_thread_data.obj
 0001:00024db0       __acrt_getptd_noexit_explicit 0000000140025db0 f   libucrtd:per_thread_data.obj
 0001:00024de0       __acrt_initialize_ptd      0000000140025de0 f   libucrtd:per_thread_data.obj
 0001:00024e20       __acrt_uninitialize_ptd    0000000140025e20 f   libucrtd:per_thread_data.obj
 0001:000251f0       __acrt_initialize_lowio    00000001400261f0 f   libucrtd:ioinit.obj
 0001:00025240       __acrt_uninitialize_lowio  0000000140026240 f   libucrtd:ioinit.obj
 0001:000252c0       _set_error_mode            00000001400262c0 f   libucrtd:set_error_mode.obj
 0001:00025a50       wcscat_s                   0000000140026a50 f   libucrtd:wcscat_s.obj
 0001:00025f80       wcscpy_s                   0000000140026f80 f   libucrtd:wcscpy_s.obj
 0001:00026660       wcsncpy_s                  0000000140027660 f   libucrtd:wcsncpy_s.obj
 0001:000267e0       ??$message_box@$$TAEBQEB_WAEBQEB_WK@?$__crt_char_traits@_W@@SAH$$QEA$$TAEBQEB_W1$$QEAK@Z 00000001400277e0 f i libucrtd:crtmbox.obj
 0001:000267e0       ??$message_box@PEAUHWND__@@AEBQEB_WAEBQEB_WAEBI@?$__crt_char_traits@_W@@SAH$$QEAPEAUHWND__@@AEBQEB_W1AEBI@Z 00000001400277e0 f i libucrtd:crtmbox.obj
 0001:00026830       ??$output_debug_string@AEBQEB_W@?$__crt_char_traits@_W@@SAXAEBQEB_W@Z 0000000140027830 f i libucrtd:crtmbox.obj
 0001:00026850       __acrt_show_wide_message_box 0000000140027850 f   libucrtd:crtmbox.obj
 0001:000268b0       ??$__acrt_convert_wcs_mbs_cp@D_WV<lambda_7c9dea7b4ca7285d2cdb541a38da6275>@@U__crt_win32_buffer_internal_dynamic_resizing@@@@YAHQEBDAEAV?$__crt_win32_buffer@_WU__crt_win32_buffer_internal_dynamic_resizing@@@@AEBV<lambda_7c9dea7b4ca7285d2cdb541a38da6275>@@I@Z 00000001400278b0 f i libucrtd:argv_wildcards.obj
 0001:00026a60       ??$__acrt_convert_wcs_mbs_cp@_WDV<lambda_d8593a27d1aa8c02be35c86a17d324c4>@@U__crt_win32_buffer_internal_dynamic_resizing@@@@YAHQEB_WAEAV?$__crt_win32_buffer@DU__crt_win32_buffer_internal_dynamic_resizing@@@@AEBV<lambda_d8593a27d1aa8c02be35c86a17d324c4>@@I@Z 0000000140027a60 f i libucrtd:argv_wildcards.obj
 0001:00026c10       ??$__acrt_mbs_to_wcs_cp@U__crt_win32_buffer_internal_dynamic_resizing@@@@YAHQEBDAEAV?$__crt_win32_buffer@_WU__crt_win32_buffer_internal_dynamic_resizing@@@@I@Z 0000000140027c10 f i libucrtd:argv_wildcards.obj
 0001:00026c60       ??$__acrt_wcs_to_mbs_cp@U__crt_win32_buffer_internal_dynamic_resizing@@@@YAHQEB_WAEAV?$__crt_win32_buffer@DU__crt_win32_buffer_internal_dynamic_resizing@@@@I@Z 0000000140027c60 f i libucrtd:argv_wildcards.obj
 0001:000276a0       ??$tcsncpy_s@AEAPEAD_KAEAPEADAEB_K@?$__crt_char_traits@D@@SAHAEAPEAD$$QEA_K0AEB_K@Z 00000001400286a0 f i libucrtd:argv_wildcards.obj
 0001:000276a0       ??$tcsncpy_s@PEADAEB_KAEBQEBDAEB_K@?$__crt_char_traits@D@@SAH$$QEAPEADAEB_KAEBQEBD1@Z 00000001400286a0 f i libucrtd:argv_wildcards.obj
 0001:000276a0       ??$tcsncpy_s@PEAD_KAEBQEBDAEB_K@?$__crt_char_traits@D@@SAH$$QEAPEAD$$QEA_KAEBQEBDAEB_K@Z 00000001400286a0 f i libucrtd:argv_wildcards.obj
 0001:000276f0       ??$tcspbrk@AEAPEADAEAY02$$CBD@?$__crt_char_traits@D@@SAPEADAEAPEADAEAY02$$CBD@Z 00000001400286f0 f i libucrtd:argv_wildcards.obj
 0001:00027720       ??0?$__crt_win32_buffer@DU__crt_win32_buffer_internal_dynamic_resizing@@@@QEAA@XZ 0000000140028720 f i libucrtd:argv_wildcards.obj
 0001:00027720       ??0?$__crt_win32_buffer@_WU__crt_win32_buffer_internal_dynamic_resizing@@@@QEAA@XZ 0000000140028720 f i libucrtd:argv_wildcards.obj
 0001:000277c0       ??1?$__crt_unique_handle_t@U__crt_findfile_traits@@@@QEAA@XZ 00000001400287c0 f i libucrtd:argv_wildcards.obj
 0001:000277e0       ??1?$__crt_win32_buffer@DU__crt_win32_buffer_internal_dynamic_resizing@@@@QEAA@XZ 00000001400287e0 f i libucrtd:argv_wildcards.obj
 0001:000277e0       ??1?$__crt_win32_buffer@_WU__crt_win32_buffer_internal_dynamic_resizing@@@@QEAA@XZ 00000001400287e0 f i libucrtd:argv_wildcards.obj
 0001:00027890       ??R<lambda_7c9dea7b4ca7285d2cdb541a38da6275>@@QEBAHIQEBDQEA_W_K@Z 0000000140028890 f i libucrtd:argv_wildcards.obj
 0001:00027970       ??R<lambda_d8593a27d1aa8c02be35c86a17d324c4>@@QEBAHIQEB_WQEAD_K@Z 0000000140028970 f i libucrtd:argv_wildcards.obj
 0001:00027970       ??R<lambda_f788ae46380686e8b737efdd8c720d07>@@QEBAHIQEB_WQEAD_K@Z 0000000140028970 f i libucrtd:getmodulefilenamea.obj
 0001:000279d0       ?__acrt_get_utf8_acp_compatibility_codepage@@YAIXZ 00000001400289d0 f i libucrtd:argv_wildcards.obj
 0001:00027a70       ?_deallocate@?$__crt_win32_buffer@DU__crt_win32_buffer_internal_dynamic_resizing@@@@AEAAXXZ 0000000140028a70 f i libucrtd:argv_wildcards.obj
 0001:00027a70       ?_deallocate@?$__crt_win32_buffer@_WU__crt_win32_buffer_internal_dynamic_resizing@@@@AEAAXXZ 0000000140028a70 f i libucrtd:argv_wildcards.obj
 0001:00027ac0       ?allocate@?$__crt_win32_buffer@DU__crt_win32_buffer_internal_dynamic_resizing@@@@QEAAH_K@Z 0000000140028ac0 f i libucrtd:argv_wildcards.obj
 0001:00027b40       ?allocate@?$__crt_win32_buffer@_WU__crt_win32_buffer_internal_dynamic_resizing@@@@QEAAH_K@Z 0000000140028b40 f i libucrtd:argv_wildcards.obj
 0001:00027bd0       ?allocate@__crt_win32_buffer_internal_dynamic_resizing@@SAHQEAPEAX_KAEBV__crt_win32_buffer_empty_debug_info@@@Z 0000000140028bd0 f i libucrtd:argv_wildcards.obj
 0001:00027ca0       ?capacity@?$__crt_win32_buffer@DU__crt_win32_buffer_internal_dynamic_resizing@@@@QEBA_KXZ 0000000140028ca0 f i libucrtd:argv_wildcards.obj
 0001:00027ca0       ?capacity@?$__crt_win32_buffer@DU__crt_win32_buffer_no_resizing@@@@QEBA_KXZ 0000000140028ca0 f i libucrtd:getmodulefilenamea.obj
 0001:00027ca0       ?capacity@?$__crt_win32_buffer@_WU__crt_win32_buffer_internal_dynamic_resizing@@@@QEBA_KXZ 0000000140028ca0 f i libucrtd:argv_wildcards.obj
 0001:00027cb0       ?close@?$__crt_unique_handle_t@U__crt_findfile_traits@@@@QEAAXXZ 0000000140028cb0 f i libucrtd:argv_wildcards.obj
 0001:00027cf0       ?close@__crt_findfile_traits@@SA_NPEAX@Z 0000000140028cf0 f i libucrtd:argv_wildcards.obj
 0001:00027d30       ?data@?$__crt_win32_buffer@DU__crt_win32_buffer_internal_dynamic_resizing@@@@QEAAPEADXZ 0000000140028d30 f i libucrtd:argv_wildcards.obj
 0001:00027d30       ?data@?$__crt_win32_buffer@DU__crt_win32_buffer_no_resizing@@@@QEAAPEADXZ 0000000140028d30 f i libucrtd:getmodulefilenamea.obj
 0001:00027d30       ?data@?$__crt_win32_buffer@_WU__crt_win32_buffer_internal_dynamic_resizing@@@@QEAAPEA_WXZ 0000000140028d30 f i libucrtd:argv_wildcards.obj
 0001:00027d40       ?deallocate@__crt_win32_buffer_internal_dynamic_resizing@@SAXQEAXAEBV__crt_win32_buffer_empty_debug_info@@@Z 0000000140028d40 f i libucrtd:argv_wildcards.obj
 0001:00028030       ?set_to_nullptr@?$__crt_win32_buffer@DU__crt_win32_buffer_internal_dynamic_resizing@@@@QEAAXXZ 0000000140029030 f i libucrtd:argv_wildcards.obj
 0001:00028030       ?set_to_nullptr@?$__crt_win32_buffer@_WU__crt_win32_buffer_internal_dynamic_resizing@@@@QEAAXXZ 0000000140029030 f i libucrtd:argv_wildcards.obj
 0001:00028070       ?size@?$__crt_win32_buffer@DU__crt_win32_buffer_internal_dynamic_resizing@@@@QEAAX_K@Z 0000000140029070 f i libucrtd:argv_wildcards.obj
 0001:00028070       ?size@?$__crt_win32_buffer@DU__crt_win32_buffer_no_resizing@@@@QEAAX_K@Z 0000000140029070 f i libucrtd:getmodulefilenamea.obj
 0001:00028070       ?size@?$__crt_win32_buffer@_WU__crt_win32_buffer_internal_dynamic_resizing@@@@QEAAX_K@Z 0000000140029070 f i libucrtd:argv_wildcards.obj
 0001:000280b0       ?strpbrk@@YAPEADQEADQEBD@Z 00000001400290b0 f i libucrtd:argv_wildcards.obj
 0001:000280e0       __acrt_expand_narrow_argv_wildcards 00000001400290e0 f   libucrtd:argv_wildcards.obj
 0001:00028110       ??$__acrt_convert_wcs_mbs_cp@_WDV<lambda_f788ae46380686e8b737efdd8c720d07>@@U__crt_win32_buffer_no_resizing@@@@YAHQEB_WAEAV?$__crt_win32_buffer@DU__crt_win32_buffer_no_resizing@@@@AEBV<lambda_f788ae46380686e8b737efdd8c720d07>@@I@Z 0000000140029110 f i libucrtd:getmodulefilenamea.obj
 0001:000282c0       ??$__acrt_wcs_to_mbs_cp@U__crt_win32_buffer_no_resizing@@@@YAHQEB_WAEAV?$__crt_win32_buffer@DU__crt_win32_buffer_no_resizing@@@@I@Z 00000001400292c0 f i libucrtd:getmodulefilenamea.obj
 0001:00028310       ??0?$__crt_win32_buffer@DU__crt_win32_buffer_no_resizing@@@@QEAA@QEAD_K@Z 0000000140029310 f i libucrtd:getmodulefilenamea.obj
 0001:00028380       ??1?$__crt_win32_buffer@DU__crt_win32_buffer_no_resizing@@@@QEAA@XZ 0000000140029380 f i libucrtd:getmodulefilenamea.obj
 0001:000283b0       ?_deallocate@?$__crt_win32_buffer@DU__crt_win32_buffer_no_resizing@@@@AEAAXXZ 00000001400293b0 f i libucrtd:getmodulefilenamea.obj
 0001:00028400       ?allocate@?$__crt_win32_buffer@DU__crt_win32_buffer_no_resizing@@@@QEAAH_K@Z 0000000140029400 f i libucrtd:getmodulefilenamea.obj
 0001:00028480       ?allocate@__crt_win32_buffer_no_resizing@@SAHQEAPEAX_KAEBV__crt_win32_buffer_empty_debug_info@@@Z 0000000140029480 f i libucrtd:getmodulefilenamea.obj
 0001:000284b0       ?deallocate@__crt_win32_buffer_no_resizing@@SAXQEAXAEBV__crt_win32_buffer_empty_debug_info@@@Z 00000001400294b0 f i libucrtd:getmodulefilenamea.obj
 0001:000284c0       ?set_to_nullptr@?$__crt_win32_buffer@DU__crt_win32_buffer_no_resizing@@@@QEAAXXZ 00000001400294c0 f i libucrtd:getmodulefilenamea.obj
 0001:00028500       ?size@?$__crt_win32_buffer@DU__crt_win32_buffer_no_resizing@@@@QEBA_KXZ 0000000140029500 f i libucrtd:getmodulefilenamea.obj
 0001:00028510       __acrt_GetModuleFileNameA  0000000140029510 f   libucrtd:getmodulefilenamea.obj
 0001:00028690       ??$initialize_from_array@$$BY10BAA@E@?$dual_state_global@PEAE@__crt_state_management@@QEAAXAEAY10BAA@E@Z 0000000140029690 f i libucrtd:mbctype.obj
 0001:00028700       ??$initialize_from_array@$$BY10BAB@E@?$dual_state_global@PEAE@__crt_state_management@@QEAAXAEAY10BAB@E@Z 0000000140029700 f i libucrtd:mbctype.obj
 0001:000292a0       __acrt_initialize_multibyte 000000014002a2a0 f   libucrtd:mbctype.obj
 0001:00029370       __acrt_update_thread_multibyte_data 000000014002a370 f   libucrtd:mbctype.obj
 0001:000293b0       _setmbcp_nolock            000000014002a3b0 f   libucrtd:mbctype.obj
 0001:00029aa0       _ismbblead                 000000014002aaa0 f   libucrtd:ismbbyte.obj
 0001:00029ad0       __acrt_initialize_command_line 000000014002aad0 f   libucrtd:argv_data.obj
 0001:00029ba0       __acrt_MultiByteToWideChar 000000014002aba0 f   libucrtd:multibytetowidechar.obj
 0001:00029ca0       __acrt_WideCharToMultiByte 000000014002aca0 f   libucrtd:widechartomultibyte.obj
 0001:00029ee0       __dcrt_get_narrow_environment_from_os 000000014002aee0 f   libucrtd:get_environment_from_os.obj
 0001:0002a110       __acrt_initialize_locks    000000014002b110 f   libucrtd:locks.obj
 0001:0002a180       __acrt_lock                000000014002b180 f   libucrtd:locks.obj
 0001:0002a1b0       __acrt_uninitialize_locks  000000014002b1b0 f   libucrtd:locks.obj
 0001:0002a210       __acrt_unlock              000000014002b210 f   libucrtd:locks.obj
 0001:0002a520       __acrt_get_developer_information_policy 000000014002b520 f   libucrtd:win_policies.obj
 0001:0002a540       __acrt_get_process_end_policy 000000014002b540 f   libucrtd:win_policies.obj
 0001:0002a550       __acrt_get_windowing_model_policy 000000014002b550 f   libucrtd:win_policies.obj
 0001:0002a570       __acrt_lowio_create_handle_array 000000014002b570 f   libucrtd:osfinfo.obj
 0001:0002a730       __acrt_lowio_destroy_handle_array 000000014002b730 f   libucrtd:osfinfo.obj
 0001:0002a7b0       __acrt_lowio_ensure_fh_exists 000000014002b7b0 f   libucrtd:osfinfo.obj
 0001:0002a910       __acrt_lowio_lock_fh       000000014002b910 f   libucrtd:osfinfo.obj
 0001:0002a950       __acrt_lowio_unlock_fh     000000014002b950 f   libucrtd:osfinfo.obj
 0001:0002a990       _free_osfhnd               000000014002b990 f   libucrtd:osfinfo.obj
 0001:0002aac0       _get_osfhandle             000000014002bac0 f   libucrtd:osfinfo.obj
 0001:0002acc0       __acrt_initialize_fmode    000000014002bcc0 f   libucrtd:txtmode.obj
 0001:0002ad20       __acrt_locale_free_monetary 000000014002bd20 f   libucrtd:initmon.obj
 0001:0002af30       __acrt_locale_free_numeric 000000014002bf30 f   libucrtd:initnum.obj
 0001:0002b0d0       __acrt_locale_free_time    000000014002c0d0 f   libucrtd:inittime.obj
 0001:0002b240       _chvalidator_l             000000014002c240 f   libucrtd:isctype.obj
 0001:0002b2f0       _isctype_l                 000000014002c2f0 f   libucrtd:isctype.obj
 0001:0002b520       ??1?$__crt_scoped_stack_ptr@_W@@QEAA@XZ 000000014002c520 f i libucrtd:getstringtypea.obj
 0001:0002b540       _MallocaComputeSize        000000014002c540 f i libucrtd:getstringtypea.obj
 0001:0002b580       _MarkAllocaS               000000014002c580 f i libucrtd:getstringtypea.obj
 0001:0002b5b0       __acrt_GetStringTypeA      000000014002c5b0 f   libucrtd:getstringtypea.obj
 0001:0002b810       _freea_crt                 000000014002c810 f i libucrtd:getstringtypea.obj
 0001:0002b8b0       __acrt_add_locale_ref      000000014002c8b0 f   libucrtd:locale_refcounting.obj
 0001:0002ba10       __acrt_free_locale         000000014002ca10 f   libucrtd:locale_refcounting.obj
 0001:0002bd90       __acrt_locale_add_lc_time_reference 000000014002cd90 f   libucrtd:locale_refcounting.obj
 0001:0002bdd0       __acrt_locale_free_lc_time_if_unreferenced 000000014002cdd0 f   libucrtd:locale_refcounting.obj
 0001:0002be30       __acrt_locale_release_lc_time_reference 000000014002ce30 f   libucrtd:locale_refcounting.obj
 0001:0002be70       __acrt_release_locale_ref  000000014002ce70 f   libucrtd:locale_refcounting.obj
 0001:0002bfe0       __acrt_update_thread_locale_data 000000014002cfe0 f   libucrtd:locale_refcounting.obj
 0001:0002c080       _updatetlocinfoEx_nolock   000000014002d080 f   libucrtd:locale_refcounting.obj
 0001:0002c7d0       GetCurrentThreadEffectiveToken 000000014002d7d0 f i libucrtd:winapi_thunks.obj
 0001:0002c7e0       __acrt_AppPolicyGetProcessTerminationMethodInternal 000000014002d7e0 f   libucrtd:winapi_thunks.obj
 0001:0002c840       __acrt_AppPolicyGetShowDeveloperDiagnosticInternal 000000014002d840 f   libucrtd:winapi_thunks.obj
 0001:0002c8a0       __acrt_AppPolicyGetWindowingModelInternal 000000014002d8a0 f   libucrtd:winapi_thunks.obj
 0001:0002c900       __acrt_AreFileApisANSI     000000014002d900 f   libucrtd:winapi_thunks.obj
 0001:0002c950       __acrt_FlsAlloc            000000014002d950 f   libucrtd:winapi_thunks.obj
 0001:0002c970       __acrt_FlsFree             000000014002d970 f   libucrtd:winapi_thunks.obj
 0001:0002c990       __acrt_FlsGetValue         000000014002d990 f   libucrtd:winapi_thunks.obj
 0001:0002c9b0       __acrt_FlsSetValue         000000014002d9b0 f   libucrtd:winapi_thunks.obj
 0001:0002c9e0       __acrt_InitializeCriticalSectionEx 000000014002d9e0 f   libucrtd:winapi_thunks.obj
 0001:0002ca60       __acrt_LCMapStringEx       000000014002da60 f   libucrtd:winapi_thunks.obj
 0001:0002cb70       __acrt_LocaleNameToLCID    000000014002db70 f   libucrtd:winapi_thunks.obj
 0001:0002cbe0       __acrt_MessageBoxW         000000014002dbe0 f   libucrtd:winapi_thunks.obj
 0001:0002cc60       __acrt_can_show_message_box 000000014002dc60 f   libucrtd:winapi_thunks.obj
 0001:0002cca0       __acrt_get_parent_window   000000014002dca0 f   libucrtd:winapi_thunks.obj
 0001:0002cd40       __acrt_initialize_winapi_thunks 000000014002dd40 f   libucrtd:winapi_thunks.obj
 0001:0002cdc0       __acrt_is_interactive      000000014002ddc0 f   libucrtd:winapi_thunks.obj
 0001:0002ced0       __acrt_uninitialize_winapi_thunks 000000014002ded0 f   libucrtd:winapi_thunks.obj
 0001:0002cf70       __acrt_initialize_heap     000000014002df70 f   libucrtd:heap_handle.obj
 0001:0002cfa0       __acrt_uninitialize_heap   000000014002dfa0 f   libucrtd:heap_handle.obj
 0001:0002cfc0       __acrt_execute_initializers 000000014002dfc0 f   libucrtd:shared_initialization.obj
 0001:0002d0c0       __acrt_execute_uninitializers 000000014002e0c0 f   libucrtd:shared_initialization.obj
 0001:0002d150       __acrt_initialize_new_handler 000000014002e150 f   libucrtd:new_handler.obj
 0001:0002d170       _callnewh                  000000014002e170 f   libucrtd:new_handler.obj
 0001:0002d1d0       _query_new_handler         000000014002e1d0 f   libucrtd:new_handler.obj
 0001:0002d3e0       __acrt_get_sigabrt_handler 000000014002e3e0 f   libucrtd:signal.obj
 0001:0002d410       __acrt_initialize_signal_handlers 000000014002e410 f   libucrtd:signal.obj
 0001:0002d470       __fpecode                  000000014002e470 f   libucrtd:signal.obj
 0001:0002d490       raise                      000000014002e490 f   libucrtd:signal.obj
 0001:0002d990       _free_base                 000000014002e990 f   libucrtd:free_base.obj
 0001:0002d9f0       _realloc_base              000000014002e9f0 f   libucrtd:realloc_base.obj
 0001:0002db10       _expand_base               000000014002eb10 f   libucrtd:expand.obj
 0001:0002dca0       _CrtDefaultAllocHook       000000014002eca0 f   libucrtd:debug_heap_hook.obj
 0001:0002dcc0       _VCrtDbgReportA            000000014002ecc0 f   libucrtd:dbgrptt.obj
 0001:0002e700       _VCrtDbgReportW            000000014002f700 f   libucrtd:dbgrptt.obj
 0001:0002f310       _snprintf_s                0000000140030310 f i libucrtd:dbgrptt.obj
 0001:0002f380       _vsnprintf_s               0000000140030380 f i libucrtd:dbgrptt.obj
 0001:0002f3d0       _vsnprintf_s_l             00000001400303d0 f i libucrtd:dbgrptt.obj
 0001:0002f600       __acrt_fp_strflt_to_string 0000000140030600 f   libucrtd:_fptostr.obj
 0001:000301c0       ??0big_integer@__crt_strtox@@QEAA@AEBU01@@Z 00000001400311c0 f i libucrtd:cfout.obj
 0001:000301c0       ??4big_integer@__crt_strtox@@QEAAAEAU01@AEBU01@@Z 00000001400311c0 f i libucrtd:cfout.obj
 0001:00030220       ??0big_integer@__crt_strtox@@QEAA@XZ 0000000140031220 f i libucrtd:cfout.obj
 0001:000302e0       ??8__crt_strtox@@YA_NAEBUbig_integer@0@0@Z 00000001400312e0 f i libucrtd:cfout.obj
 0001:00030350       ??9__crt_strtox@@YA_NAEBUbig_integer@0@0@Z 0000000140031350 f i libucrtd:cfout.obj
 0001:00030390       ?add_carry@__crt_strtox@@YAIAEAIII@Z 0000000140031390 f i libucrtd:cfout.obj
 0001:000303e0       ?add_multiply_carry@__crt_strtox@@YAIAEAIIII@Z 00000001400313e0 f i libucrtd:cfout.obj
 0001:00030440       ?bit_scan_reverse@__crt_strtox@@YAII@Z 0000000140031440 f i libucrtd:cfout.obj
 0001:00030480       ?count_sequential_high_zeroes@__crt_strtox@@YAII@Z 0000000140031480 f i libucrtd:cfout.obj
 0001:000304c0       ?divide@__crt_strtox@@YA_KAEAUbig_integer@1@AEBU21@@Z 00000001400314c0 f i libucrtd:cfout.obj
 0001:00030e90       ?is_zero@__crt_strtox@@YA_NAEBUbig_integer@1@@Z 0000000140031e90 f i libucrtd:cfout.obj
 0001:00030ec0       ?make_big_integer@__crt_strtox@@YA?AUbig_integer@1@_K@Z 0000000140031ec0 f i libucrtd:cfout.obj
 0001:00030f90       ?make_big_integer_power_of_two@__crt_strtox@@YA?AUbig_integer@1@I@Z 0000000140031f90 f i libucrtd:cfout.obj
 0001:00031060       ?multiply@__crt_strtox@@YA_NAEAUbig_integer@1@AEBU21@@Z 0000000140032060 f i libucrtd:cfout.obj
 0001:000313e0       ?multiply@__crt_strtox@@YA_NAEAUbig_integer@1@I@Z 00000001400323e0 f i libucrtd:cfout.obj
 0001:00031500       ?multiply_64_32@__crt_strtox@@YA_K_KI@Z 0000000140032500 f i libucrtd:cfout.obj
 0001:00031520       ?multiply_by_power_of_ten@__crt_strtox@@YA_NAEAUbig_integer@1@I@Z 0000000140032520 f i libucrtd:cfout.obj
 0001:000316d0       ?multiply_core@__crt_strtox@@YAIQEAIII@Z 00000001400326d0 f i libucrtd:cfout.obj
 0001:00031750       ?shift_left@__crt_strtox@@YA_NAEAUbig_integer@1@I@Z 0000000140032750 f i libucrtd:cfout.obj
 0001:00031a30       __acrt_fltout              0000000140032a30 f   libucrtd:cfout.obj
 0001:00031df0       fegetround                 0000000140032df0 f   libucrtd:fegetround.obj
 0001:00031e10       ?__c32rtomb_utf8@__crt_mbstring@@YA_KPEAD_UPEAU_Mbstatet@@AEAV__crt_cached_ptd_host@@@Z 0000000140032e10 f   libucrtd:c32rtomb.obj
 0001:00032120       ?__mbrtowc_utf8@__crt_mbstring@@YA_KPEA_WPEBD_KPEAU_Mbstatet@@AEAV__crt_cached_ptd_host@@@Z 0000000140033120 f   libucrtd:mbrtowc.obj
 0001:000321a0       ?__mbsrtowcs_utf8@__crt_mbstring@@YA_KPEA_WPEAPEBD_KPEAU_Mbstatet@@AEAV__crt_cached_ptd_host@@@Z 00000001400331a0 f   libucrtd:mbrtowc.obj
 0001:000324f0       ?is_in_use@__crt_stdio_stream@@QEBA_NXZ 00000001400334f0 f i libucrtd:closeall.obj
 0001:00032530       _fcloseall                 0000000140033530 f   libucrtd:closeall.obj
 0001:000329e0       ?__acrt_stdio_reset_buffer@@YAXV__crt_stdio_stream@@@Z 00000001400339e0 f i libucrtd:fflush.obj
 0001:00032bb0       ?has_all_of@__crt_stdio_stream@@QEBA_NJ@Z 0000000140033bb0 f i libucrtd:fflush.obj
 0001:00032c90       __acrt_stdio_flush_nolock  0000000140033c90 f   libucrtd:fflush.obj
 0001:00032db0       _fflush_nolock             0000000140033db0 f   libucrtd:fflush.obj
 0001:00032df0       _flushall                  0000000140033df0 f   libucrtd:fflush.obj
 0001:00032e00       ?has_crt_buffer@__crt_stdio_stream@@QEBA_NXZ 0000000140033e00 f i libucrtd:_freebuf.obj
 0001:00032e20       __acrt_stdio_free_buffer_nolock 0000000140033e20 f   libucrtd:_freebuf.obj
 0001:00032f00       _isatty                    0000000140033f00 f   libucrtd:isatty.obj
 0001:00033010       __acrt_OutputDebugStringA  0000000140034010 f   libucrtd:outputdebugstringa.obj
 0001:00033260       qsort                      0000000140034260 f   libucrtd:qsort.obj
 0001:000340d0       strncpy_s                  00000001400350d0 f   libucrtd:strncpy_s.obj
 0001:00034240       strpbrk                    0000000140035240 f   libucrtd:strpbrk.obj
 0001:00034b30       _mbsdec                    0000000140035b30 f   libucrtd:mbsdec.obj
 0001:00034b60       _mbsdec_l                  0000000140035b60 f   libucrtd:mbsdec.obj
 0001:000353f0       __acrt_LCMapStringA        00000001400363f0 f   libucrtd:lcmapstringa.obj
 0001:000360c0       _itoa_s                    00000001400370c0 f   libucrtd:xtoa.obj
 0001:00036120       _itow_s                    0000000140037120 f   libucrtd:xtoa.obj
 0001:00036180       __ascii_wcsnicmp           0000000140037180 f   libucrtd:wcsnicmp.obj
 0001:00036300       __acrt_DownlevelLocaleNameToLCID 0000000140037300 f   libucrtd:lcidtoname_downlevel.obj
 0001:00036360       _malloc_base               0000000140037360 f   libucrtd:malloc_base.obj
 0001:00036f10       mbstowcs_s                 0000000140037f10 f   libucrtd:mbstowcs.obj
 0001:00037d80       wcstombs_s                 0000000140038d80 f   libucrtd:wcstombs.obj
 0001:00038470       strcat_s                   0000000140039470 f   libucrtd:strcat_s.obj
 0001:000384a0       log10                      00000001400394a0 f   libucrtd:log10.obj
 0001:00038a50       ceil                       0000000140039a50 f   libucrtd:ceil.obj
 0001:00038c20       _controlfp_s               0000000140039c20 f   libucrtd:contrlfp.obj
 0001:00038d50       fegetenv                   0000000140039d50 f   libucrtd:fegetenv.obj
 0001:00038d80       fesetenv                   0000000140039d80 f   libucrtd:fesetenv.obj
 0001:00038e00       feholdexcept               0000000140039e00 f   libucrtd:feholdexcept.obj
 0001:00038e70       ??$__acrt_fenv_shift_bits@W4__acrt_fenv_abstract_control@@@@YA?AW4__acrt_fenv_abstract_control@@W40@0I@Z 0000000140039e70 f i libucrtd:_fenvutils.obj
 0001:00038e70       ??$__acrt_fenv_shift_bits@W4__acrt_fenv_abstract_status@@@@YA?AW4__acrt_fenv_abstract_status@@W40@0I@Z 0000000140039e70 f i libucrtd:_fenvutils.obj
 0001:00038ea0       ??$__acrt_fenv_translate_bit@W4__acrt_fenv_abstract_control@@W4__acrt_fenv_machine_sse_control@@@@YA?AW4__acrt_fenv_abstract_control@@W4__acrt_fenv_machine_sse_control@@0W40@1@Z 0000000140039ea0 f i libucrtd:_fenvutils.obj
 0001:00038f00       ??$__acrt_fenv_translate_bit@W4__acrt_fenv_abstract_status@@W4__acrt_fenv_machine_sse_status@@@@YA?AW4__acrt_fenv_abstract_status@@W4__acrt_fenv_machine_sse_status@@0W40@1@Z 0000000140039f00 f i libucrtd:_fenvutils.obj
 0001:00038f00       ??$__acrt_fenv_translate_bit@W4__acrt_fenv_machine_sse_status@@W4__acrt_fenv_abstract_status@@@@YA?AW4__acrt_fenv_machine_sse_status@@W4__acrt_fenv_abstract_status@@0W40@1@Z 0000000140039f00 f i libucrtd:_fenvutils.obj
 0001:00038f50       ??$__acrt_fenv_translate_bit@W4__acrt_fenv_machine_sse_control@@W4__acrt_fenv_abstract_control@@@@YA?AW4__acrt_fenv_machine_sse_control@@W4__acrt_fenv_abstract_control@@0W40@1@Z 0000000140039f50 f i libucrtd:_fenvutils.obj
 0001:00038fb0       ??$__acrt_fenv_unshift_bits@W4__acrt_fenv_abstract_control@@@@YA?AW4__acrt_fenv_abstract_control@@W40@0I@Z 0000000140039fb0 f i libucrtd:_fenvutils.obj
 0001:00038fb0       ??$__acrt_fenv_unshift_bits@W4__acrt_fenv_abstract_status@@@@YA?AW4__acrt_fenv_abstract_status@@W40@0I@Z 0000000140039fb0 f i libucrtd:_fenvutils.obj
 0001:000394a0       ??I@YA?AW4__acrt_fenv_abstract_control@@W40@0@Z 000000014003a4a0 f i libucrtd:_fenvutils.obj
 0001:000394a0       ??I@YA?AW4__acrt_fenv_abstract_status@@W40@0@Z 000000014003a4a0 f i libucrtd:_fenvutils.obj
 0001:000394a0       ??I@YA?AW4__acrt_fenv_machine_sse_status@@W40@0@Z 000000014003a4a0 f i libucrtd:_fenvutils.obj
 0001:000394c0       ??I@YA?AW4__acrt_fenv_machine_sse_control@@W40@0@Z 000000014003a4c0 f i libucrtd:_fenvutils.obj
 0001:000394e0       ??U@YA?AW4__acrt_fenv_abstract_control@@W40@0@Z 000000014003a4e0 f i libucrtd:_fenvutils.obj
 0001:000394e0       ??U@YA?AW4__acrt_fenv_abstract_status@@W40@0@Z 000000014003a4e0 f i libucrtd:_fenvutils.obj
 0001:00039500       ??U@YA?AW4__acrt_fenv_machine_sse_control@@W40@0@Z 000000014003a500 f i libucrtd:_fenvutils.obj
 0001:00039520       ??_5@YAAEAW4__acrt_fenv_abstract_control@@AEAW40@W40@@Z 000000014003a520 f i libucrtd:_fenvutils.obj
 0001:00039520       ??_5@YAAEAW4__acrt_fenv_abstract_status@@AEAW40@W40@@Z 000000014003a520 f i libucrtd:_fenvutils.obj
 0001:00039520       ??_5@YAAEAW4__acrt_fenv_machine_sse_status@@AEAW40@W40@@Z 000000014003a520 f i libucrtd:_fenvutils.obj
 0001:00039550       ??_5@YAAEAW4__acrt_fenv_machine_sse_control@@AEAW40@W40@@Z 000000014003a550 f i libucrtd:_fenvutils.obj
 0001:00039580       ?__acrt_fenv_shift_abstract_sse_control@@YA?AW4__acrt_fenv_abstract_control@@W41@@Z 000000014003a580 f i libucrtd:_fenvutils.obj
 0001:000395d0       ?__acrt_fenv_shift_abstract_sse_status@@YA?AW4__acrt_fenv_abstract_status@@W41@@Z 000000014003a5d0 f i libucrtd:_fenvutils.obj
 0001:00039600       ?__acrt_fenv_unshift_abstract_sse_control@@YA?AW4__acrt_fenv_abstract_control@@W41@@Z 000000014003a600 f i libucrtd:_fenvutils.obj
 0001:00039650       ?__acrt_fenv_unshift_abstract_sse_status@@YA?AW4__acrt_fenv_abstract_status@@W41@@Z 000000014003a650 f i libucrtd:_fenvutils.obj
 0001:00039940       __acrt_fenv_get_common_round_control 000000014003a940 f   libucrtd:_fenvutils.obj
 0001:00039960       __acrt_fenv_get_control    000000014003a960 f   libucrtd:_fenvutils.obj
 0001:00039990       __acrt_fenv_get_status     000000014003a990 f   libucrtd:_fenvutils.obj
 0001:000399c0       __acrt_fenv_set_control    000000014003a9c0 f   libucrtd:_fenvutils.obj
 0001:000399e0       __acrt_fenv_set_status     000000014003a9e0 f   libucrtd:_fenvutils.obj
 0001:00039a00       ?reset_and_return@__crt_mbstring@@YA_K_KPEAU_Mbstatet@@@Z 000000014003aa00 f   libucrtd:common_utf8.obj
 0001:00039a40       ?return_illegal_sequence@__crt_mbstring@@YA_KPEAU_Mbstatet@@AEAV__crt_cached_ptd_host@@@Z 000000014003aa40 f   libucrtd:common_utf8.obj
 0001:00039aa0       ?__mbrtoc32_utf8@__crt_mbstring@@YA_KPEA_UPEBD_KPEAU_Mbstatet@@AEAV__crt_cached_ptd_host@@@Z 000000014003aaa0 f   libucrtd:mbrtoc32.obj
 0001:0003a1b0       fclose                     000000014003b1b0 f   libucrtd:fclose.obj
 0001:0003a3b0       _commit                    000000014003b3b0 f   libucrtd:commit.obj
 0001:0003bda0       _utf8_no_of_trailbytes     000000014003cda0 f i libucrtd:write.obj
 0001:0003bdc0       _write_internal            000000014003cdc0 f   libucrtd:write.obj
 0001:0003c160       _write_nolock              000000014003d160 f   libucrtd:write.obj
 0001:0003c9d0       _lseeki64_nolock_internal  000000014003d9d0 f   libucrtd:lseek.obj
 0001:0003ca10       __strncnt                  000000014003da10 f   libucrtd:strncnt.obj
 0001:0003ca70       ?__wcsrtombs_utf8@__crt_mbstring@@YA_KPEADPEAPEB_W_KPEAU_Mbstatet@@AEAV__crt_cached_ptd_host@@@Z 000000014003da70 f   libucrtd:wcrtomb.obj
 0001:0003ccf0       __acrt_initialize_fma3     000000014003dcf0 f   libucrtd:fma3_available.obj
 0001:0003cda0       _log10_special             000000014003dda0 f   libucrtd:log_special.obj
 0001:0003d0e0       _handle_error              000000014003e0e0 f   libucrtd:libm_error.obj
 0001:0003d270       _handle_nan                000000014003e270 f   libucrtd:libm_error.obj
 0001:0003d4b0       _clearfp                   000000014003e4b0 f   libucrtd:ieee.obj
 0001:0003d4d0       _control87                 000000014003e4d0 f   libucrtd:ieee.obj
 0001:0003d9c0       _close_internal            000000014003e9c0 f   libucrtd:close.obj
 0001:0003dc80       _close_nolock_internal     000000014003ec80 f   libucrtd:close.obj
 0001:0003dcf0       ?__acrt_stdio_free_stream@@YAXV__crt_stdio_stream@@@Z 000000014003ecf0 f   libucrtd:stream.obj
 0001:0003dd90       ?deallocate@__crt_stdio_stream@@QEAAXXZ 000000014003ed90 f i libucrtd:stream.obj
 0001:0003ddb0       _putwch_nolock             000000014003edb0 f   libucrtd:putwch.obj
 0001:0003de00       ?__c16rtomb_utf8@__crt_mbstring@@YA_KPEAD_SPEAU_Mbstatet@@AEAV__crt_cached_ptd_host@@@Z 000000014003ee00 f   libucrtd:c16rtomb.obj
 0001:0003e040       _raise_exc                 000000014003f040 f   libucrtd:fpexcept.obj
 0001:0003e0a0       _raise_exc_ex              000000014003f0a0 f   libucrtd:fpexcept.obj
 0001:0003e720       _set_errno_from_matherr    000000014003f720 f   libucrtd:fpexcept.obj
 0001:0003e770       _clrfp                     000000014003f770 f   libucrtd:fpctrl.obj
 0001:0003e7a0       _ctrlfp                    000000014003f7a0 f   libucrtd:fpctrl.obj
 0001:0003e850       _set_statfp                000000014003f850 f   libucrtd:fpctrl.obj
 0001:0003e890       _statfp                    000000014003f890 f   libucrtd:fpctrl.obj
 0001:0003e8d0       _get_fpsr                  000000014003f8d0 f   libucrtd:fpsr.obj
 0001:0003e8e0       _set_fpsr                  000000014003f8e0 f   libucrtd:fpsr.obj
 0001:0003e8ea       _fclrf                     000000014003f8ea f   libucrtd:fpsr.obj
 0001:0003e8fe       _frnd                      000000014003f8fe f   libucrtd:fpsr.obj
 0001:0003ea60       __dcrt_lowio_ensure_console_output_initialized 000000014003fa60 f   libucrtd:initcon.obj
 0001:0003ea90       __dcrt_terminate_console_output 000000014003fa90 f   libucrtd:initcon.obj
 0001:0003eac0       __dcrt_write_console       000000014003fac0 f   libucrtd:initcon.obj
 0001:0003eb00       _FindPESection             000000014003fb00 f   LIBCMTD:pesect.obj
 0001:0003ebb0       _IsNonwritableInCurrentImage 000000014003fbb0 f   LIBCMTD:pesect.obj
 0001:0003ec40       _ValidateImageBase         000000014003fc40 f   LIBCMTD:pesect.obj
 0001:0003ecc0       ??1type_info@@UEAA@XZ      000000014003fcc0 f   LIBCMTD:std_type_info_static.obj
 0001:0003ece0       ??_Etype_info@@UEAAPEAXI@Z 000000014003fce0 f i LIBCMTD:std_type_info_static.obj
 0001:0003ece0       ??_Gtype_info@@UEAAPEAXI@Z 000000014003fce0 f i LIBCMTD:std_type_info_static.obj
 0001:0003ed20       ??3@YAXPEAX_K@Z            000000014003fd20 f   LIBCMTD:delete_scalar_size.obj
 0001:0003ed40       __GSHandlerCheck_SEH       000000014003fd40 f   LIBCMTD:gshandlerseh.obj
 0001:0003ee10       __chkstk                   000000014003fe10 f   LIBCMTD:chkstk.obj
 0001:0003ee10       _alloca_probe              000000014003fe10 f   LIBCMTD:chkstk.obj
 0001:0003ee60       __GSHandlerCheck_EH        000000014003fe60 f   LIBCMTD:gshandlereh.obj
 0001:0003ef10       ??3@YAXPEAX@Z              000000014003ff10 f   LIBCMTD:delete_scalar.obj
 0001:0003ef30       __C_specific_handler_noexcept 000000014003ff30 f   libvcruntimed:chandler_noexcept.obj
 0001:0003efc0       strrchr                    000000014003ffc0 f   libvcruntimed:strrchr.obj
 0001:0003f400       _guard_dispatch_icall_nop  0000000140040400 f   LIBCMTD:guard_dispatch.obj
 0001:0003f420       _guard_xfg_dispatch_icall_nop 0000000140040420 f   LIBCMTD:guard_xfg_dispatch.obj
 0001:0003f450       memcpy_repmovs             0000000140040450 f   libvcruntimed:memcpy.obj
 0001:0003f460       memcpy                     0000000140040460 f   libvcruntimed:memcpy.obj
 0001:0003f460       memcpy_$fo_default$        0000000140040460     libvcruntimed:memcpy.obj
 0001:0003f460       memmove                    0000000140040460 f   libvcruntimed:memcpy.obj
 0001:0003faf0       memset_repstos             0000000140040af0 f   libvcruntimed:memset.obj
 0001:0003fb00       memset                     0000000140040b00 f   libvcruntimed:memset.obj
 0002:00000000       __imp_StretchDIBits        0000000140042000     gdi32:GDI32.dll
 0002:00000008       \177GDI32_NULL_THUNK_DATA  0000000140042008     gdi32:GDI32.dll
 0002:00000010       __imp_GetConsoleMode       0000000140042010     kernel32:KERNEL32.dll
 0002:00000018       __imp_GetConsoleOutputCP   0000000140042018     kernel32:KERNEL32.dll
 0002:00000020       __imp_FlushFileBuffers     0000000140042020     kernel32:KERNEL32.dll
 0002:00000028       __imp_SetFilePointerEx     0000000140042028     kernel32:KERNEL32.dll
 0002:00000030       __imp_WriteConsoleW        0000000140042030     kernel32:KERNEL32.dll
 0002:00000038       __imp_HeapQueryInformation 0000000140042038     kernel32:KERNEL32.dll
 0002:00000040       __imp_HeapReAlloc          0000000140042040     kernel32:KERNEL32.dll
 0002:00000048       __imp_HeapFree             0000000140042048     kernel32:KERNEL32.dll
 0002:00000050       __imp_GetProcessHeap       0000000140042050     kernel32:KERNEL32.dll
 0002:00000058       __imp_CreateFileW          0000000140042058     kernel32:KERNEL32.dll
 0002:00000060       __imp_FlsFree              0000000140042060     kernel32:KERNEL32.dll
 0002:00000068       __imp_FlsSetValue          0000000140042068     kernel32:KERNEL32.dll
 0002:00000070       __imp_FlsGetValue          0000000140042070     kernel32:KERNEL32.dll
 0002:00000078       __imp_FlsAlloc             0000000140042078     kernel32:KERNEL32.dll
 0002:00000080       __imp_GetStringTypeW       0000000140042080     kernel32:KERNEL32.dll
 0002:00000088       __imp_LCMapStringW         0000000140042088     kernel32:KERNEL32.dll
 0002:00000090       __imp_GetStartupInfoW      0000000140042090     kernel32:KERNEL32.dll
 0002:00000098       __imp_CreateDirectoryA     0000000140042098     kernel32:KERNEL32.dll
 0002:000000a0       __imp_CreateFileA          00000001400420a0     kernel32:KERNEL32.dll
 0002:000000a8       __imp_DeleteFileA          00000001400420a8     kernel32:KERNEL32.dll
 0002:000000b0       __imp_FindClose            00000001400420b0     kernel32:KERNEL32.dll
 0002:000000b8       __imp_FindFirstFileA       00000001400420b8     kernel32:KERNEL32.dll
 0002:000000c0       __imp_GetFileAttributesA   00000001400420c0     kernel32:KERNEL32.dll
 0002:000000c8       __imp_GetFileSize          00000001400420c8     kernel32:KERNEL32.dll
 0002:000000d0       __imp_ReadFile             00000001400420d0     kernel32:KERNEL32.dll
 0002:000000d8       __imp_RemoveDirectoryA     00000001400420d8     kernel32:KERNEL32.dll
 0002:000000e0       __imp_WriteFile            00000001400420e0     kernel32:KERNEL32.dll
 0002:000000e8       __imp_OutputDebugStringA   00000001400420e8     kernel32:KERNEL32.dll
 0002:000000f0       __imp_CloseHandle          00000001400420f0     kernel32:KERNEL32.dll
 0002:000000f8       __imp_GetLastError         00000001400420f8     kernel32:KERNEL32.dll
 0002:00000100       __imp_QueryPerformanceCounter 0000000140042100     kernel32:KERNEL32.dll
 0002:00000108       __imp_QueryPerformanceFrequency 0000000140042108     kernel32:KERNEL32.dll
 0002:00000110       __imp_Sleep                0000000140042110     kernel32:KERNEL32.dll
 0002:00000118       __imp_GetSystemInfo        0000000140042118     kernel32:KERNEL32.dll
 0002:00000120       __imp_VirtualAlloc         0000000140042120     kernel32:KERNEL32.dll
 0002:00000128       __imp_FreeLibrary          0000000140042128     kernel32:KERNEL32.dll
 0002:00000130       __imp_GetProcAddress       0000000140042130     kernel32:KERNEL32.dll
 0002:00000138       __imp_LoadLibraryA         0000000140042138     kernel32:KERNEL32.dll
 0002:00000140       __imp_CopyFileA            0000000140042140     kernel32:KERNEL32.dll
 0002:00000148       __imp_MoveFileExA          0000000140042148     kernel32:KERNEL32.dll
 0002:00000150       __imp_SetStdHandle         0000000140042150     kernel32:KERNEL32.dll
 0002:00000158       __imp_FreeEnvironmentStringsW 0000000140042158     kernel32:KERNEL32.dll
 0002:00000160       __imp_RtlCaptureContext    0000000140042160     kernel32:KERNEL32.dll
 0002:00000168       __imp_RtlLookupFunctionEntry 0000000140042168     kernel32:KERNEL32.dll
 0002:00000170       __imp_RtlVirtualUnwind     0000000140042170     kernel32:KERNEL32.dll
 0002:00000178       __imp_UnhandledExceptionFilter 0000000140042178     kernel32:KERNEL32.dll
 0002:00000180       __imp_SetUnhandledExceptionFilter 0000000140042180     kernel32:KERNEL32.dll
 0002:00000188       __imp_GetCurrentProcess    0000000140042188     kernel32:KERNEL32.dll
 0002:00000190       __imp_TerminateProcess     0000000140042190     kernel32:KERNEL32.dll
 0002:00000198       __imp_IsProcessorFeaturePresent 0000000140042198     kernel32:KERNEL32.dll
 0002:000001a0       __imp_GetCurrentProcessId  00000001400421a0     kernel32:KERNEL32.dll
 0002:000001a8       __imp_GetCurrentThreadId   00000001400421a8     kernel32:KERNEL32.dll
 0002:000001b0       __imp_GetSystemTimeAsFileTime 00000001400421b0     kernel32:KERNEL32.dll
 0002:000001b8       __imp_InitializeSListHead  00000001400421b8     kernel32:KERNEL32.dll
 0002:000001c0       __imp_IsDebuggerPresent    00000001400421c0     kernel32:KERNEL32.dll
 0002:000001c8       __imp_GetModuleHandleW     00000001400421c8     kernel32:KERNEL32.dll
 0002:000001d0       __imp_RtlUnwindEx          00000001400421d0     kernel32:KERNEL32.dll
 0002:000001d8       __imp_SetLastError         00000001400421d8     kernel32:KERNEL32.dll
 0002:000001e0       __imp_EnterCriticalSection 00000001400421e0     kernel32:KERNEL32.dll
 0002:000001e8       __imp_LeaveCriticalSection 00000001400421e8     kernel32:KERNEL32.dll
 0002:000001f0       __imp_DeleteCriticalSection 00000001400421f0     kernel32:KERNEL32.dll
 0002:000001f8       __imp_InitializeCriticalSectionAndSpinCount 00000001400421f8     kernel32:KERNEL32.dll
 0002:00000200       __imp_TlsAlloc             0000000140042200     kernel32:KERNEL32.dll
 0002:00000208       __imp_TlsGetValue          0000000140042208     kernel32:KERNEL32.dll
 0002:00000210       __imp_TlsSetValue          0000000140042210     kernel32:KERNEL32.dll
 0002:00000218       __imp_TlsFree              0000000140042218     kernel32:KERNEL32.dll
 0002:00000220       __imp_LoadLibraryExW       0000000140042220     kernel32:KERNEL32.dll
 0002:00000228       __imp_EncodePointer        0000000140042228     kernel32:KERNEL32.dll
 0002:00000230       __imp_RaiseException       0000000140042230     kernel32:KERNEL32.dll
 0002:00000238       __imp_RtlPcToFileHeader    0000000140042238     kernel32:KERNEL32.dll
 0002:00000240       __imp_GetStdHandle         0000000140042240     kernel32:KERNEL32.dll
 0002:00000248       __imp_GetModuleFileNameW   0000000140042248     kernel32:KERNEL32.dll
 0002:00000250       __imp_ExitProcess          0000000140042250     kernel32:KERNEL32.dll
 0002:00000258       __imp_GetModuleHandleExW   0000000140042258     kernel32:KERNEL32.dll
 0002:00000260       __imp_HeapAlloc            0000000140042260     kernel32:KERNEL32.dll
 0002:00000268       __imp_HeapSize             0000000140042268     kernel32:KERNEL32.dll
 0002:00000270       __imp_HeapValidate         0000000140042270     kernel32:KERNEL32.dll
 0002:00000278       __imp_GetFileType          0000000140042278     kernel32:KERNEL32.dll
 0002:00000280       __imp_OutputDebugStringW   0000000140042280     kernel32:KERNEL32.dll
 0002:00000288       __imp_FindFirstFileExW     0000000140042288     kernel32:KERNEL32.dll
 0002:00000290       __imp_FindNextFileW        0000000140042290     kernel32:KERNEL32.dll
 0002:00000298       __imp_IsValidCodePage      0000000140042298     kernel32:KERNEL32.dll
 0002:000002a0       __imp_GetACP               00000001400422a0     kernel32:KERNEL32.dll
 0002:000002a8       __imp_GetOEMCP             00000001400422a8     kernel32:KERNEL32.dll
 0002:000002b0       __imp_GetCPInfo            00000001400422b0     kernel32:KERNEL32.dll
 0002:000002b8       __imp_GetCommandLineA      00000001400422b8     kernel32:KERNEL32.dll
 0002:000002c0       __imp_GetCommandLineW      00000001400422c0     kernel32:KERNEL32.dll
 0002:000002c8       __imp_MultiByteToWideChar  00000001400422c8     kernel32:KERNEL32.dll
 0002:000002d0       __imp_WideCharToMultiByte  00000001400422d0     kernel32:KERNEL32.dll
 0002:000002d8       __imp_GetEnvironmentStringsW 00000001400422d8     kernel32:KERNEL32.dll
 0002:000002e0       \177KERNEL32_NULL_THUNK_DATA 00000001400422e0     kernel32:KERNEL32.dll
 0002:000002e8       __imp_DispatchMessageA     00000001400422e8     user32:USER32.dll
 0002:000002f0       __imp_GetClientRect        00000001400422f0     user32:USER32.dll
 0002:000002f8       __imp_PeekMessageA         00000001400422f8     user32:USER32.dll
 0002:00000300       __imp_GetMonitorInfoA      0000000140042300     user32:USER32.dll
 0002:00000308       __imp_MonitorFromWindow    0000000140042308     user32:USER32.dll
 0002:00000310       __imp_ChangeDisplaySettingsA 0000000140042310     user32:USER32.dll
 0002:00000318       __imp_SetWindowLongA       0000000140042318     user32:USER32.dll
 0002:00000320       __imp_GetWindowLongA       0000000140042320     user32:USER32.dll
 0002:00000328       __imp_ScreenToClient       0000000140042328     user32:USER32.dll
 0002:00000330       __imp_ClientToScreen       0000000140042330     user32:USER32.dll
 0002:00000338       __imp_GetCursorPos         0000000140042338     user32:USER32.dll
 0002:00000340       __imp_SetCursorPos         0000000140042340     user32:USER32.dll
 0002:00000348       __imp_ShowCursor           0000000140042348     user32:USER32.dll
 0002:00000350       __imp_AdjustWindowRect     0000000140042350     user32:USER32.dll
 0002:00000358       __imp_TranslateMessage     0000000140042358     user32:USER32.dll
 0002:00000360       __imp_EndPaint             0000000140042360     user32:USER32.dll
 0002:00000368       __imp_BeginPaint           0000000140042368     user32:USER32.dll
 0002:00000370       __imp_ReleaseDC            0000000140042370     user32:USER32.dll
 0002:00000378       __imp_GetDC                0000000140042378     user32:USER32.dll
 0002:00000380       __imp_GetForegroundWindow  0000000140042380     user32:USER32.dll
 0002:00000388       __imp_SetWindowPos         0000000140042388     user32:USER32.dll
 0002:00000390       __imp_ShowWindow           0000000140042390     user32:USER32.dll
 0002:00000398       __imp_CreateWindowExA      0000000140042398     user32:USER32.dll
 0002:000003a0       __imp_RegisterClassA       00000001400423a0     user32:USER32.dll
 0002:000003a8       __imp_PostQuitMessage      00000001400423a8     user32:USER32.dll
 0002:000003b0       __imp_DefWindowProcA       00000001400423b0     user32:USER32.dll
 0002:000003b8       \177USER32_NULL_THUNK_DATA 00000001400423b8     user32:USER32.dll
 0002:000003c0       __imp_timeBeginPeriod      00000001400423c0     winmm:WINMM.dll
 0002:000003c8       \177WINMM_NULL_THUNK_DATA  00000001400423c8     winmm:WINMM.dll
 0002:000003d0       __guard_check_icall_fptr   00000001400423d0     LIBCMTD:guard_support.obj
 0002:000003d8       __guard_xfg_check_icall_fptr 00000001400423d8     LIBCMTD:guard_support.obj
 0002:000003e0       __guard_dispatch_icall_fptr 00000001400423e0     LIBCMTD:guard_support.obj
 0002:000003e8       __guard_xfg_dispatch_icall_fptr 00000001400423e8     LIBCMTD:guard_support.obj
 0002:000003f0       __guard_xfg_table_dispatch_icall_fptr 00000001400423f0     LIBCMTD:guard_support.obj
 0002:000003f8       __castguard_check_failure_os_handled_fptr 00000001400423f8     LIBCMTD:guard_support.obj
 0002:00000400       __guard_memcpy_fptr        0000000140042400     libvcruntimed:softmemtag.obj
 0002:00000408       __xc_a                     0000000140042408     LIBCMTD:initializers.obj
 0002:00000418       __xc_z                     0000000140042418     LIBCMTD:initializers.obj
 0002:00000420       __xi_a                     0000000140042420     LIBCMTD:initializers.obj
 0002:00000438       __acrt_stdio_initializer   0000000140042438     libucrtd:stdio_initializer.obj
 0002:00000440       __acrt_multibyte_initializer 0000000140042440     libucrtd:multibyte_initializer.obj
 0002:00000448       __acrt_fmode_initializer   0000000140042448     libucrtd:fmode_initializer.obj
 0002:00000450       __acrt_tran_fma3_initializer 0000000140042450     libucrtd:fma3_initializer.obj
 0002:00000458       __xi_z                     0000000140042458     LIBCMTD:initializers.obj
 0002:00000460       __xp_a                     0000000140042460     LIBCMTD:initializers.obj
 0002:00000468       __acrt_locale_terminator   0000000140042468     libucrtd:locale_initializer.obj
 0002:00000470       __dcrt_console_output_terminator 0000000140042470     libucrtd:console_output_initializer.obj
 0002:00000478       __acrt_stdio_terminator    0000000140042478     libucrtd:stdio_initializer.obj
 0002:00000480       __xp_z                     0000000140042480     LIBCMTD:initializers.obj
 0002:00000488       __xt_a                     0000000140042488     LIBCMTD:initializers.obj
 0002:00000490       __xt_z                     0000000140042490     LIBCMTD:initializers.obj
 0002:00000610       __real@3ff0000000000000    0000000140042610     platform.obj
 0002:00000618       __real@408f400000000000    0000000140042618     platform.obj
 0002:00000620       __real@43e0000000000000    0000000140042620     platform.obj
 0002:00000638       _pDestructExceptionObject  0000000140042638     libvcruntimed:ehhelpers.obj
 0002:00000640       ??_C@_0EK@HNOIOKGA@D?3?2a?2_work?21?2s?2src?2vctools?2crt?2@ 0000000140042640     libvcruntimed:per_thread_data.obj
 0002:00000da0       ??_C@_08EHJDFFNH@__based?$CI@ 0000000140042da0     libvcruntimed:undname.obj
 0002:00000db0       ??_C@_07KOLFKCDI@__cdecl@  0000000140042db0     libvcruntimed:undname.obj
 0002:00000db8       ??_C@_08GHMPAG@__pascal@   0000000140042db8     libvcruntimed:undname.obj
 0002:00000dc8       ??_C@_09IFJBGAPI@__stdcall@ 0000000140042dc8     libvcruntimed:undname.obj
 0002:00000dd8       ??_C@_0L@NPHFGOKO@__thiscall@ 0000000140042dd8     libvcruntimed:undname.obj
 0002:00000de8       ??_C@_0L@JMKHOMEK@__fastcall@ 0000000140042de8     libvcruntimed:undname.obj
 0002:00000df8       ??_C@_0N@BCKKPABJ@__vectorcall@ 0000000140042df8     libvcruntimed:undname.obj
 0002:00000e08       ??_C@_09HIJEGCPM@__clrcall@ 0000000140042e08     libvcruntimed:undname.obj
 0002:00000e14       ??_C@_06GHPCKEAG@__eabi@   0000000140042e14     libvcruntimed:undname.obj
 0002:00000e20       ??_C@_09IOPIDJLG@__swift_1@ 0000000140042e20     libvcruntimed:undname.obj
 0002:00000e30       ??_C@_09KFNFGKHF@__swift_2@ 0000000140042e30     libvcruntimed:undname.obj
 0002:00000e40       ??_C@_09LMMOFLDE@__swift_3@ 0000000140042e40     libvcruntimed:undname.obj
 0002:00000e50       ??_C@_07JOMMBBKO@__ptr64@  0000000140042e50     libvcruntimed:undname.obj
 0002:00000e58       ??_C@_0L@PILCLIHE@__restrict@ 0000000140042e58     libvcruntimed:undname.obj
 0002:00000e68       ??_C@_0M@GFIIJFMG@__unaligned@ 0000000140042e68     libvcruntimed:undname.obj
 0002:00000e78       ??_C@_09DHDLOLLB@restrict?$CI@ 0000000140042e78     libvcruntimed:undname.obj
 0002:00000e82       ??_C@_00CNPNBAHC@@         0000000140042e82     libvcruntimed:undname.obj
 0002:00000e84       ??_C@_04NIHEBCM@?5new@     0000000140042e84     libvcruntimed:undname.obj
 0002:00000e90       ??_C@_07FPCDHGMM@?5delete@ 0000000140042e90     libvcruntimed:undname.obj
 0002:00000e98       ??_C@_01NEMOKFLO@?$DN@     0000000140042e98     libvcruntimed:undname.obj
 0002:00000e9c       ??_C@_02GPIOPFAK@?$DO?$DO@ 0000000140042e9c     libvcruntimed:undname.obj
 0002:00000ea0       ??_C@_02FODMEDOG@?$DM?$DM@ 0000000140042ea0     libvcruntimed:undname.obj
 0002:00000ea4       ??_C@_01DCLJPIOD@?$CB@     0000000140042ea4     libvcruntimed:undname.obj
 0002:00000ea8       ??_C@_02EGOFBIJA@?$DN?$DN@ 0000000140042ea8     libvcruntimed:undname.obj
 0002:00000eac       ??_C@_02FDNJECIE@?$CB?$DN@ 0000000140042eac     libvcruntimed:undname.obj
 0002:00000eb0       ??_C@_02GPECMEKF@?$FL?$FN@ 0000000140042eb0     libvcruntimed:undname.obj
 0002:00000eb8       ??_C@_08LHJFAFGD@operator@ 0000000140042eb8     libvcruntimed:undname.obj
 0002:00000ec4       ??_C@_02HBOOOICD@?9?$DO@   0000000140042ec4     libvcruntimed:undname.obj
 0002:00000ec8       ??_C@_01NBENCBCI@?$CK@     0000000140042ec8     libvcruntimed:undname.obj
 0002:00000ecc       ??_C@_02ECNGHCIF@?$CL?$CL@ 0000000140042ecc     libvcruntimed:undname.obj
 0002:00000ed0       ??_C@_02BAABKJLB@?9?9@     0000000140042ed0     libvcruntimed:undname.obj
 0002:00000ed4       ??_C@_01JOAMLHOP@?9@       0000000140042ed4     libvcruntimed:undname.obj
 0002:00000ed8       ??_C@_01MIFGBAGJ@?$CL@     0000000140042ed8     libvcruntimed:undname.obj
 0002:00000edc       ??_C@_01HNPIGOCE@?$CG@     0000000140042edc     libvcruntimed:undname.obj
 0002:00000ee0       ??_C@_03MNHNFDLC@?9?$DO?$CK@ 0000000140042ee0     libvcruntimed:undname.obj
 0002:00000ee4       ??_C@_01KMDKNFGN@?1@       0000000140042ee4     libvcruntimed:undname.obj
 0002:00000ee8       ??_C@_01FGNFDNOH@?$CF@     0000000140042ee8     libvcruntimed:undname.obj
 0002:00000eec       ??_C@_01MNNFJEPP@?$DM@     0000000140042eec     libvcruntimed:undname.obj
 0002:00000ef0       ??_C@_02EHCHHCKH@?$DM?$DN@ 0000000140042ef0     libvcruntimed:undname.obj
 0002:00000ef4       ??_C@_01PPODPGHN@?$DO@     0000000140042ef4     libvcruntimed:undname.obj
 0002:00000ef8       ??_C@_02EEKDKGMJ@?$DO?$DN@ 0000000140042ef8     libvcruntimed:undname.obj
 0002:00000efc       ??_C@_01IHBHIGKO@?0@       0000000140042efc     libvcruntimed:undname.obj
 0002:00000f00       ??_C@_02HCKGKOFO@?$CI?$CJ@ 0000000140042f00     libvcruntimed:undname.obj
 0002:00000f04       ??_C@_01PJKLJHI@?$HO@      0000000140042f04     libvcruntimed:undname.obj
 0002:00000f08       ??_C@_01JKBOJNNK@?$FO@     0000000140042f08     libvcruntimed:undname.obj
 0002:00000f0c       ??_C@_01DNKMNLPK@?$HM@     0000000140042f0c     libvcruntimed:undname.obj
 0002:00000f10       ??_C@_02PPKAJPJL@?$CG?$CG@ 0000000140042f10     libvcruntimed:undname.obj
 0002:00000f14       ??_C@_02NONPIBCD@?$HM?$HM@ 0000000140042f14     libvcruntimed:undname.obj
 0002:00000f18       ??_C@_02FPIMKNGF@?$CK?$DN@ 0000000140042f18     libvcruntimed:undname.obj
 0002:00000f1c       ??_C@_02FOEOMHFC@?$CL?$DN@ 0000000140042f1c     libvcruntimed:undname.obj
 0002:00000f20       ??_C@_02FKMDLLOA@?9?$DN@   0000000140042f20     libvcruntimed:undname.obj
 0002:00000f24       ??_C@_02FJEHGPIO@?1?$DN@   0000000140042f24     libvcruntimed:undname.obj
 0002:00000f28       ??_C@_02FENAOKFI@?$CF?$DN@ 0000000140042f28     libvcruntimed:undname.obj
 0002:00000f2c       ??_C@_03IKFCCPFF@?$DO?$DO?$DN@ 0000000140042f2c     libvcruntimed:undname.obj
 0002:00000f30       ??_C@_03CDNPDDLA@?$DM?$DM?$DN@ 0000000140042f30     libvcruntimed:undname.obj
 0002:00000f34       ??_C@_02FGJGFEAB@?$CG?$DN@ 0000000140042f34     libvcruntimed:undname.obj
 0002:00000f38       ??_C@_02DHLNPPGH@?$HM?$DN@ 0000000140042f38     libvcruntimed:undname.obj
 0002:00000f3c       ??_C@_02MHEGNOJ@?$FO?$DN@  0000000140042f3c     libvcruntimed:undname.obj
 0002:00000f40       ??_C@_09IFPLHPGF@?$GAvftable?8@ 0000000140042f40     libvcruntimed:undname.obj
 0002:00000f50       ??_C@_09BLBHBJP@?$GAvbtable?8@ 0000000140042f50     libvcruntimed:undname.obj
 0002:00000f60       ??_C@_07FEEIOKP@?$GAvcall?8@ 0000000140042f60     libvcruntimed:undname.obj
 0002:00000f68       ??_C@_08LLFFHHDJ@?$GAtypeof?8@ 0000000140042f68     libvcruntimed:undname.obj
 0002:00000f78       ??_C@_0BF@KDPPACIK@?$GAlocal?5static?5guard?8@ 0000000140042f78     libvcruntimed:undname.obj
 0002:00000f90       ??_C@_08OBABFOLI@?$GAstring?8@ 0000000140042f90     libvcruntimed:undname.obj
 0002:00000fa0       ??_C@_0BD@JDLKDPAB@?$GAvbase?5destructor?8@ 0000000140042fa0     libvcruntimed:undname.obj
 0002:00000fb8       ??_C@_0BN@DEGPLNFK@?$GAvector?5deleting?5destructor?8@ 0000000140042fb8     libvcruntimed:undname.obj
 0002:00000fd8       ??_C@_0BO@OBMKPJIG@?$GAdefault?5constructor?5closure?8@ 0000000140042fd8     libvcruntimed:undname.obj
 0002:00000ff8       ??_C@_0BN@IMDCHIKM@?$GAscalar?5deleting?5destructor?8@ 0000000140042ff8     libvcruntimed:undname.obj
 0002:00001018       ??_C@_0BO@PFGOCPJJ@?$GAvector?5constructor?5iterator?8@ 0000000140043018     libvcruntimed:undname.obj
 0002:00001038       ??_C@_0BN@LFPFMEDL@?$GAvector?5destructor?5iterator?8@ 0000000140043038     libvcruntimed:undname.obj
 0002:00001058       ??_C@_0CE@IKBNEHA@?$GAvector?5vbase?5constructor?5itera@ 0000000140043058     libvcruntimed:undname.obj
 0002:00001080       ??_C@_0BL@NILFHHPC@?$GAvirtual?5displacement?5map?8@ 0000000140043080     libvcruntimed:undname.obj
 0002:000010a0       ??_C@_0CB@JONCMFFK@?$GAeh?5vector?5constructor?5iterator@ 00000001400430a0     libvcruntimed:undname.obj
 0002:000010c8       ??_C@_0CA@GCEOPDGL@?$GAeh?5vector?5destructor?5iterator?8@ 00000001400430c8     libvcruntimed:undname.obj
 0002:000010e8       ??_C@_0CH@OOJPLCPH@?$GAeh?5vector?5vbase?5constructor?5it@ 00000001400430e8     libvcruntimed:undname.obj
 0002:00001110       ??_C@_0BL@LLKPOHJI@?$GAcopy?5constructor?5closure?8@ 0000000140043110     libvcruntimed:undname.obj
 0002:00001130       ??_C@_0BA@KBCDOMBN@?$GAudt?5returning?8@ 0000000140043130     libvcruntimed:undname.obj
 0002:00001140       ??_C@_03KLGMFNMG@?$GAEH@   0000000140043140     libvcruntimed:undname.obj
 0002:00001144       ??_C@_05KHLCHHI@?$GARTTI@  0000000140043144     libvcruntimed:undname.obj
 0002:00001150       ??_C@_0BA@KKLDJDLB@?$GAlocal?5vftable?8@ 0000000140043150     libvcruntimed:undname.obj
 0002:00001160       ??_C@_0CE@IIHCMGGL@?$GAlocal?5vftable?5constructor?5clos@ 0000000140043160     libvcruntimed:undname.obj
 0002:00001184       ??_C@_06FHBGPFGH@?5new?$FL?$FN@ 0000000140043184     libvcruntimed:undname.obj
 0002:00001190       ??_C@_09LBNFPBCA@?5delete?$FL?$FN@ 0000000140043190     libvcruntimed:undname.obj
 0002:000011a0       ??_C@_0P@HJKNJFNN@?$GAomni?5callsig?8@ 00000001400431a0     libvcruntimed:undname.obj
 0002:000011b0       ??_C@_0BL@CNOONJFP@?$GAplacement?5delete?5closure?8@ 00000001400431b0     libvcruntimed:undname.obj
 0002:000011d0       ??_C@_0BN@CKNJLHMB@?$GAplacement?5delete?$FL?$FN?5closure?8@ 00000001400431d0     libvcruntimed:undname.obj
 0002:000011f0       ??_C@_0CG@CFDHKGGD@?$GAmanaged?5vector?5constructor?5ite@ 00000001400431f0     libvcruntimed:undname.obj
 0002:00001218       ??_C@_0CF@IMGKMJNO@?$GAmanaged?5vector?5destructor?5iter@ 0000000140043218     libvcruntimed:undname.obj
 0002:00001240       ??_C@_0CG@HLDDJMAG@?$GAeh?5vector?5copy?5constructor?5ite@ 0000000140043240     libvcruntimed:undname.obj
 0002:00001268       ??_C@_0CM@FCBBDIGB@?$GAeh?5vector?5vbase?5copy?5construct@ 0000000140043268     libvcruntimed:undname.obj
 0002:00001298       ??_C@_0BL@CLIPGLGB@?$GAdynamic?5initializer?5for?5?8@ 0000000140043298     libvcruntimed:undname.obj
 0002:000012b8       ??_C@_0CB@PDBIFEP@?$GAdynamic?5atexit?5destructor?5for?5@ 00000001400432b8     libvcruntimed:undname.obj
 0002:000012e0       ??_C@_0CD@CGAJBKEJ@?$GAvector?5copy?5constructor?5iterat@ 00000001400432e0     libvcruntimed:undname.obj
 0002:00001308       ??_C@_0CJ@GJELGAMM@?$GAvector?5vbase?5copy?5constructor?5@ 0000000140043308     libvcruntimed:undname.obj
 0002:00001338       ??_C@_0CL@FGIJHLCE@?$GAmanaged?5vector?5copy?5constructo@ 0000000140043338     libvcruntimed:undname.obj
 0002:00001368       ??_C@_0BM@PMGGMLDN@?$GAlocal?5static?5thread?5guard?8@ 0000000140043368     libvcruntimed:undname.obj
 0002:00001388       ??_C@_0N@BDNMDMOL@operator?5?$CC?$CC?5@ 0000000140043388     libvcruntimed:undname.obj
 0002:00001398       ??_C@_0BC@GGEBGALA@operator?5co_await@ 0000000140043398     libvcruntimed:undname.obj
 0002:000013b0       ??_C@_0M@GAAIMMOH@operator?$DM?$DN?$DO@ 00000001400433b0     libvcruntimed:undname.obj
 0002:000013c0       ??_C@_0BC@DAFEJGAK@?5Type?5Descriptor?8@ 00000001400433c0     libvcruntimed:undname.obj
 0002:000013d8       ??_C@_0BM@LDKODKLH@?5Base?5Class?5Descriptor?5at?5?$CI@ 00000001400433d8     libvcruntimed:undname.obj
 0002:000013f8       ??_C@_0BD@LGICGFMM@?5Base?5Class?5Array?8@ 00000001400433f8     libvcruntimed:undname.obj
 0002:00001410       ??_C@_0BN@MECKDCOJ@?5Class?5Hierarchy?5Descriptor?8@ 0000000140043410     libvcruntimed:undname.obj
 0002:00001430       ??_C@_0BK@CFCOFLF@?5Complete?5Object?5Locator?8@ 0000000140043430     libvcruntimed:undname.obj
 0002:00001450       ??_C@_0BG@JNJLAMPM@?$GAanonymous?5namespace?8@ 0000000140043450     libvcruntimed:undname.obj
 0002:00001468       ??_C@_02DKCKIIND@?$CFs@    0000000140043468     libvcruntimed:undname.obj
 0002:0000146c       ??_C@_11LOCGONAA@@         000000014004346c     libvcruntimed:undname.obj
 0002:00001488       ??_C@_1DM@KHCHBNEB@?$AAa?$AAp?$AAi?$AA?9?$AAm?$AAs?$AA?9?$AAw?$AAi?$AAn?$AA?9?$AAc?$AAo?$AAr?$AAe@ 0000000140043488     libvcruntimed:winapi_downlevel.obj
 0002:000014c8       ??_C@_1DK@LPPGFMPP@?$AAa?$AAp?$AAi?$AA?9?$AAm?$AAs?$AA?9?$AAw?$AAi?$AAn?$AA?9?$AAc?$AAo?$AAr?$AAe@ 00000001400434c8     libvcruntimed:winapi_downlevel.obj
 0002:00001508       ??_C@_1BC@GDMECMAK@?$AAk?$AAe?$AAr?$AAn?$AAe?$AAl?$AA3?$AA2@ 0000000140043508     libvcruntimed:winapi_downlevel.obj
 0002:00001520       ??_C@_17CNPHIMPH@?$AA?$CF?$AAl?$AAs@ 0000000140043520     libvcruntimed:winapi_downlevel.obj
 0002:00001528       ??_C@_1BA@PFFKHIOG@?$AAa?$AAp?$AAi?$AA?9?$AAm?$AAs?$AA?9@ 0000000140043528     libvcruntimed:winapi_downlevel.obj
 0002:00001540       ??_C@_1EM@LBIFGLGH@?$AAc?$AAa?$AAc?$AAh?$AAe?$AAd?$AA_?$AAh?$AAa?$AAn?$AAd?$AAl?$AAe?$AA?5?$AA?$DN@ 0000000140043540     libvcruntimed:winapi_downlevel.obj
 0002:00001590       ??_C@_1JG@EAIBPIGC@?$AAD?$AA?3?$AA?2?$AAa?$AA?2?$AA_?$AAw?$AAo?$AAr?$AAk?$AA?2?$AA1?$AA?2?$AAs?$AA?2@ 0000000140043590     libvcruntimed:winapi_downlevel.obj
 0002:00001628       ??_C@_1DI@MAHEDLDB@?$AAc?$AAa?$AAc?$AAh?$AAe?$AAd?$AA_?$AAh?$AAa?$AAn?$AAd?$AAl?$AAe?$AA?5?$AA?$DN@ 0000000140043628     libvcruntimed:winapi_downlevel.obj
 0002:00001660       ??_C@_1FC@IBNCGNKL@?$AAc?$AAa?$AAc?$AAh?$AAe?$AAd?$AA_?$AAf?$AAp?$AA?5?$AA?$DN?$AA?$DN?$AA?5?$AAi?$AAn@ 0000000140043660     libvcruntimed:winapi_downlevel.obj
 0002:000016b8       ??_C@_1CI@GDJBAGLP@?$AAc?$AAa?$AAc?$AAh?$AAe?$AAd?$AA_?$AAf?$AAp?$AA?5?$AA?$DN?$AA?$DN?$AA?5?$AAn?$AAe@ 00000001400436b8     libvcruntimed:winapi_downlevel.obj
 0002:000016e8       ??_C@_08KNHFBNJ@FlsAlloc@  00000001400436e8     libvcruntimed:winapi_downlevel.obj
 0002:00001700       ??_C@_07PEJMOBNF@FlsFree@  0000000140043700     libvcruntimed:winapi_downlevel.obj
 0002:00001710       ??_C@_0M@GDNOONDI@FlsGetValue@ 0000000140043710     libvcruntimed:winapi_downlevel.obj
 0002:00001728       ??_C@_0M@JCPCPOEF@FlsSetValue@ 0000000140043728     libvcruntimed:winapi_downlevel.obj
 0002:00001740       ??_C@_0BM@HCFOFFN@InitializeCriticalSectionEx@ 0000000140043740     libvcruntimed:winapi_downlevel.obj
 0002:00001800       ??_7exception@std@@6B@     0000000140043800     libvcruntimed:frame.obj
 0002:00001810       ??_C@_0BC@EOODALEL@Unknown?5exception@ 0000000140043810     libvcruntimed:frame.obj
 0002:00001830       ??_7bad_exception@std@@6B@ 0000000140043830     libvcruntimed:frame.obj
 0002:00001840       ??_C@_0O@DPKOEFFH@bad?5exception@ 0000000140043840     libvcruntimed:frame.obj
 0002:00001850       ??_C@_1FK@OACNEHHA@?$AAt?$AAo?$AA?9?$AA?$DO?$AA_?$AAW?$AAh?$AAa?$AAt?$AA?5?$AA?$DN?$AA?$DN?$AA?5?$AAn?$AAu@ 0000000140043850     libvcruntimed:std_exception.obj
 0002:000018b0       ??_C@_1IE@BLOAAGCK@?$AAD?$AA?3?$AA?2?$AAa?$AA?2?$AA_?$AAw?$AAo?$AAr?$AAk?$AA?2?$AA1?$AA?2?$AAs?$AA?2@ 00000001400438b0     libvcruntimed:std_exception.obj
 0002:00001940       ?standard_lookup_table_spectre@__crt_stdio_output@@3V?$spectre_mitigated_lookup_table@Ustate_transition_pair@__crt_stdio_output@@$0IA@@1@B 0000000140043940     libucrtd:output.obj
 0002:00001a40       ?format_validation_lookup_table_spectre@__crt_stdio_output@@3V?$spectre_mitigated_lookup_table@Ustate_transition_pair@__crt_stdio_output@@$0IA@@1@B 0000000140043a40     libucrtd:output.obj
 0002:00001c10       ??_C@_1GE@DPGDJKLM@?$AAm?$AAi?$AAn?$AAk?$AAe?$AAr?$AAn?$AAe?$AAl?$AA?2?$AAc?$AAr?$AAt?$AAs?$AA?2@ 0000000140043c10     libucrtd:output.obj
 0002:00001c80       ??_C@_1GA@MOBAPGIO@?$AAm?$AAi?$AAn?$AAk?$AAe?$AAr?$AAn?$AAe?$AAl?$AA?2?$AAc?$AAr?$AAt?$AAs?$AA?2@ 0000000140043c80     libucrtd:output.obj
 0002:00001ce0       ??_C@_1CE@EAKLPBKK@?$AAf?$AAo?$AAr?$AAm?$AAa?$AAt?$AA?5?$AA?$CB?$AA?$DN?$AA?5?$AAn?$AAu?$AAl?$AAl?$AAp@ 0000000140043ce0     libucrtd:output.obj
 0002:00001d08       ??_C@_1CA@PIMGHCEK@?$AAc?$AAo?$AAm?$AAm?$AAo?$AAn?$AA_?$AAv?$AAs?$AAp?$AAr?$AAi?$AAn?$AAt?$AAf@ 0000000140043d08     libucrtd:output.obj
 0002:00001d30       ??_C@_1EO@EGEEFEFM@?$AAb?$AAu?$AAf?$AAf?$AAe?$AAr?$AA_?$AAc?$AAo?$AAu?$AAn?$AAt?$AA?5?$AA?$DN?$AA?$DN@ 0000000140043d30     libucrtd:output.obj
 0002:00001d80       ??_C@_1CE@JEILLNB@?$AAc?$AAo?$AAm?$AAm?$AAo?$AAn?$AA_?$AAv?$AAs?$AAp?$AAr?$AAi?$AAn?$AAt?$AAf@ 0000000140043d80     libucrtd:output.obj
 0002:00001db0       ??_C@_1EM@OAFHAOLH@?$AAb?$AAu?$AAf?$AAf?$AAe?$AAr?$AA?5?$AA?$CB?$AA?$DN?$AA?5?$AAn?$AAu?$AAl?$AAl?$AAp@ 0000000140043db0     libucrtd:output.obj
 0002:00001e00       ??_C@_1DA@HPBFKMEB@?$AA?$CI?$AA?$CC?$AAB?$AAu?$AAf?$AAf?$AAe?$AAr?$AA?5?$AAt?$AAo?$AAo?$AA?5?$AAs?$AAm@ 0000000140043e00     libucrtd:output.obj
 0002:00001e30       ??_C@_1CG@LHFJHFBB@?$AAc?$AAo?$AAm?$AAm?$AAo?$AAn?$AA_?$AAv?$AAs?$AAn?$AAp?$AAr?$AAi?$AAn?$AAt@ 0000000140043e30     libucrtd:output.obj
 0002:00001e58       ??_C@_1CM@JOIJBMEM@?$AA_?$AAf?$AAo?$AAr?$AAm?$AAa?$AAt?$AA_?$AAi?$AAt?$AA?5?$AA?$CB?$AA?$DN?$AA?5?$AAn@ 0000000140043e58     libucrtd:output.obj
 0002:00001e90       ??_C@_1HA@DMAAKIJP@?$AAm?$AAi?$AAn?$AAk?$AAe?$AAr?$AAn?$AAe?$AAl?$AA?2?$AAc?$AAr?$AAt?$AAs?$AA?2@ 0000000140043e90     libucrtd:output.obj
 0002:00001f00       ??_C@_1EE@DMAIGNBG@?$AA?$CI?$AA?$CC?$AAI?$AAn?$AAc?$AAo?$AAr?$AAr?$AAe?$AAc?$AAt?$AA?5?$AAf?$AAo?$AAr@ 0000000140043f00     libucrtd:output.obj
 0002:00001f50       ??_C@_1BKA@DNADAJMC@?$AA_?$AA_?$AAc?$AAr?$AAt?$AA_?$AAs?$AAt?$AAd?$AAi?$AAo?$AA_?$AAo?$AAu?$AAt@ 0000000140043f50     libucrtd:output.obj
 0002:000020f0       ??_C@_1FG@OBJBDPAC@?$AA?$CI?$AA?$CC?$AAN?$AA?5?$AAl?$AAe?$AAn?$AAg?$AAt?$AAh?$AA?5?$AAm?$AAo?$AAd?$AAi@ 00000001400440f0     libucrtd:output.obj
 0002:00002150       ??_C@_1EC@GJPNJDCN@?$AA_?$AAl?$AAe?$AAn?$AAg?$AAt?$AAh?$AA?5?$AA?$DN?$AA?$DN?$AA?5?$AAl?$AAe?$AAn?$AAg@ 0000000140044150     libucrtd:output.obj
 0002:00002198       ??_C@_1DG@CEJKFDMO@?$AAs?$AAt?$AAa?$AAt?$AAe?$AA_?$AAc?$AAa?$AAs?$AAe?$AA_?$AAn?$AAo?$AAr?$AAm@ 0000000140044198     libucrtd:output.obj
 0002:000021d0       ??_C@_1CI@DDKMNCPP@?$AA_?$AAc?$AAo?$AAn?$AAt?$AAe?$AAx?$AAt?$AA?5?$AA?$CB?$AA?$DN?$AA?5?$AAn?$AAu?$AAl@ 00000001400441d0     libucrtd:output.obj
 0002:00002200       ??_C@_1HK@IIPGOADH@?$AA_?$AA_?$AAc?$AAr?$AAt?$AA_?$AAs?$AAt?$AAd?$AAi?$AAo?$AA_?$AAo?$AAu?$AAt@ 0000000140044200     libucrtd:output.obj
 0002:00002280       ??_C@_1BLA@MEDMHIOH@?$AA_?$AA_?$AAc?$AAr?$AAt?$AA_?$AAs?$AAt?$AAd?$AAi?$AAo?$AA_?$AAo?$AAu?$AAt@ 0000000140044280     libucrtd:output.obj
 0002:00002430       ??_C@_1BLE@LCKPBJON@?$AA_?$AA_?$AAc?$AAr?$AAt?$AA_?$AAs?$AAt?$AAd?$AAi?$AAo?$AA_?$AAo?$AAu?$AAt@ 0000000140044430     libucrtd:output.obj
 0002:000025f0       ??_C@_1HE@IACOMEJF@?$AA_?$AA_?$AAc?$AAr?$AAt?$AA_?$AAs?$AAt?$AAd?$AAi?$AAo?$AA_?$AAo?$AAu?$AAt@ 00000001400445f0     libucrtd:output.obj
 0002:00002670       ??_C@_1GC@BNMHNGKM@?$AA_?$AAs?$AAt?$AAa?$AAt?$AAe?$AA?5?$AA?$DN?$AA?$DN?$AA?5?$AAs?$AAt?$AAa?$AAt?$AAe@ 0000000140044670     libucrtd:output.obj
 0002:000026e0       ??_C@_1EK@PNGFDECN@?$AA?$CI?$AA?$CC?$AA?8?$AAn?$AA?8?$AA?5?$AAf?$AAo?$AAr?$AAm?$AAa?$AAt?$AA?5?$AAs?$AAp@ 00000001400446e0     libucrtd:output.obj
 0002:00002730       ??_C@_1EO@GHKFGFKL@?$AA?$CI?$AA?$CC?$AAI?$AAn?$AAv?$AAa?$AAl?$AAi?$AAd?$AA?5?$AAi?$AAn?$AAt?$AAe?$AAg@ 0000000140044730     libucrtd:output.obj
 0002:00002780       ??_C@_1BEC@NDOOKIMC@?$AA_?$AA_?$AAc?$AAr?$AAt?$AA_?$AAs?$AAt?$AAd?$AAi?$AAo?$AA_?$AAo?$AAu?$AAt@ 0000000140044780     libucrtd:output.obj
 0002:000028d0       ??_C@_1BDG@KOLEFKPF@?$AA_?$AA_?$AAc?$AAr?$AAt?$AA_?$AAs?$AAt?$AAd?$AAi?$AAo?$AA_?$AAo?$AAu?$AAt@ 00000001400448d0     libucrtd:output.obj
 0002:00002a10       ??_C@_1BKI@CJEIGDAI@?$AA_?$AA_?$AAc?$AAr?$AAt?$AA_?$AAs?$AAt?$AAd?$AAi?$AAo?$AA_?$AAo?$AAu?$AAt@ 0000000140044a10     libucrtd:output.obj
 0002:00002bb8       ??_C@_1O@CEDCILHN@?$AA?$CI?$AAn?$AAu?$AAl?$AAl?$AA?$CJ@ 0000000140044bb8     libucrtd:output.obj
 0002:00002bc8       ??_C@_06OJHGLDPL@?$CInull?$CJ@ 0000000140044bc8     libucrtd:output.obj
 0002:00002bd0       ??_C@_1CK@LGDCECDH@?$AA_?$AAf?$AAo?$AAr?$AAm?$AAa?$AAt?$AA_?$AAc?$AAh?$AAa?$AAr?$AA?5?$AA?$CB?$AA?$DN@ 0000000140044bd0     libucrtd:output.obj
 0002:00002c00       ??_C@_1BMA@FANDDEHK@?$AA_?$AA_?$AAc?$AAr?$AAt?$AA_?$AAs?$AAt?$AAd?$AAi?$AAo?$AA_?$AAo?$AAu?$AAt@ 0000000140044c00     libucrtd:output.obj
 0002:00002dc0       ??_C@_0DI@KIFBHMNO@minkernel?2crts?2ucrt?2inc?2corecrt@ 0000000140044dc0     libucrtd:output.obj
 0002:00002e00       ??_C@_1BLE@IFBJPNFE@?$AA_?$AA_?$AAc?$AAr?$AAt?$AA_?$AAs?$AAt?$AAd?$AAi?$AAo?$AA_?$AAo?$AAu?$AAt@ 0000000140044e00     libucrtd:output.obj
 0002:00002fc0       ??_C@_1BMK@JGIBNIA@?$AA_?$AA_?$AAc?$AAr?$AAt?$AA_?$AAs?$AAt?$AAd?$AAi?$AAo?$AA_?$AAo?$AAu?$AAt@ 0000000140044fc0     libucrtd:output.obj
 0002:00003190       ??_C@_1BLC@INKIGOCN@?$AA_?$AA_?$AAc?$AAr?$AAt?$AA_?$AAs?$AAt?$AAd?$AAi?$AAo?$AA_?$AAo?$AAu?$AAt@ 0000000140045190     libucrtd:output.obj
 0002:00003350       ??_C@_1BNK@KHNJGCCP@?$AA_?$AA_?$AAc?$AAr?$AAt?$AA_?$AAs?$AAt?$AAd?$AAi?$AAo?$AA_?$AAo?$AAu?$AAt@ 0000000140045350     libucrtd:output.obj
 0002:00003530       ??_C@_1BNO@OHFFMOOJ@?$AA_?$AA_?$AAc?$AAr?$AAt?$AA_?$AAs?$AAt?$AAd?$AAi?$AAo?$AA_?$AAo?$AAu?$AAt@ 0000000140045530     libucrtd:output.obj
 0002:00003710       ??_C@_1BMC@FAGJFBLI@?$AA_?$AA_?$AAc?$AAr?$AAt?$AA_?$AAs?$AAt?$AAd?$AAi?$AAo?$AA_?$AAo?$AAu?$AAt@ 0000000140045710     libucrtd:output.obj
 0002:000038e0       ??_C@_1BMG@CGPDIFDK@?$AA_?$AA_?$AAc?$AAr?$AAt?$AA_?$AAs?$AAt?$AAd?$AAi?$AAo?$AA_?$AAo?$AAu?$AAt@ 00000001400458e0     libucrtd:output.obj
 0002:00003ab0       ??_C@_1BNC@OHPDPPJK@?$AA_?$AA_?$AAc?$AAr?$AAt?$AA_?$AAs?$AAt?$AAd?$AAi?$AAo?$AA_?$AAo?$AAu?$AAt@ 0000000140045ab0     libucrtd:output.obj
 0002:00003c90       ??_C@_1BLK@FOLFMPJH@?$AA_?$AA_?$AAc?$AAr?$AAt?$AA_?$AAs?$AAt?$AAd?$AAi?$AAo?$AA_?$AAo?$AAu?$AAt@ 0000000140045c90     libucrtd:output.obj
 0002:00003e50       ??_C@_1BNC@JPKLPOHO@?$AA_?$AA_?$AAc?$AAr?$AAt?$AA_?$AAs?$AAt?$AAd?$AAi?$AAo?$AA_?$AAo?$AAu?$AAt@ 0000000140045e50     libucrtd:output.obj
 0002:00004030       ??_C@_1EO@MLJCKPIB@?$AAb?$AAa?$AAs?$AAe?$AA?5?$AA?$DN?$AA?$DN?$AA?5?$AA0?$AA?5?$AA?$HM?$AA?$HM?$AA?5?$AA?$CI?$AA2@ 0000000140046030     libucrtd:output.obj
 0002:00004080       ??_C@_1DI@BANODKFL@?$AA_?$AA_?$AAc?$AAr?$AAt?$AA_?$AAs?$AAt?$AAr?$AAt?$AAo?$AAx?$AA?3?$AA?3?$AAp@ 0000000140046080     libucrtd:output.obj
 0002:000040c0       ??_C@_1BNO@NAODCKFA@?$AA_?$AA_?$AAc?$AAr?$AAt?$AA_?$AAs?$AAt?$AAd?$AAi?$AAo?$AA_?$AAo?$AAu?$AAt@ 00000001400460c0     libucrtd:output.obj
 0002:000042a0       ??_C@_1BMG@BBEFGBID@?$AA_?$AA_?$AAc?$AAr?$AAt?$AA_?$AAs?$AAt?$AAd?$AAi?$AAo?$AA_?$AAo?$AAu?$AAt@ 00000001400462a0     libucrtd:output.obj
 0002:00004468       ??_C@_1CM@GJENOOEJ@?$AAc?$AA?5?$AA?$DN?$AA?$DN?$AA?5?$AA?8?$AA?2?$AA0?$AA?8?$AA?5?$AA?$HM?$AA?$HM?$AA?5?$AA?$CK?$AA_@ 0000000140046468     libucrtd:output.obj
 0002:000044a0       ??_C@_1GK@MNHIDABG@?$AA_?$AA_?$AAc?$AAr?$AAt?$AA_?$AAs?$AAt?$AAr?$AAt?$AAo?$AAx?$AA?3?$AA?3?$AAc@ 00000001400464a0     libucrtd:output.obj
 0002:00004510       ??_C@_1BM@PNEBBBDO@?$AA_?$AAp?$AA?5?$AA?$CB?$AA?$DN?$AA?5?$AAn?$AAu?$AAl?$AAl?$AAp?$AAt?$AAr@ 0000000140046510     libucrtd:output.obj
 0002:00004530       ??_C@_1HA@MKKIHBHP@?$AA_?$AA_?$AAc?$AAr?$AAt?$AA_?$AAs?$AAt?$AAr?$AAt?$AAo?$AAx?$AA?3?$AA?3?$AAc@ 0000000140046530     libucrtd:output.obj
 0002:000045a0       ??_C@_1HA@CONLANFI@?$AA_?$AA_?$AAc?$AAr?$AAt?$AA_?$AAs?$AAt?$AAr?$AAt?$AAo?$AAx?$AA?3?$AA?3?$AAc@ 00000001400465a0     libucrtd:output.obj
 0002:00004610       ??_C@_1HG@FCDBLOEG@?$AA_?$AA_?$AAc?$AAr?$AAt?$AA_?$AAs?$AAt?$AAr?$AAt?$AAo?$AAx?$AA?3?$AA?3?$AAc@ 0000000140046610     libucrtd:output.obj
 0002:00004690       __acrt_exception_action_table 0000000140046690     libucrtd:exception_filter.obj
 0002:00004750       __acrt_signal_action_table_count 0000000140046750     libucrtd:exception_filter.obj
 0002:00004758       __acrt_signal_action_first_fpe_index 0000000140046758     libucrtd:exception_filter.obj
 0002:00004760       __acrt_signal_action_fpe_count 0000000140046760     libucrtd:exception_filter.obj
 0002:00004770       ??_C@_1IC@DCNEKBE@?$AAm?$AAi?$AAn?$AAk?$AAe?$AAr?$AAn?$AAe?$AAl?$AA?2?$AAc?$AAr?$AAt?$AAs?$AA?2@ 0000000140046770     libucrtd:report_runtime_error.obj
 0002:000047f8       ??_C@_1DI@BLFJHKKP@?$AA_?$AA_?$AAa?$AAc?$AAr?$AAt?$AA_?$AAr?$AAe?$AAp?$AAo?$AAr?$AAt?$AA_?$AAr@ 00000001400467f8     libucrtd:report_runtime_error.obj
 0002:00004830       ??_C@_1LE@MHPGJGKE@?$AAw?$AAc?$AAs?$AAc?$AAp?$AAy?$AA_?$AAs?$AA?$CI?$AAo?$AAu?$AAt?$AAm?$AAs?$AAg@ 0000000140046830     libucrtd:report_runtime_error.obj
 0002:000048e8       ??_C@_1DE@JNGNBFGO@?$AAR?$AAu?$AAn?$AAt?$AAi?$AAm?$AAe?$AA?5?$AAE?$AAr?$AAr?$AAo?$AAr?$AA?$CB?$AA?6@ 00000001400468e8     libucrtd:report_runtime_error.obj
 0002:00004920       ??_C@_1HK@FJJNAABO@?$AAw?$AAc?$AAs?$AAc?$AAp?$AAy?$AA_?$AAs?$AA?$CI?$AAp?$AAr?$AAo?$AAg?$AAn?$AAa@ 0000000140046920     libucrtd:report_runtime_error.obj
 0002:000049a0       ??_C@_1CO@EAEJAADC@?$AA?$DM?$AAp?$AAr?$AAo?$AAg?$AAr?$AAa?$AAm?$AA?5?$AAn?$AAa?$AAm?$AAe?$AA?5?$AAu@ 00000001400469a0     libucrtd:report_runtime_error.obj
 0002:000049d0       ??_C@_1HI@FLHKGEBE@?$AAw?$AAc?$AAs?$AAn?$AAc?$AAp?$AAy?$AA_?$AAs?$AA?$CI?$AAp?$AAc?$AAh?$AA?0?$AA?5@ 00000001400469d0     libucrtd:report_runtime_error.obj
 0002:00004a48       ??_C@_17LGKOMLJ@?$AA?4?$AA?4?$AA?4@ 0000000140046a48     libucrtd:report_runtime_error.obj
 0002:00004a50       ??_C@_1IG@MNNKBLBI@?$AAw?$AAc?$AAs?$AAc?$AAa?$AAt?$AA_?$AAs?$AA?$CI?$AAo?$AAu?$AAt?$AAm?$AAs?$AAg@ 0000000140046a50     libucrtd:report_runtime_error.obj
 0002:00004ad8       ??_C@_15IABLJNFO@?$AA?6?$AA?6@ 0000000140046ad8     libucrtd:report_runtime_error.obj
 0002:00004ae0       ??_C@_1IG@DFBBBDAN@?$AAw?$AAc?$AAs?$AAc?$AAa?$AAt?$AA_?$AAs?$AA?$CI?$AAo?$AAu?$AAt?$AAm?$AAs?$AAg@ 0000000140046ae0     libucrtd:report_runtime_error.obj
 0002:00004b70       ??_C@_1EK@MBDPDCGA@?$AAM?$AAi?$AAc?$AAr?$AAo?$AAs?$AAo?$AAf?$AAt?$AA?5?$AAV?$AAi?$AAs?$AAu?$AAa@ 0000000140046b70     libucrtd:report_runtime_error.obj
 0002:00004be8       ??_C@_0DI@KNDIGDEP@minkernel?2crts?2ucrt?2src?2appcrt?2@ 0000000140046be8     libucrtd:argv_parsing.obj
 0002:00004c20       ??_C@_1JO@PGBIJBAM@?$AAm?$AAo?$AAd?$AAe?$AA?5?$AA?$DN?$AA?$DN?$AA?5?$AA_?$AAc?$AAr?$AAt?$AA_?$AAa?$AAr@ 0000000140046c20     libucrtd:argv_parsing.obj
 0002:00004cc0       ??_C@_1HA@JMLCANEE@?$AAm?$AAi?$AAn?$AAk?$AAe?$AAr?$AAn?$AAe?$AAl?$AA?2?$AAc?$AAr?$AAt?$AAs?$AA?2@ 0000000140046cc0     libucrtd:argv_parsing.obj
 0002:00004d30       ??_C@_1CM@LHOJELIC@?$AAc?$AAo?$AAm?$AAm?$AAo?$AAn?$AA_?$AAc?$AAo?$AAn?$AAf?$AAi?$AAg?$AAu?$AAr@ 0000000140046d30     libucrtd:argv_parsing.obj
 0002:00004db0       ??_C@_0EG@LEHKHOEH@minkernel?2crts?2ucrt?2src?2desktop@ 0000000140046db0     libucrtd:environment_initialization.obj
 0002:00004e00       ??_C@_1IM@IMOFFPLG@?$AAm?$AAi?$AAn?$AAk?$AAe?$AAr?$AAn?$AAe?$AAl?$AA?2?$AAc?$AAr?$AAt?$AAs?$AA?2@ 0000000140046e00     libucrtd:environment_initialization.obj
 0002:00004e90       ??_C@_1CG@MNNNBNAK@?$AAc?$AAr?$AAe?$AAa?$AAt?$AAe?$AA_?$AAe?$AAn?$AAv?$AAi?$AAr?$AAo?$AAn?$AAm@ 0000000140046e90     libucrtd:environment_initialization.obj
 0002:00004ec0       ??_C@_1HI@OOPIFFGA@?$AAt?$AAr?$AAa?$AAi?$AAt?$AAs?$AA?3?$AA?3?$AAt?$AAc?$AAs?$AAc?$AAp?$AAy?$AA_@ 0000000140046ec0     libucrtd:environment_initialization.obj
 0002:00004fb0       ??_C@_1BI@BGOHAHKC@?$AAm?$AAs?$AAc?$AAo?$AAr?$AAe?$AAe?$AA?4?$AAd?$AAl?$AAl@ 0000000140046fb0     libucrtd:exit.obj
 0002:00004fc8       ??_C@_0P@MIGLKIOC@CorExitProcess@ 0000000140046fc8     libucrtd:exit.obj
 0002:00004fe0       ??_C@_1GC@CIJNGKLD@?$AAm?$AAi?$AAn?$AAk?$AAe?$AAr?$AAn?$AAe?$AAl?$AA?2?$AAc?$AAr?$AAt?$AAs?$AA?2@ 0000000140046fe0     libucrtd:setmode.obj
 0002:00005050       ??_C@_1FO@LPCLHKGE@?$AA?$CI?$AAf?$AAh?$AA?5?$AA?$DO?$AA?$DN?$AA?5?$AA0?$AA?5?$AA?$CG?$AA?$CG?$AA?5?$AA?$CI?$AAu?$AAn@ 0000000140047050     libucrtd:setmode.obj
 0002:000050b0       ??_C@_1CM@OKGMMMDH@?$AA?$CI?$AA_?$AAo?$AAs?$AAf?$AAi?$AAl?$AAe?$AA?$CI?$AAf?$AAh?$AA?$CJ?$AA?5?$AA?$CG?$AA?5@ 00000001400470b0     libucrtd:setmode.obj
 0002:000050e0       ??_C@_1JE@ECKHFIFP@?$AA?$CI?$AA?$CC?$AAI?$AAn?$AAv?$AAa?$AAl?$AAi?$AAd?$AA?5?$AAf?$AAi?$AAl?$AAe?$AA?5@ 00000001400470e0     libucrtd:setmode.obj
 0002:00005180       ??_C@_1HC@GNDCDMJL@?$AAm?$AAo?$AAd?$AAe?$AA?5?$AA?$DN?$AA?$DN?$AA?5?$AA_?$AAO?$AA_?$AAT?$AAE?$AAX?$AAT@ 0000000140047180     libucrtd:setmode.obj
 0002:000051f8       ??_C@_1BG@IEEHLOCL@?$AA_?$AAs?$AAe?$AAt?$AA_?$AAf?$AAm?$AAo?$AAd?$AAe@ 00000001400471f8     libucrtd:setmode.obj
 0002:00005260       ??_C@_1GA@LDEGDKD@?$AA?$CI?$AA?$CC?$AAI?$AAn?$AAv?$AAa?$AAl?$AAi?$AAd?$AA?5?$AAp?$AAa?$AAr?$AAa?$AAm@ 0000000140047260     libucrtd:wsetlocale.obj
 0002:000052c0       ??_C@_1GK@DPKNLBIE@?$AAm?$AAi?$AAn?$AAk?$AAe?$AAr?$AAn?$AAe?$AAl?$AA?2?$AAc?$AAr?$AAt?$AAs?$AA?2@ 00000001400472c0     libucrtd:wsetlocale.obj
 0002:00005330       ??_C@_1CI@FGIONOJM@?$AA_?$AAc?$AAo?$AAn?$AAf?$AAi?$AAg?$AAt?$AAh?$AAr?$AAe?$AAa?$AAd?$AAl?$AAo@ 0000000140047330     libucrtd:wsetlocale.obj
 0002:00005358       ??_C@_1CO@JKFLNGDK@?$AAm?$AAo?$AAd?$AAe?$AA?5?$AA?$DN?$AA?$DN?$AA?5?$AA0?$AA?5?$AA?$HM?$AA?$HM?$AA?5?$AAm?$AAo@ 0000000140047358     libucrtd:new_mode.obj
 0002:00005390       ??_C@_1GC@PJMKBHEK@?$AAm?$AAi?$AAn?$AAk?$AAe?$AAr?$AAn?$AAe?$AAl?$AA?2?$AAc?$AAr?$AAt?$AAs?$AA?2@ 0000000140047390     libucrtd:new_mode.obj
 0002:000053f8       ??_C@_1BM@PDPAKJNF@?$AA_?$AAs?$AAe?$AAt?$AA_?$AAn?$AAe?$AAw?$AA_?$AAm?$AAo?$AAd?$AAe@ 00000001400473f8     libucrtd:new_mode.obj
 0002:00005490       ??_C@_0DC@NBHMIIKL@minkernel?2crts?2ucrt?2src?2appcrt?2@ 0000000140047490     libucrtd:onexit.obj
 0002:00005620       ??_C@_04HJMOFLDF@Free@     0000000140047620     libucrtd:debug_heap.obj
 0002:00005628       ??_C@_06EFAGIKOH@Normal@   0000000140047628     libucrtd:debug_heap.obj
 0002:00005630       ??_C@_03OGPFLFLO@CRT@      0000000140047630     libucrtd:debug_heap.obj
 0002:00005634       ??_C@_06KMEJCCGM@Ignore@   0000000140047634     libucrtd:debug_heap.obj
 0002:0000563c       ??_C@_06PJIGMIJB@Client@   000000014004763c     libucrtd:debug_heap.obj
 0002:000056c0       ??_C@_1CE@LJFEPPMP@?$AA_?$AAC?$AAr?$AAt?$AAC?$AAh?$AAe?$AAc?$AAk?$AAM?$AAe?$AAm?$AAo?$AAr?$AAy@ 00000001400476c0     libucrtd:debug_heap.obj
 0002:000056f0       ??_C@_1GG@OCLHPJPK@?$AAm?$AAi?$AAn?$AAk?$AAe?$AAr?$AAn?$AAe?$AAl?$AA?2?$AAc?$AAr?$AAt?$AAs?$AA?2@ 00000001400476f0     libucrtd:debug_heap.obj
 0002:00005758       ??_C@_0DF@BBEGIFEK@Client?5hook?5allocation?5failure?5@ 0000000140047758     libucrtd:debug_heap.obj
 0002:00005790       ??_C@_0CB@CCLOLAHO@Client?5hook?5allocation?5failure?4@ 0000000140047790     libucrtd:debug_heap.obj
 0002:000057b8       ??_C@_0DC@JEMAGEKG@Error?3?5memory?5allocation?3?5bad?5m@ 00000001400477b8     libucrtd:debug_heap.obj
 0002:000057f0       ??_C@_0DI@KKJPDPGM@Client?5hook?5re?9allocation?5failu@ 00000001400477f0     libucrtd:debug_heap.obj
 0002:00005828       ??_C@_0CE@DOFMDOL@Client?5hook?5re?9allocation?5failu@ 0000000140047828     libucrtd:debug_heap.obj
 0002:00005850       ??_C@_0FA@EFEIGJKG@Error?3?5memory?5allocation?3?5bad?5m@ 0000000140047850     libucrtd:debug_heap.obj
 0002:000058a0       ??_C@_0EM@LGFLMAGJ@The?5Block?5at?50x?$CFp?5was?5allocated@ 00000001400478a0     libucrtd:debug_heap.obj
 0002:000058f0       ??_C@_1DM@DEDLGNML@?$AA_?$AAC?$AAr?$AAt?$AAI?$AAs?$AAV?$AAa?$AAl?$AAi?$AAd?$AAH?$AAe?$AAa?$AAp@ 00000001400478f0     libucrtd:debug_heap.obj
 0002:00005930       ??_C@_1PC@MCGKJLN@?$AAo?$AAl?$AAd?$AA_?$AAh?$AAe?$AAa?$AAd?$AA?9?$AA?$DO?$AA_?$AAl?$AAi?$AAn?$AAe@ 0000000140047930     libucrtd:debug_heap.obj
 0002:00005a28       ??_C@_0DA@HFBKENN@Error?3?5possible?5heap?5corruption@ 0000000140047a28     libucrtd:debug_heap.obj
 0002:00005a60       ??_C@_1JM@MCMEPJEP@?$AAr?$AAe?$AAa?$AAl?$AAl?$AAo?$AAc?$AAa?$AAt?$AAi?$AAo?$AAn?$AA_?$AAi?$AAs@ 0000000140047a60     libucrtd:debug_heap.obj
 0002:00005b00       ??_C@_1DM@LNOPKAIJ@?$AA_?$AA_?$AAa?$AAc?$AAr?$AAt?$AA_?$AAl?$AAa?$AAs?$AAt?$AA_?$AAb?$AAl?$AAo@ 0000000140047b00     libucrtd:debug_heap.obj
 0002:00005b40       ??_C@_1DO@HABCJBHO@?$AA_?$AA_?$AAa?$AAc?$AAr?$AAt?$AA_?$AAf?$AAi?$AAr?$AAs?$AAt?$AA_?$AAb?$AAl@ 0000000140047b40     libucrtd:debug_heap.obj
 0002:00005b80       ??_C@_1CC@CKEAHJPH@?$AAb?$AAl?$AAo?$AAc?$AAk?$AA?5?$AA?$CB?$AA?$DN?$AA?5?$AAn?$AAu?$AAl?$AAl?$AAp?$AAt@ 0000000140047b80     libucrtd:debug_heap.obj
 0002:00005bb0       ??_C@_0EJ@HEIBCIMJ@The?5Block?5at?50x?$CFp?5was?5allocated@ 0000000140047bb0     libucrtd:debug_heap.obj
 0002:00005c00       ??_C@_0BL@KEIPLFAC@Client?5hook?5free?5failure?4?6@ 0000000140047c00     libucrtd:debug_heap.obj
 0002:00005c20       ??_C@_1FA@KDNEBILF@?$AAi?$AAs?$AA_?$AAb?$AAl?$AAo?$AAc?$AAk?$AA_?$AAt?$AAy?$AAp?$AAe?$AA_?$AAv@ 0000000140047c20     libucrtd:debug_heap.obj
 0002:00005c70       ??_C@_0KI@JGFOHMEB@HEAP?5CORRUPTION?5DETECTED?3?5befor@ 0000000140047c70     libucrtd:debug_heap.obj
 0002:00005d20       ??_C@_0IK@PJCGLBOB@HEAP?5CORRUPTION?5DETECTED?3?5befor@ 0000000140047d20     libucrtd:debug_heap.obj
 0002:00005db0       ??_C@_0KE@MBMNHHHN@HEAP?5CORRUPTION?5DETECTED?3?5after@ 0000000140047db0     libucrtd:debug_heap.obj
 0002:00005e60       ??_C@_0IG@LEMBDCJK@HEAP?5CORRUPTION?5DETECTED?3?5after@ 0000000140047e60     libucrtd:debug_heap.obj
 0002:00005ef0       ??_C@_1OK@GFEOEJAF@?$AAh?$AAe?$AAa?$AAd?$AAe?$AAr?$AA?9?$AA?$DO?$AA_?$AAl?$AAi?$AAn?$AAe?$AA_?$AAn@ 0000000140047ef0     libucrtd:debug_heap.obj
 0002:00005fe0       ??_C@_1ME@GFALMLNA@?$AAh?$AAe?$AAa?$AAd?$AAe?$AAr?$AA?9?$AA?$DO?$AA_?$AAb?$AAl?$AAo?$AAc?$AAk?$AA_@ 0000000140047fe0     libucrtd:debug_heap.obj
 0002:000060a8       ??_C@_1DI@ILNOPEPI@?$AA_?$AA_?$AAa?$AAc?$AAr?$AAt?$AA_?$AAl?$AAa?$AAs?$AAt?$AA_?$AAb?$AAl?$AAo@ 00000001400480a8     libucrtd:debug_heap.obj
 0002:000060e0       ??_C@_1DK@KEHFGDIJ@?$AA_?$AA_?$AAa?$AAc?$AAr?$AAt?$AA_?$AAf?$AAi?$AAr?$AAs?$AAt?$AA_?$AAb?$AAl@ 00000001400480e0     libucrtd:debug_heap.obj
 0002:00006120       ??_C@_1BG@MBKOGDLD@?$AA_?$AAm?$AAs?$AAi?$AAz?$AAe?$AA_?$AAd?$AAb?$AAg@ 0000000140048120     libucrtd:debug_heap.obj
 0002:00006138       ??_C@_07OHKEFPKJ@DAMAGED@  0000000140048138     libucrtd:debug_heap.obj
 0002:00006140       ??_C@_0KA@IHNJJKPL@HEAP?5CORRUPTION?5DETECTED?3?5on?5to@ 0000000140048140     libucrtd:debug_heap.obj
 0002:000061e0       ??_C@_0IC@BBJIOOJH@HEAP?5CORRUPTION?5DETECTED?3?5on?5to@ 00000001400481e0     libucrtd:debug_heap.obj
 0002:00006270       ??_C@_0EG@DGJMPDBH@?$CFhs?5located?5at?50x?$CFp?5is?5?$CFIu?5byte@ 0000000140048270     libucrtd:debug_heap.obj
 0002:000062b8       ??_C@_0CI@JMLBEDHJ@?$CFhs?5located?5at?50x?$CFp?5is?5?$CFIu?5byte@ 00000001400482b8     libucrtd:debug_heap.obj
 0002:000062e0       ??_C@_0EG@GPFHANHO@Cycle?5in?5block?5list?5detected?5wh@ 00000001400482e0     libucrtd:debug_heap.obj
 0002:00006328       ??_C@_0BJ@ELMAOCAJ@Heap?5validation?5failed?4?6@ 0000000140048328     libucrtd:debug_heap.obj
 0002:00006350       ??_C@_1IE@BBIFDGEB@?$AAn?$AAe?$AAw?$AA_?$AAb?$AAi?$AAt?$AAs?$AA?5?$AA?$DN?$AA?$DN?$AA?5?$AA_?$AAC?$AAR@ 0000000140048350     libucrtd:debug_heap.obj
 0002:000063d8       ??_C@_1BO@GJFDNMNF@?$AA_?$AAC?$AAr?$AAt?$AAS?$AAe?$AAt?$AAD?$AAb?$AAg?$AAF?$AAl?$AAa?$AAg@ 00000001400483d8     libucrtd:debug_heap.obj
 0002:000063f8       ??_C@_1CC@BBKMONGA@?$AAs?$AAt?$AAa?$AAt?$AAe?$AA?5?$AA?$CB?$AA?$DN?$AA?5?$AAn?$AAu?$AAl?$AAl?$AAp?$AAt@ 00000001400483f8     libucrtd:debug_heap.obj
 0002:00006420       ??_C@_1CE@NJJKELF@?$AA_?$AAC?$AAr?$AAt?$AAM?$AAe?$AAm?$AAC?$AAh?$AAe?$AAc?$AAk?$AAp?$AAo?$AAi@ 0000000140048420     libucrtd:debug_heap.obj
 0002:00006448       ??_C@_0DP@LEFMFBOD@Bad?5memory?5block?5found?5at?50x?$CFp?4@ 0000000140048448     libucrtd:debug_heap.obj
 0002:00006488       ??_C@_0CB@EAAIGELO@Bad?5memory?5block?5found?5at?50x?$CFp?4@ 0000000140048488     libucrtd:debug_heap.obj
 0002:000064ac       ??_C@_05MKKEDADM@?$CF?42X?5@ 00000001400484ac     libucrtd:debug_heap.obj
 0002:000064b8       ??_C@_1CC@DIJAHFFJ@?$AAp?$AAr?$AAi?$AAn?$AAt?$AA_?$AAb?$AAl?$AAo?$AAc?$AAk?$AA_?$AAd?$AAa?$AAt@ 00000001400484b8     libucrtd:debug_heap.obj
 0002:000064e0       ??_C@_1BI@KALLJECN@?$AA?$CI?$AA?$CK?$AA_?$AAe?$AAr?$AAr?$AAn?$AAo?$AA?$CI?$AA?$CJ?$AA?$CJ@ 00000001400484e0     libucrtd:debug_heap.obj
 0002:000064f8       ??_C@_0BA@HJBKCELP@?5Data?3?5?$DM?$CFs?$DO?5?$CFs?6@ 00000001400484f8     libucrtd:debug_heap.obj
 0002:00006508       ??_C@_0BE@KCIPKCIA@Dumping?5objects?5?9?$DO?6@ 0000000140048508     libucrtd:debug_heap.obj
 0002:00006520       ??_C@_0BE@OIEFNFL@?$CDFile?5Error?$CD?$CI?$CFd?$CJ?5?3?5@ 0000000140048520     libucrtd:debug_heap.obj
 0002:00006538       ??_C@_0L@JMEFFCCJ@?$CFhs?$CI?$CFd?$CJ?5?3?5@ 0000000140048538     libucrtd:debug_heap.obj
 0002:00006544       ??_C@_06PKLGBFGM@?$HL?$CFld?$HN?5@ 0000000140048544     libucrtd:debug_heap.obj
 0002:00006550       ??_C@_0DD@GHNAAKBB@client?5block?5at?50x?$CFp?0?5subtype?5?$CF@ 0000000140048550     libucrtd:debug_heap.obj
 0002:00006588       ??_C@_0CH@FAGDDGPN@normal?5block?5at?50x?$CFp?0?5?$CFIu?5bytes@ 0000000140048588     libucrtd:debug_heap.obj
 0002:000065b0       ??_C@_0DA@MDLBNIBM@crt?5block?5at?50x?$CFp?0?5subtype?5?$CFx?0?5@ 00000001400485b0     libucrtd:debug_heap.obj
 0002:000065e0       ??_C@_0BH@GFGKJDCO@Object?5dump?5complete?4?6@ 00000001400485e0     libucrtd:debug_heap.obj
 0002:000065f8       ??_C@_0BI@JBFPOEJA@Detected?5memory?5leaks?$CB?6@ 00000001400485f8     libucrtd:debug_heap.obj
 0002:00006610       ??_C@_1GI@BBAEIKL@?$AA?$CI?$AA?$CI?$AAd?$AAe?$AAs?$AAt?$AAi?$AAn?$AAa?$AAt?$AAi?$AAo?$AAn?$AA?$CJ?$AA?$CJ@ 0000000140048610     libucrtd:strcpy_s.obj
 0002:00006680       ??_C@_1HI@PBJPCEBC@?$AAm?$AAi?$AAn?$AAk?$AAe?$AAr?$AAn?$AAe?$AAl?$AA?2?$AAc?$AAr?$AAt?$AAs?$AA?2@ 0000000140048680     libucrtd:strcpy_s.obj
 0002:000066f8       ??_C@_1CA@FHIAGDFH@?$AAc?$AAo?$AAm?$AAm?$AAo?$AAn?$AA_?$AAt?$AAc?$AAs?$AAc?$AAp?$AAy?$AA_?$AAs@ 00000001400486f8     libucrtd:strcpy_s.obj
 0002:00006718       ??_C@_1CK@EIOKGPJL@?$AA?$CI?$AA?$CI?$AA?$CI?$AAs?$AAo?$AAu?$AAr?$AAc?$AAe?$AA?$CJ?$AA?$CJ?$AA?$CJ?$AA?5?$AA?$CB?$AA?$DN@ 0000000140048718     libucrtd:strcpy_s.obj
 0002:00006748       ??_C@_1CI@HCPHDDLE@?$AAB?$AAu?$AAf?$AAf?$AAe?$AAr?$AA?5?$AAi?$AAs?$AA?5?$AAt?$AAo?$AAo?$AA?5?$AAs@ 0000000140048748     libucrtd:strcpy_s.obj
 0002:00006770       ??_C@_1DM@MADKGDLO@?$AA?$CI?$AAL?$AA?$CC?$AAB?$AAu?$AAf?$AAf?$AAe?$AAr?$AA?5?$AAi?$AAs?$AA?5?$AAt?$AAo@ 0000000140048770     libucrtd:strcpy_s.obj
 0002:000067b0       ??_C@_1DA@LLLMNMKI@?$AAa?$AAb?$AAo?$AAr?$AAt?$AA?$CI?$AA?$CJ?$AA?5?$AAh?$AAa?$AAs?$AA?5?$AAb?$AAe?$AAe@ 00000001400487b0     libucrtd:abort.obj
 0002:000067f8       ??_C@_1BA@GLMCNLEM@?$AAW?$AAa?$AAr?$AAn?$AAi?$AAn?$AAg@ 00000001400487f8     libucrtd:dbgrpt.obj
 0002:00006808       ??_C@_1M@ILHOPKA@?$AAE?$AAr?$AAr?$AAo?$AAr@ 0000000140048808     libucrtd:dbgrpt.obj
 0002:00006818       ??_C@_1CC@CGHMNGDG@?$AAA?$AAs?$AAs?$AAe?$AAr?$AAt?$AAi?$AAo?$AAn?$AA?5?$AAF?$AAa?$AAi?$AAl?$AAe@ 0000000140048818     libucrtd:dbgrpt.obj
 0002:00006850       ??_C@_1OG@PMPPFHAF@?$AA?6?$AA?6?$AAF?$AAo?$AAr?$AA?5?$AAi?$AAn?$AAf?$AAo?$AAr?$AAm?$AAa?$AAt?$AAi@ 0000000140048850     libucrtd:dbgrpt.obj
 0002:00006940       ??_C@_1MG@LJLILFFD@?$AAD?$AAe?$AAb?$AAu?$AAg?$AA?5?$AA?$CF?$AAl?$AAs?$AA?$CB?$AA?6?$AA?6?$AAP?$AAr?$AAo@ 0000000140048940     libucrtd:dbgrpt.obj
 0002:00006a10       ??_C@_1MG@OODCADGL@?$AAD?$AAe?$AAb?$AAu?$AAg?$AA?5?$AA?$CF?$AAl?$AAs?$AA?$CB?$AA?6?$AA?6?$AAP?$AAr?$AAo@ 0000000140048a10     libucrtd:dbgrpt.obj
 0002:00006ad8       ??_C@_0BH@DNAGHKFM@?$DMprogram?5name?5unknown?$DO@ 0000000140048ad8     libucrtd:dbgrpt.obj
 0002:00006af0       ??_C@_1FO@GMJDLAJD@?$AAm?$AAi?$AAn?$AAk?$AAe?$AAr?$AAn?$AAe?$AAl?$AA?2?$AAc?$AAr?$AAt?$AAs?$AA?2@ 0000000140048af0     libucrtd:dbgrpt.obj
 0002:00006b50       ??_C@_1CM@EHMOGBJJ@?$AAc?$AAo?$AAm?$AAm?$AAo?$AAn?$AA_?$AAm?$AAe?$AAs?$AAs?$AAa?$AAg?$AAe?$AA_@ 0000000140048b50     libucrtd:dbgrpt.obj
 0002:00006b80       ??_C@_1PE@ECNALGCA@?$AAt?$AAr?$AAa?$AAi?$AAt?$AAs?$AA?3?$AA?3?$AAt?$AAc?$AAs?$AAc?$AAp?$AAy?$AA_@ 0000000140048b80     libucrtd:dbgrpt.obj
 0002:00006c78       ??_C@_1BK@PEDCIPMA@?$AAE?$AAx?$AAp?$AAr?$AAe?$AAs?$AAs?$AAi?$AAo?$AAn?$AA?3?$AA?5@ 0000000140048c78     libucrtd:dbgrpt.obj
 0002:00006c98       ??_C@_1BA@GLLGCPCK@?$AA?6?$AAL?$AAi?$AAn?$AAe?$AA?3?$AA?5@ 0000000140048c98     libucrtd:dbgrpt.obj
 0002:00006ca8       ??_C@_1BA@LNHECFIM@?$AA?6?$AAF?$AAi?$AAl?$AAe?$AA?3?$AA?5@ 0000000140048ca8     libucrtd:dbgrpt.obj
 0002:00006cb8       ??_C@_1BE@CGCJKGHI@?$AA?6?$AAM?$AAo?$AAd?$AAu?$AAl?$AAe?$AA?3?$AA?5@ 0000000140048cb8     libucrtd:dbgrpt.obj
 0002:00006cd0       ??_C@_1JM@IBOIJEOO@?$AAw?$AAc?$AAs?$AAc?$AAp?$AAy?$AA_?$AAs?$AA?$CI?$AAm?$AAe?$AAs?$AAs?$AAa?$AAg@ 0000000140048cd0     libucrtd:dbgrpt.obj
 0002:00006d70       ??_C@_1FG@BBOLDHGF@?$AA_?$AAC?$AAr?$AAt?$AAD?$AAb?$AAg?$AAR?$AAe?$AAp?$AAo?$AAr?$AAt?$AA?3?$AA?5@ 0000000140048d70     libucrtd:dbgrpt.obj
 0002:00006f38       ??_C@_1CE@JMFACANE@?$AAr?$AAe?$AAs?$AAu?$AAl?$AAt?$AA?5?$AA?$CB?$AA?$DN?$AA?5?$AAn?$AAu?$AAl?$AAl?$AAp@ 0000000140048f38     libucrtd:errno.obj
 0002:00006fe0       ??_C@_03OEIAHPBN@INF@      0000000140048fe0     libucrtd:cvt.obj
 0002:00006fe4       ??_C@_03OJHLLCGB@inf@      0000000140048fe4     libucrtd:cvt.obj
 0002:00006fe8       ??_C@_03LKNCIKJB@NAN@      0000000140048fe8     libucrtd:cvt.obj
 0002:00006fec       ??_C@_03LHCJEHON@nan@      0000000140048fec     libucrtd:cvt.obj
 0002:00006ff0       ??_C@_09OFJJIMPC@NAN?$CISNAN?$CJ@ 0000000140048ff0     libucrtd:cvt.obj
 0002:00007000       ??_C@_09IPFBKMDL@nan?$CIsnan?$CJ@ 0000000140049000     libucrtd:cvt.obj
 0002:00007010       ??_C@_08IKHNHAJ@NAN?$CIIND?$CJ@ 0000000140049010     libucrtd:cvt.obj
 0002:00007020       ??_C@_08OFCDMILK@nan?$CIind?$CJ@ 0000000140049020     libucrtd:cvt.obj
 0002:00007030       ??_C@_1FO@GKAKAPLI@?$AAm?$AAi?$AAn?$AAk?$AAe?$AAr?$AAn?$AAe?$AAl?$AA?2?$AAc?$AAr?$AAt?$AAs?$AA?2@ 0000000140049030     libucrtd:cvt.obj
 0002:00007090       ??_C@_1DE@EHGIGIDK@?$AAf?$AAp?$AA_?$AAf?$AAo?$AAr?$AAm?$AAa?$AAt?$AA_?$AAn?$AAa?$AAn?$AA_?$AAo@ 0000000140049090     libucrtd:cvt.obj
 0002:000070d0       ??_C@_1LI@PCMLJPCO@?$AAs?$AAt?$AAr?$AAc?$AAp?$AAy?$AA_?$AAs?$AA?$CI?$AA?5?$AAr?$AAe?$AAs?$AAu?$AAl@ 00000001400490d0     libucrtd:cvt.obj
 0002:00007190       ??_C@_1KO@LJHOFBCD@?$AAr?$AAe?$AAs?$AAu?$AAl?$AAt?$AA_?$AAb?$AAu?$AAf?$AAf?$AAe?$AAr?$AA_?$AAc@ 0000000140049190     libucrtd:cvt.obj
 0002:00007240       ??_C@_1CK@BOLHOMFO@?$AAf?$AAp?$AA_?$AAf?$AAo?$AAr?$AAm?$AAa?$AAt?$AA_?$AAe?$AA_?$AAi?$AAn?$AAt@ 0000000140049240     libucrtd:cvt.obj
 0002:00007270       ??_C@_1BBE@LHDOMEDC@?$AAs?$AAt?$AAr?$AAc?$AAp?$AAy?$AA_?$AAs?$AA?$CI?$AA?5?$AAp?$AA?0?$AA?5?$AAr?$AAe@ 0000000140049270     libucrtd:cvt.obj
 0002:00007384       ??_C@_05KLBDPFGC@e?$CL000@ 0000000140049384     libucrtd:cvt.obj
 0002:00007390       ??_C@_1IC@FILKPBAB@?$AAr?$AAe?$AAs?$AAu?$AAl?$AAt?$AA_?$AAb?$AAu?$AAf?$AAf?$AAe?$AAr?$AA_?$AAc@ 0000000140049390     libucrtd:cvt.obj
 0002:00007418       ??_C@_1BI@PNBDLNBB@?$AAf?$AAp?$AA_?$AAf?$AAo?$AAr?$AAm?$AAa?$AAt?$AA_?$AAa@ 0000000140049418     libucrtd:cvt.obj
 0002:00007430       ??_C@_1DC@MGKAFPFD@?$AAr?$AAe?$AAs?$AAu?$AAl?$AAt?$AA_?$AAb?$AAu?$AAf?$AAf?$AAe?$AAr?$AA?5?$AA?$CB@ 0000000140049430     libucrtd:cvt.obj
 0002:00007468       ??_C@_1CC@LDAHJAKK@?$AA_?$AA_?$AAa?$AAc?$AAr?$AAt?$AA_?$AAf?$AAp?$AA_?$AAf?$AAo?$AAr?$AAm?$AAa@ 0000000140049468     libucrtd:cvt.obj
 0002:00007490       ??_C@_1DA@NMLJJOCO@?$AAr?$AAe?$AAs?$AAu?$AAl?$AAt?$AA_?$AAb?$AAu?$AAf?$AAf?$AAe?$AAr?$AA_?$AAc@ 0000000140049490     libucrtd:cvt.obj
 0002:000074c0       ??_C@_1DE@MNOPBCOK@?$AAs?$AAc?$AAr?$AAa?$AAt?$AAc?$AAh?$AA_?$AAb?$AAu?$AAf?$AAf?$AAe?$AAr?$AA?5@ 00000001400494c0     libucrtd:cvt.obj
 0002:000074f8       ??_C@_1DC@CKBKNFKH@?$AAs?$AAc?$AAr?$AAa?$AAt?$AAc?$AAh?$AA_?$AAb?$AAu?$AAf?$AAf?$AAe?$AAr?$AA_@ 00000001400494f8     libucrtd:cvt.obj
 0002:00007530       ??_C@_1EI@JAHBOGIM@?$AA?$CI?$AA?$CC?$AAU?$AAn?$AAs?$AAu?$AAp?$AAp?$AAo?$AAr?$AAt?$AAe?$AAd?$AA?5?$AAf@ 0000000140049530     libucrtd:cvt.obj
 0002:00007578       ??_C@_1DK@NBNOAGKB@?$AAd?$AAe?$AAs?$AAt?$AAi?$AAn?$AAa?$AAt?$AAi?$AAo?$AAn?$AA_?$AAc?$AAo?$AAu@ 0000000140049578     libucrtd:wctomb.obj
 0002:000075c0       ??_C@_1GE@FCCEPHFG@?$AAm?$AAi?$AAn?$AAk?$AAe?$AAr?$AAn?$AAe?$AAl?$AA?2?$AAc?$AAr?$AAt?$AAs?$AA?2@ 00000001400495c0     libucrtd:wctomb.obj
 0002:00007628       ??_C@_1CC@DNLKBKLK@?$AA_?$AAw?$AAc?$AAt?$AAo?$AAm?$AAb?$AA_?$AAi?$AAn?$AAt?$AAe?$AAr?$AAn?$AAa@ 0000000140049628     libucrtd:wctomb.obj
 0002:00007650       ??_C@_1CM@ENFEGCNE@?$AAd?$AAe?$AAs?$AAt?$AAi?$AAn?$AAa?$AAt?$AAi?$AAo?$AAn?$AA_?$AAc?$AAo?$AAu@ 0000000140049650     libucrtd:wctomb.obj
 0002:00007680       ??_C@_1MK@HFAFPEDL@?$AAl?$AAo?$AAc?$AAa?$AAl?$AAe?$AA?9?$AA?$DO?$AAl?$AAo?$AAc?$AAi?$AAn?$AAf?$AAo@ 0000000140049680     libucrtd:mbtowc.obj
 0002:00007750       ??_C@_1GE@CGIHMDEJ@?$AAm?$AAi?$AAn?$AAk?$AAe?$AAr?$AAn?$AAe?$AAl?$AA?2?$AAc?$AAr?$AAt?$AAs?$AA?2@ 0000000140049750     libucrtd:mbtowc.obj
 0002:000077c0       ??_C@_1HA@KNBGJAIN@?$AAU?$AAT?$AAF?$AA?9?$AA8?$AA?5?$AAi?$AAs?$AAn?$AA?8?$AAt?$AA?5?$AAs?$AAu?$AAp@ 00000001400497c0     libucrtd:mbtowc.obj
 0002:00007830       ??_C@_1OM@FCINAOPP@?$AAl?$AAo?$AAc?$AAa?$AAl?$AAe?$AA?9?$AA?$DO?$AAl?$AAo?$AAc?$AAi?$AAn?$AAf?$AAo@ 0000000140049830     libucrtd:mbtowc.obj
 0002:00007920       ??_C@_1GA@CPNOFAH@?$AAl?$AAo?$AAc?$AAa?$AAl?$AAe?$AA?9?$AA?$DO?$AAl?$AAo?$AAc?$AAi?$AAn?$AAf?$AAo@ 0000000140049920     libucrtd:mbtowc.obj
 0002:00007980       ??_C@_1BO@MHPFFFJJ@?$AAs?$AAt?$AAr?$AAe?$AAa?$AAm?$AA?4?$AAv?$AAa?$AAl?$AAi?$AAd?$AA?$CI?$AA?$CJ@ 0000000140049980     libucrtd:fileno.obj
 0002:000079a0       ??_C@_1GA@KCAHHNGP@?$AAm?$AAi?$AAn?$AAk?$AAe?$AAr?$AAn?$AAe?$AAl?$AA?2?$AAc?$AAr?$AAt?$AAs?$AA?2@ 00000001400499a0     libucrtd:fileno.obj
 0002:00007a00       ??_C@_1BA@JGHIEKKM@?$AA_?$AAf?$AAi?$AAl?$AAe?$AAn?$AAo@ 0000000140049a00     libucrtd:fileno.obj
 0002:00007a10       ??_C@_0CP@GDJHIDC@minkernel?2crts?2ucrt?2src?2appcrt?2@ 0000000140049a10     libucrtd:_file.obj
 0002:00007a40       ??_C@_1DC@OGOLMDEL@?$AAp?$AAu?$AAb?$AAl?$AAi?$AAc?$AA_?$AAs?$AAt?$AAr?$AAe?$AAa?$AAm?$AA?5?$AA?$CB@ 0000000140049a40     libucrtd:_file.obj
 0002:00007b68       ??_C@_0DM@DKIFNNOL@minkernel?2crts?2ucrt?2src?2appcrt?2@ 0000000140049b68     libucrtd:per_thread_data.obj
 0002:00007bb0       __lc_time_c                0000000140049bb0     libucrtd:nlsdata.obj
 0002:00007e70       ??_C@_03KOEHGMDN@Sun@      0000000140049e70     libucrtd:nlsdata.obj
 0002:00007e74       ??_C@_03PDAGKDH@Mon@       0000000140049e74     libucrtd:nlsdata.obj
 0002:00007e78       ??_C@_03NAGEINEP@Tue@      0000000140049e78     libucrtd:nlsdata.obj
 0002:00007e7c       ??_C@_03MHOMLAJA@Wed@      0000000140049e7c     libucrtd:nlsdata.obj
 0002:00007e80       ??_C@_03IOFIKPDN@Thu@      0000000140049e80     libucrtd:nlsdata.obj
 0002:00007e84       ??_C@_03IDIOELNC@Fri@      0000000140049e84     libucrtd:nlsdata.obj
 0002:00007e88       ??_C@_03FEFJNEK@Sat@       0000000140049e88     libucrtd:nlsdata.obj
 0002:00007e8c       ??_C@_06OOPIFAJ@Sunday@    0000000140049e8c     libucrtd:nlsdata.obj
 0002:00007e94       ??_C@_06JLEDEDGH@Monday@   0000000140049e94     libucrtd:nlsdata.obj
 0002:00007ea0       ??_C@_07BAAGCFCM@Tuesday@  0000000140049ea0     libucrtd:nlsdata.obj
 0002:00007ea8       ??_C@_09DLIGFAKA@Wednesday@ 0000000140049ea8     libucrtd:nlsdata.obj
 0002:00007eb8       ??_C@_08HACCIKIA@Thursday@ 0000000140049eb8     libucrtd:nlsdata.obj
 0002:00007ec4       ??_C@_06JECMNKMI@Friday@   0000000140049ec4     libucrtd:nlsdata.obj
 0002:00007ed0       ??_C@_08INBOOONO@Saturday@ 0000000140049ed0     libucrtd:nlsdata.obj
 0002:00007edc       ??_C@_03JIHJHPIE@Jan@      0000000140049edc     libucrtd:nlsdata.obj
 0002:00007ee0       ??_C@_03HJBDCHOM@Feb@      0000000140049ee0     libucrtd:nlsdata.obj
 0002:00007ee4       ??_C@_03ODNJBKGA@Mar@      0000000140049ee4     libucrtd:nlsdata.obj
 0002:00007ee8       ??_C@_03LEOLGMJP@Apr@      0000000140049ee8     libucrtd:nlsdata.obj
 0002:00007eec       ??_C@_03CNMDKL@May@        0000000140049eec     libucrtd:nlsdata.obj
 0002:00007ef0       ??_C@_03IDFGHECI@Jun@      0000000140049ef0     libucrtd:nlsdata.obj
 0002:00007ef4       ??_C@_03LBGABGKK@Jul@      0000000140049ef4     libucrtd:nlsdata.obj
 0002:00007ef8       ??_C@_03IFJFEIGA@Aug@      0000000140049ef8     libucrtd:nlsdata.obj
 0002:00007efc       ??_C@_03GGCAPAJC@Sep@      0000000140049efc     libucrtd:nlsdata.obj
 0002:00007f00       ??_C@_03BMAOKBAD@Oct@      0000000140049f00     libucrtd:nlsdata.obj
 0002:00007f04       ??_C@_03JPJOFNIA@Nov@      0000000140049f04     libucrtd:nlsdata.obj
 0002:00007f08       ??_C@_03MKABNOCG@Dec@      0000000140049f08     libucrtd:nlsdata.obj
 0002:00007f10       ??_C@_07CGJPFGJA@January@  0000000140049f10     libucrtd:nlsdata.obj
 0002:00007f18       ??_C@_08GNJGEPFN@February@ 0000000140049f18     libucrtd:nlsdata.obj
 0002:00007f24       ??_C@_05HPCKOFNC@March@    0000000140049f24     libucrtd:nlsdata.obj
 0002:00007f2c       ??_C@_05DMJDNLEJ@April@    0000000140049f2c     libucrtd:nlsdata.obj
 0002:00007f34       ??_C@_04CNLMGBGM@June@     0000000140049f34     libucrtd:nlsdata.obj
 0002:00007f3c       ??_C@_04MIEPOIFP@July@     0000000140049f3c     libucrtd:nlsdata.obj
 0002:00007f44       ??_C@_06LBBHFDDG@August@   0000000140049f44     libucrtd:nlsdata.obj
 0002:00007f50       ??_C@_09BHHEALKD@September@ 0000000140049f50     libucrtd:nlsdata.obj
 0002:00007f60       ??_C@_07JJNFCEND@October@  0000000140049f60     libucrtd:nlsdata.obj
 0002:00007f68       ??_C@_08HCHEGEOA@November@ 0000000140049f68     libucrtd:nlsdata.obj
 0002:00007f78       ??_C@_08EDHMEBNP@December@ 0000000140049f78     libucrtd:nlsdata.obj
 0002:00007f84       ??_C@_02DEDBPAFC@AM@       0000000140049f84     libucrtd:nlsdata.obj
 0002:00007f88       ??_C@_02CJNFDJBF@PM@       0000000140049f88     libucrtd:nlsdata.obj
 0002:00007f90       ??_C@_08BPBNCDIB@MM?1dd?1yy@ 0000000140049f90     libucrtd:nlsdata.obj
 0002:00007fa0       ??_C@_0BE@CKGJFCPC@dddd?0?5MMMM?5dd?0?5yyyy@ 0000000140049fa0     libucrtd:nlsdata.obj
 0002:00007fb8       ??_C@_08JCCMCCIL@HH?3mm?3ss@ 0000000140049fb8     libucrtd:nlsdata.obj
 0002:00007fc8       ??_C@_17MBGCMIPB@?$AAS?$AAu?$AAn@ 0000000140049fc8     libucrtd:nlsdata.obj
 0002:00007fd0       ??_C@_17KBOMKBF@?$AAM?$AAo?$AAn@ 0000000140049fd0     libucrtd:nlsdata.obj
 0002:00007fd8       ??_C@_17BMKGEGOJ@?$AAT?$AAu?$AAe@ 0000000140049fd8     libucrtd:nlsdata.obj
 0002:00007fe0       ??_C@_17CJEDCEPE@?$AAW?$AAe?$AAd@ 0000000140049fe0     libucrtd:nlsdata.obj
 0002:00007fe8       ??_C@_17PDPHAADD@?$AAT?$AAh?$AAu@ 0000000140049fe8     libucrtd:nlsdata.obj
 0002:00007ff0       ??_C@_17HFOLPPLP@?$AAF?$AAr?$AAi@ 0000000140049ff0     libucrtd:nlsdata.obj
 0002:00007ff8       ??_C@_17GGIBDPIH@?$AAS?$AAa?$AAt@ 0000000140049ff8     libucrtd:nlsdata.obj
 0002:00008000       ??_C@_1O@IHNHDHPB@?$AAS?$AAu?$AAn?$AAd?$AAa?$AAy@ 000000014004a000     libucrtd:nlsdata.obj
 0002:00008010       ??_C@_1O@MMNBFLIA@?$AAM?$AAo?$AAn?$AAd?$AAa?$AAy@ 000000014004a010     libucrtd:nlsdata.obj
 0002:00008020       ??_C@_1BA@ENFBFFEK@?$AAT?$AAu?$AAe?$AAs?$AAd?$AAa?$AAy@ 000000014004a020     libucrtd:nlsdata.obj
 0002:00008030       ??_C@_1BE@EBOGMDOH@?$AAW?$AAe?$AAd?$AAn?$AAe?$AAs?$AAd?$AAa?$AAy@ 000000014004a030     libucrtd:nlsdata.obj
 0002:00008048       ??_C@_1BC@HHMNLIHE@?$AAT?$AAh?$AAu?$AAr?$AAs?$AAd?$AAa?$AAy@ 000000014004a048     libucrtd:nlsdata.obj
 0002:00008060       ??_C@_1O@PDICJHAG@?$AAF?$AAr?$AAi?$AAd?$AAa?$AAy@ 000000014004a060     libucrtd:nlsdata.obj
 0002:00008070       ??_C@_1BC@ENMNNPAJ@?$AAS?$AAa?$AAt?$AAu?$AAr?$AAd?$AAa?$AAy@ 000000014004a070     libucrtd:nlsdata.obj
 0002:00008088       ??_C@_17DKNBKCHM@?$AAJ?$AAa?$AAn@ 000000014004a088     libucrtd:nlsdata.obj
 0002:00008090       ??_C@_17LMDJEKJN@?$AAF?$AAe?$AAb@ 000000014004a090     libucrtd:nlsdata.obj
 0002:00008098       ??_C@_17CKNLEDEC@?$AAM?$AAa?$AAr@ 000000014004a098     libucrtd:nlsdata.obj
 0002:000080a0       ??_C@_17LFPOIHDD@?$AAA?$AAp?$AAr@ 000000014004a0a0     libucrtd:nlsdata.obj
 0002:000080a8       ??_C@_17PNNKMEED@?$AAM?$AAa?$AAy@ 000000014004a0a8     libucrtd:nlsdata.obj
 0002:000080b0       ??_C@_17KCJGOCPB@?$AAJ?$AAu?$AAn@ 000000014004a0b0     libucrtd:nlsdata.obj
 0002:000080b8       ??_C@_17IJPCKHK@?$AAJ?$AAu?$AAl@ 000000014004a0b8     libucrtd:nlsdata.obj
 0002:000080c0       ??_C@_17ICPELBCN@?$AAA?$AAu?$AAg@ 000000014004a0c0     libucrtd:nlsdata.obj
 0002:000080c8       ??_C@_17HCHCOKMG@?$AAS?$AAe?$AAp@ 000000014004a0c8     libucrtd:nlsdata.obj
 0002:000080d0       ??_C@_17FNLKOI@?$AAO?$AAc?$AAt@ 000000014004a0d0     libucrtd:nlsdata.obj
 0002:000080d8       ??_C@_17BBDMLCIG@?$AAN?$AAo?$AAv@ 000000014004a0d8     libucrtd:nlsdata.obj
 0002:000080e0       ??_C@_17EGKACKIF@?$AAD?$AAe?$AAc@ 000000014004a0e0     libucrtd:nlsdata.obj
 0002:000080e8       ??_C@_1BA@EFMEIEBA@?$AAJ?$AAa?$AAn?$AAu?$AAa?$AAr?$AAy@ 000000014004a0e8     libucrtd:nlsdata.obj
 0002:000080f8       ??_C@_1BC@JGDDFFAM@?$AAF?$AAe?$AAb?$AAr?$AAu?$AAa?$AAr?$AAy@ 000000014004a0f8     libucrtd:nlsdata.obj
 0002:00008110       ??_C@_1M@IKEENEDF@?$AAM?$AAa?$AAr?$AAc?$AAh@ 000000014004a110     libucrtd:nlsdata.obj
 0002:00008120       ??_C@_1M@GJNLMHFD@?$AAA?$AAp?$AAr?$AAi?$AAl@ 000000014004a120     libucrtd:nlsdata.obj
 0002:00008130       ??_C@_19EPFLPGAP@?$AAJ?$AAu?$AAn?$AAe@ 000000014004a130     libucrtd:nlsdata.obj
 0002:00008140       ??_C@_19BIFMLPCD@?$AAJ?$AAu?$AAl?$AAy@ 000000014004a140     libucrtd:nlsdata.obj
 0002:00008150       ??_C@_1O@PAHLKOAC@?$AAA?$AAu?$AAg?$AAu?$AAs?$AAt@ 000000014004a150     libucrtd:nlsdata.obj
 0002:00008160       ??_C@_1BE@DKAAMBJL@?$AAS?$AAe?$AAp?$AAt?$AAe?$AAm?$AAb?$AAe?$AAr@ 000000014004a160     libucrtd:nlsdata.obj
 0002:00008178       ??_C@_1BA@EPANDLNG@?$AAO?$AAc?$AAt?$AAo?$AAb?$AAe?$AAr@ 000000014004a178     libucrtd:nlsdata.obj
 0002:00008188       ??_C@_1BC@BGLIFPF@?$AAN?$AAo?$AAv?$AAe?$AAm?$AAb?$AAe?$AAr@ 000000014004a188     libucrtd:nlsdata.obj
 0002:000081a0       ??_C@_1BC@FEMKIFH@?$AAD?$AAe?$AAc?$AAe?$AAm?$AAb?$AAe?$AAr@ 000000014004a1a0     libucrtd:nlsdata.obj
 0002:000081b4       ??_C@_15ODEHAHHF@?$AAA?$AAM@ 000000014004a1b4     libucrtd:nlsdata.obj
 0002:000081bc       ??_C@_15CLMNNGEL@?$AAP?$AAM@ 000000014004a1bc     libucrtd:nlsdata.obj
 0002:000081c8       ??_C@_1BC@IEBCMHCM@?$AAM?$AAM?$AA?1?$AAd?$AAd?$AA?1?$AAy?$AAy@ 000000014004a1c8     libucrtd:nlsdata.obj
 0002:000081e0       ??_C@_1CI@KNAKOEBC@?$AAd?$AAd?$AAd?$AAd?$AA?0?$AA?5?$AAM?$AAM?$AAM?$AAM?$AA?5?$AAd?$AAd?$AA?0?$AA?5@ 000000014004a1e0     libucrtd:nlsdata.obj
 0002:00008208       ??_C@_1BC@GDGBMEMK@?$AAH?$AAH?$AA?3?$AAm?$AAm?$AA?3?$AAs?$AAs@ 000000014004a208     libucrtd:nlsdata.obj
 0002:00008220       ??_C@_1M@BMHNFIME@?$AAe?$AAn?$AA?9?$AAU?$AAS@ 000000014004a220     libucrtd:nlsdata.obj
 0002:00008230       ??_C@_1DE@BCNCAIK@?$AA?$CI?$AA?$CC?$AAI?$AAn?$AAv?$AAa?$AAl?$AAi?$AAd?$AA?5?$AAe?$AAr?$AAr?$AAo?$AAr@ 000000014004a230     libucrtd:set_error_mode.obj
 0002:00008270       ??_C@_1GO@EBFPMMIJ@?$AAm?$AAi?$AAn?$AAk?$AAe?$AAr?$AAn?$AAe?$AAl?$AA?2?$AAc?$AAr?$AAt?$AAs?$AA?2@ 000000014004a270     libucrtd:set_error_mode.obj
 0002:000082e0       ??_C@_1CA@LFDHAMEM@?$AA_?$AAs?$AAe?$AAt?$AA_?$AAe?$AAr?$AAr?$AAo?$AAr?$AA_?$AAm?$AAo?$AAd?$AAe@ 000000014004a2e0     libucrtd:set_error_mode.obj
 0002:00008300       ??_C@_1CA@EOJJMFA@?$AAc?$AAo?$AAm?$AAm?$AAo?$AAn?$AA_?$AAt?$AAc?$AAs?$AAc?$AAa?$AAt?$AA_?$AAs@ 000000014004a300     libucrtd:wcscat_s.obj
 0002:00008320       ??_C@_1DM@FHLMIEG@?$AAS?$AAt?$AAr?$AAi?$AAn?$AAg?$AA?5?$AAi?$AAs?$AA?5?$AAn?$AAo?$AAt?$AA?5?$AAn@ 000000014004a320     libucrtd:wcscat_s.obj
 0002:00008360       ??_C@_1FA@MJKDNFFB@?$AA?$CI?$AAL?$AA?$CC?$AAS?$AAt?$AAr?$AAi?$AAn?$AAg?$AA?5?$AAi?$AAs?$AA?5?$AAn?$AAo@ 000000014004a360     libucrtd:wcscat_s.obj
 0002:000083b0       ??_C@_1CC@CHNFGJIC@?$AAc?$AAo?$AAm?$AAm?$AAo?$AAn?$AA_?$AAt?$AAc?$AAs?$AAn?$AAc?$AAp?$AAy?$AA_@ 000000014004a3b0     libucrtd:wcsncpy_s.obj
 0002:00008450       ??_C@_0DI@DNFGFCIK@minkernel?2crts?2ucrt?2inc?2corecrt@ 000000014004a450     libucrtd:argv_wildcards.obj
 0002:00008490       ??_C@_1HE@CEMHPOHH@?$AAm?$AAi?$AAn?$AAk?$AAe?$AAr?$AAn?$AAe?$AAl?$AA?2?$AAc?$AAr?$AAt?$AAs?$AA?2@ 000000014004a490     libucrtd:argv_wildcards.obj
 0002:00008508       ??_C@_1DK@IBFFOJGB@?$AAc?$AAo?$AAm?$AAm?$AAo?$AAn?$AA_?$AAe?$AAx?$AAp?$AAa?$AAn?$AAd?$AA_?$AAa@ 000000014004a508     libucrtd:argv_wildcards.obj
 0002:00008550       ??_C@_1MC@FLPKOFON@?$AAt?$AAr?$AAa?$AAi?$AAt?$AAs?$AA?3?$AA?3?$AAt?$AAc?$AAs?$AAn?$AAc?$AAp?$AAy@ 000000014004a550     libucrtd:argv_wildcards.obj
 0002:00008618       ??_C@_0DK@FPFMIIJB@minkernel?2crts?2ucrt?2src?2appcrt?2@ 000000014004a618     libucrtd:argv_wildcards.obj
 0002:00008660       ??_C@_1EA@KOCCBLAD@?$AAc?$AAo?$AAp?$AAy?$AA_?$AAa?$AAn?$AAd?$AA_?$AAa?$AAd?$AAd?$AA_?$AAa?$AAr@ 000000014004a660     libucrtd:argv_wildcards.obj
 0002:000086a0       ??_C@_1KM@GDJIGAGL@?$AAt?$AAr?$AAa?$AAi?$AAt?$AAs?$AA?3?$AA?3?$AAt?$AAc?$AAs?$AAn?$AAc?$AAp?$AAy@ 000000014004a6a0     libucrtd:argv_wildcards.obj
 0002:00008750       ??_C@_1PI@FGFLAGCC@?$AAt?$AAr?$AAa?$AAi?$AAt?$AAs?$AA?3?$AA?3?$AAt?$AAc?$AAs?$AAn?$AAc?$AAp?$AAy@ 000000014004a750     libucrtd:argv_wildcards.obj
 0002:00008890       ??_C@_1M@HPNHIDJI@?$AAj?$AAa?$AA?9?$AAJ?$AAP@ 000000014004a890     libucrtd:mbctype.obj
 0002:000088a0       ??_C@_1M@BIBDDEMK@?$AAz?$AAh?$AA?9?$AAC?$AAN@ 000000014004a8a0     libucrtd:mbctype.obj
 0002:000088b0       ??_C@_1M@JLOOOEGK@?$AAk?$AAo?$AA?9?$AAK?$AAR@ 000000014004a8b0     libucrtd:mbctype.obj
 0002:000088c0       ??_C@_1M@CLNBBOPM@?$AAz?$AAh?$AA?9?$AAT?$AAW@ 000000014004a8c0     libucrtd:mbctype.obj
 0002:00008920       ??_C@_0DE@HGDKNBFD@minkernel?2crts?2ucrt?2src?2appcrt?2@ 000000014004a920     libucrtd:mbctype.obj
 0002:00008960       ??_C@_0ED@BLPEHJAI@minkernel?2crts?2ucrt?2src?2desktop@ 000000014004a960     libucrtd:get_environment_from_os.obj
 0002:000089b0       ??_C@_1FO@NMANMHOD@?$AAc?$AAa?$AAc?$AAh?$AAe?$AAd?$AA_?$AAs?$AAt?$AAa?$AAt?$AAe?$AA?5?$AA?$DN?$AA?$DN@ 000000014004a9b0     libucrtd:win_policies.obj
 0002:00008a10       ??_C@_1HC@GHLNKBJK@?$AAm?$AAi?$AAn?$AAk?$AAe?$AAr?$AAn?$AAe?$AAl?$AA?2?$AAc?$AAr?$AAt?$AAs?$AA?2@ 000000014004aa10     libucrtd:win_policies.obj
 0002:00008a88       ??_C@_0DB@JFFPGLDM@minkernel?2crts?2ucrt?2src?2appcrt?2@ 000000014004aa88     libucrtd:osfinfo.obj
 0002:00008ac0       ??_C@_1EM@BPODPNEJ@?$AAs?$AAt?$AAa?$AAt?$AAi?$AAc?$AA_?$AAc?$AAa?$AAs?$AAt?$AA?$DM?$AAu?$AAn?$AAs@ 000000014004aac0     libucrtd:osfinfo.obj
 0002:00008b10       ??_C@_1GC@LDGKBAFM@?$AAm?$AAi?$AAn?$AAk?$AAe?$AAr?$AAn?$AAe?$AAl?$AA?2?$AAc?$AAr?$AAt?$AAs?$AA?2@ 000000014004ab10     libucrtd:osfinfo.obj
 0002:00008b78       ??_C@_1DM@JELNOMLN@?$AA_?$AA_?$AAa?$AAc?$AAr?$AAt?$AA_?$AAl?$AAo?$AAw?$AAi?$AAo?$AA_?$AAe?$AAn@ 000000014004ab78     libucrtd:osfinfo.obj
 0002:00008bc0       ??_C@_1FK@MGHFJLAL@?$AAf?$AAh?$AA?5?$AA?$DO?$AA?$DN?$AA?5?$AA0?$AA?5?$AA?$CG?$AA?$CG?$AA?5?$AA?$CI?$AAu?$AAn?$AAs@ 000000014004abc0     libucrtd:osfinfo.obj
 0002:00008c20       ??_C@_1BO@EMBOBGKE@?$AA_?$AAg?$AAe?$AAt?$AA_?$AAo?$AAs?$AAf?$AAh?$AAa?$AAn?$AAd?$AAl?$AAe@ 000000014004ac20     libucrtd:osfinfo.obj
 0002:00008c40       ??_C@_1CI@ILOIOBLM@?$AA_?$AAo?$AAs?$AAf?$AAi?$AAl?$AAe?$AA?$CI?$AAf?$AAh?$AA?$CJ?$AA?5?$AA?$CG?$AA?5?$AAF@ 000000014004ac40     libucrtd:osfinfo.obj
 0002:00008c70       __newctype                 000000014004ac70     libucrtd:ctype.obj
 0002:00008f70       __newclmap                 000000014004af70     libucrtd:ctype.obj
 0002:000090f0       __newcumap                 000000014004b0f0     libucrtd:ctype.obj
 0002:00009270       ??_C@_1CI@JELMFMDH@?$AAc?$AA?5?$AA?$DO?$AA?$DN?$AA?5?$AA?9?$AA1?$AA?5?$AA?$CG?$AA?$CG?$AA?5?$AAc?$AA?5?$AA?$DM?$AA?$DN@ 000000014004b270     libucrtd:isctype.obj
 0002:000092a0       ??_C@_1GG@KPBGDFHJ@?$AAm?$AAi?$AAn?$AAk?$AAe?$AAr?$AAn?$AAe?$AAl?$AA?2?$AAc?$AAr?$AAt?$AAs?$AA?2@ 000000014004b2a0     libucrtd:isctype.obj
 0002:00009310       ??_C@_1FE@KNPCCODH@?$AA?$CI?$AA?$CC?$AAC?$AAo?$AAr?$AAr?$AAu?$AAp?$AAt?$AAe?$AAd?$AA?5?$AAp?$AAo?$AAi@ 000000014004b310     libucrtd:getstringtypea.obj
 0002:00009370       ??_C@_1EM@GPJLADAA@?$AAV?$AAC?$AAC?$AAR?$AAT?$AA?2?$AAv?$AAc?$AAr?$AAu?$AAn?$AAt?$AAi?$AAm?$AAe@ 000000014004b370     libucrtd:getstringtypea.obj
 0002:000093c0       ??_C@_0DJ@HCPJODDK@minkernel?2crts?2ucrt?2src?2appcrt?2@ 000000014004b3c0     libucrtd:getstringtypea.obj
 0002:00009400       ??_C@_1BKC@NBNHJIDM@?$AA?$CI?$AAp?$AAt?$AAl?$AAo?$AAc?$AAi?$AA?9?$AA?$DO?$AAl?$AAc?$AA_?$AAc?$AAa?$AAt@ 000000014004b400     libucrtd:locale_refcounting.obj
 0002:000095b0       ??_C@_1HK@HCNMEOLA@?$AAm?$AAi?$AAn?$AAk?$AAe?$AAr?$AAn?$AAe?$AAl?$AA?2?$AAc?$AAr?$AAt?$AAs?$AA?2@ 000000014004b5b0     libucrtd:locale_refcounting.obj
 0002:0000962c       ??_C@_15PJPFLCCM@?$AAu?$AAk@ 000000014004b62c     libucrtd:get_qualified_locale.obj
 0002:000096e0       ??_C@_1EA@JGEFHKEI@?$AAa?$AAp?$AAi?$AA?9?$AAm?$AAs?$AA?9?$AAw?$AAi?$AAn?$AA?9?$AAc?$AAo?$AAr?$AAe@ 000000014004b6e0     libucrtd:winapi_thunks.obj
 0002:00009720       ??_C@_1DI@IJCEHOCB@?$AAa?$AAp?$AAi?$AA?9?$AAm?$AAs?$AA?9?$AAw?$AAi?$AAn?$AA?9?$AAc?$AAo?$AAr?$AAe@ 000000014004b720     libucrtd:winapi_thunks.obj
 0002:00009760       ??_C@_1EI@MPIAOHOC@?$AAa?$AAp?$AAi?$AA?9?$AAm?$AAs?$AA?9?$AAw?$AAi?$AAn?$AA?9?$AAc?$AAo?$AAr?$AAe@ 000000014004b760     libucrtd:winapi_thunks.obj
 0002:000097b0       ??_C@_1FK@FPHCKFIE@?$AAa?$AAp?$AAi?$AA?9?$AAm?$AAs?$AA?9?$AAw?$AAi?$AAn?$AA?9?$AAc?$AAo?$AAr?$AAe@ 000000014004b7b0     libucrtd:winapi_thunks.obj
 0002:00009810       ??_C@_1EM@DILCGIIO@?$AAa?$AAp?$AAi?$AA?9?$AAm?$AAs?$AA?9?$AAw?$AAi?$AAn?$AA?9?$AAc?$AAo?$AAr?$AAe@ 000000014004b810     libucrtd:winapi_thunks.obj
 0002:00009860       ??_C@_1DM@LNCGDDPN@?$AAa?$AAp?$AAi?$AA?9?$AAm?$AAs?$AA?9?$AAw?$AAi?$AAn?$AA?9?$AAc?$AAo?$AAr?$AAe@ 000000014004b860     libucrtd:winapi_thunks.obj
 0002:000098a0       ??_C@_1DO@FPAPJEMD@?$AAa?$AAp?$AAi?$AA?9?$AAm?$AAs?$AA?9?$AAw?$AAi?$AAn?$AA?9?$AAc?$AAo?$AAr?$AAe@ 000000014004b8a0     libucrtd:winapi_thunks.obj
 0002:000098e0       ??_C@_1DK@NDHNAHIO@?$AAa?$AAp?$AAi?$AA?9?$AAm?$AAs?$AA?9?$AAw?$AAi?$AAn?$AA?9?$AAc?$AAo?$AAr?$AAe@ 000000014004b8e0     libucrtd:winapi_thunks.obj
 0002:00009920       ??_C@_1DM@KGHDGBCM@?$AAa?$AAp?$AAi?$AA?9?$AAm?$AAs?$AA?9?$AAw?$AAi?$AAn?$AA?9?$AAc?$AAo?$AAr?$AAe@ 000000014004b920     libucrtd:winapi_thunks.obj
 0002:00009960       ??_C@_1EO@IJIOEFOH@?$AAa?$AAp?$AAi?$AA?9?$AAm?$AAs?$AA?9?$AAw?$AAi?$AAn?$AA?9?$AAr?$AAt?$AAc?$AAo@ 000000014004b960     libucrtd:winapi_thunks.obj
 0002:000099b0       ??_C@_1FG@HHGEKANL@?$AAa?$AAp?$AAi?$AA?9?$AAm?$AAs?$AA?9?$AAw?$AAi?$AAn?$AA?9?$AAs?$AAe?$AAc?$AAu@ 000000014004b9b0     libucrtd:winapi_thunks.obj
 0002:00009a10       ??_C@_1EG@DBIOJECG@?$AAe?$AAx?$AAt?$AA?9?$AAm?$AAs?$AA?9?$AAw?$AAi?$AAn?$AA?9?$AAn?$AAt?$AAu?$AAs@ 000000014004ba10     libucrtd:winapi_thunks.obj
 0002:00009a60       ??_C@_1EO@FIHMJCLF@?$AAe?$AAx?$AAt?$AA?9?$AAm?$AAs?$AA?9?$AAw?$AAi?$AAn?$AA?9?$AAn?$AAt?$AAu?$AAs@ 000000014004ba60     libucrtd:winapi_thunks.obj
 0002:00009ab0       ??_C@_1BC@DNHGCMLG@?$AAa?$AAd?$AAv?$AAa?$AAp?$AAi?$AA3?$AA2@ 000000014004bab0     libucrtd:winapi_thunks.obj
 0002:00009ac8       ??_C@_1M@OAIMIKLP@?$AAn?$AAt?$AAd?$AAl?$AAl@ 000000014004bac8     libucrtd:winapi_thunks.obj
 0002:00009ae0       ??_C@_1EG@DPGNFKGC@?$AAa?$AAp?$AAi?$AA?9?$AAm?$AAs?$AA?9?$AAw?$AAi?$AAn?$AA?9?$AAa?$AAp?$AAp?$AAm@ 000000014004bae0     libucrtd:winapi_thunks.obj
 0002:00009b28       ??_C@_1O@BCCLBEOE@?$AAu?$AAs?$AAe?$AAr?$AA3?$AA2@ 000000014004bb28     libucrtd:winapi_thunks.obj
 0002:00009b38       ??_C@_1BA@IAIFMGEF@?$AAe?$AAx?$AAt?$AA?9?$AAm?$AAs?$AA?9@ 000000014004bb38     libucrtd:winapi_thunks.obj
 0002:00009b50       ??_C@_1HE@OILMBOBA@?$AAm?$AAi?$AAn?$AAk?$AAe?$AAr?$AAn?$AAe?$AAl?$AA?2?$AAc?$AAr?$AAt?$AAs?$AA?2@ 000000014004bb50     libucrtd:winapi_thunks.obj
 0002:00009bc8       ??_C@_0BA@FHFNEAED@AreFileApisANSI@ 000000014004bbc8     libucrtd:winapi_thunks.obj
 0002:00009be0       ??_C@_0BA@HNOPNCHB@GetActiveWindow@ 000000014004bbe0     libucrtd:winapi_thunks.obj
 0002:00009bf8       ??_C@_0BD@HHGDFDBJ@GetLastActivePopup@ 000000014004bbf8     libucrtd:winapi_thunks.obj
 0002:00009c18       ??_C@_0BI@DFKBFLJE@GetProcessWindowStation@ 000000014004bc18     libucrtd:winapi_thunks.obj
 0002:00009c38       ??_C@_0BK@DEKFELLI@GetUserObjectInformationW@ 000000014004bc38     libucrtd:winapi_thunks.obj
 0002:00009c68       ??_C@_0O@KKBNKAPF@LCMapStringEx@ 000000014004bc68     libucrtd:winapi_thunks.obj
 0002:00009c80       ??_C@_0BB@HBDEELFH@LocaleNameToLCID@ 000000014004bc80     libucrtd:winapi_thunks.obj
 0002:00009ca0       ??_C@_0M@CHKKJDAI@MessageBoxA@ 000000014004bca0     libucrtd:winapi_thunks.obj
 0002:00009cb8       ??_C@_0M@DLDCCGNP@MessageBoxW@ 000000014004bcb8     libucrtd:winapi_thunks.obj
 0002:00009cc8       ??_C@_0CF@OJOFEIGO@AppPolicyGetProcessTerminationM@ 000000014004bcc8     libucrtd:winapi_thunks.obj
 0002:00009cf8       ??_C@_0CE@OICFMIKE@AppPolicyGetShowDeveloperDiagno@ 000000014004bcf8     libucrtd:winapi_thunks.obj
 0002:00009d20       ??_C@_0BL@ODDJNEDA@AppPolicyGetWindowingModel@ 000000014004bd20     libucrtd:winapi_thunks.obj
 0002:00009d68       ??_C@_1DA@NBILLKNO@?$AAl?$AAo?$AAc?$AAa?$AAl?$AA_?$AAa?$AAc?$AAt?$AAi?$AAo?$AAn?$AA?5?$AA?$CB?$AA?$DN@ 000000014004bd68     libucrtd:signal.obj
 0002:00009da0       ??_C@_1FO@CCGDPEKE@?$AAm?$AAi?$AAn?$AAk?$AAe?$AAr?$AAn?$AAe?$AAl?$AA?2?$AAc?$AAr?$AAt?$AAs?$AA?2@ 000000014004bda0     libucrtd:signal.obj
 0002:00009e00       ??_C@_1M@DMJEIKHL@?$AAr?$AAa?$AAi?$AAs?$AAe@ 000000014004be00     libucrtd:signal.obj
 0002:00009e10       ??_C@_1DO@MLNEDKGB@?$AA?$CI?$AA?$CC?$AAI?$AAn?$AAv?$AAa?$AAl?$AAi?$AAd?$AA?5?$AAs?$AAi?$AAg?$AAn?$AAa@ 000000014004be10     libucrtd:signal.obj
 0002:00009e50       ??_C@_1FO@GEKPJHID@?$AAm?$AAi?$AAn?$AAk?$AAe?$AAr?$AAn?$AAe?$AAl?$AA?2?$AAc?$AAr?$AAt?$AAs?$AA?2@ 000000014004be50     libucrtd:expand.obj
 0002:00009eb0       ??_C@_1BK@JMCGJOCC@?$AA_?$AAe?$AAx?$AAp?$AAa?$AAn?$AAd?$AA_?$AAb?$AAa?$AAs?$AAe@ 000000014004beb0     libucrtd:expand.obj
 0002:00009ed0       ??_C@_1GA@LFAOKOOP@?$AAm?$AAi?$AAn?$AAk?$AAe?$AAr?$AAn?$AAe?$AAl?$AA?2?$AAc?$AAr?$AAt?$AAs?$AA?2@ 000000014004bed0     libucrtd:dbgrptt.obj
 0002:00009f30       ??_C@_1CA@KHJHLKA@?$AA_?$AAV?$AAC?$AAr?$AAt?$AAD?$AAb?$AAg?$AAR?$AAe?$AAp?$AAo?$AAr?$AAt?$AAA@ 000000014004bf30     libucrtd:dbgrptt.obj
 0002:00009f50       ??_C@_1FA@JPHJBHEM@?$AA_?$AAi?$AAt?$AAo?$AAa?$AA_?$AAs?$AA?$CI?$AAn?$AAL?$AAi?$AAn?$AAe?$AA?0?$AA?5@ 000000014004bf50     libucrtd:dbgrptt.obj
 0002:00009fa0       ??_C@_0CG@BNGLOCEO@Second?5Chance?5Assertion?5Failed?3@ 000000014004bfa0     libucrtd:dbgrptt.obj
 0002:00009fc8       ??_C@_0P@DFJNDPOP@?$DMfile?5unknown?$DO@ 000000014004bfc8     libucrtd:dbgrptt.obj
 0002:00009fd8       ??_C@_07BHGABMGB@?0?5Line?5@ 000000014004bfd8     libucrtd:dbgrptt.obj
 0002:00009fe0       ??_C@_01EEMJAFIK@?6@       000000014004bfe0     libucrtd:dbgrptt.obj
 0002:00009ff0       ??_C@_1JI@GAALPGBM@?$AAs?$AAt?$AAr?$AAc?$AAp?$AAy?$AA_?$AAs?$AA?$CI?$AAs?$AAz?$AAU?$AAs?$AAe?$AAr@ 000000014004bff0     libucrtd:dbgrptt.obj
 0002:0000a088       ??_C@_0CL@EACFGMNB@_CrtDbgReport?3?5String?5too?5long?5@ 000000014004c088     libucrtd:dbgrptt.obj
 0002:0000a0c0       ??_C@_1KK@GIGAEDMO@?$AAs?$AAt?$AAr?$AAc?$AAp?$AAy?$AA_?$AAs?$AA?$CI?$AAs?$AAz?$AAL?$AAi?$AAn?$AAe@ 000000014004c0c0     libucrtd:dbgrptt.obj
 0002:0000a170       ??_C@_0BD@CAENFOHP@Assertion?5failed?3?5@ 000000014004c170     libucrtd:dbgrptt.obj
 0002:0000a188       ??_C@_0BC@LAIDCHCH@Assertion?5failed?$CB@ 000000014004c188     libucrtd:dbgrptt.obj
 0002:0000a1a0       ??_C@_1FK@NPGBPOFO@?$AAs?$AAt?$AAr?$AAc?$AAa?$AAt?$AA_?$AAs?$AA?$CI?$AAs?$AAz?$AAL?$AAi?$AAn?$AAe@ 000000014004c1a0     libucrtd:dbgrptt.obj
 0002:0000a200       ??_C@_1EI@CACDLAFK@?$AAs?$AAt?$AAr?$AAc?$AAa?$AAt?$AA_?$AAs?$AA?$CI?$AAs?$AAz?$AAL?$AAi?$AAn?$AAe@ 000000014004c200     libucrtd:dbgrptt.obj
 0002:0000a248       ??_C@_01LIIJDEN@?$AN@      000000014004c248     libucrtd:dbgrptt.obj
 0002:0000a250       ??_C@_1EI@LDHJEDO@?$AAs?$AAt?$AAr?$AAc?$AAa?$AAt?$AA_?$AAs?$AA?$CI?$AAs?$AAz?$AAL?$AAi?$AAn?$AAe@ 000000014004c250     libucrtd:dbgrptt.obj
 0002:0000a298       ??_C@_0M@IPILFDFN@?$CFs?$CI?$CFd?$CJ?5?3?5?$CFs@ 000000014004c298     libucrtd:dbgrptt.obj
 0002:0000a2b0       ??_C@_1JG@CPKCIOEE@?$AAs?$AAt?$AAr?$AAc?$AAp?$AAy?$AA_?$AAs?$AA?$CI?$AAs?$AAz?$AAO?$AAu?$AAt?$AAM@ 000000014004c2b0     libucrtd:dbgrptt.obj
 0002:0000a350       ??_C@_1FI@IBIOIHEG@?$AAs?$AAt?$AAr?$AAc?$AAp?$AAy?$AA_?$AAs?$AA?$CI?$AAs?$AAz?$AAO?$AAu?$AAt?$AAM@ 000000014004c350     libucrtd:dbgrptt.obj
 0002:0000a3b0       ??_C@_1IM@OOKIFKOH@?$AAe?$AA?5?$AA?$DN?$AA?5?$AAm?$AAb?$AAs?$AAt?$AAo?$AAw?$AAc?$AAs?$AA_?$AAs?$AA?$CI@ 000000014004c3b0     libucrtd:dbgrptt.obj
 0002:0000a440       ??_C@_1MC@IGEECMDB@?$AAw?$AAc?$AAs?$AAc?$AAp?$AAy?$AA_?$AAs?$AA?$CI?$AAs?$AAz?$AAO?$AAu?$AAt?$AAM@ 000000014004c440     libucrtd:dbgrptt.obj
 0002:0000a510       ??_C@_1HO@PJOFIKFE@?$AA_?$AAC?$AAr?$AAt?$AAD?$AAb?$AAg?$AAR?$AAe?$AAp?$AAo?$AAr?$AAt?$AA?3?$AA?5@ 000000014004c510     libucrtd:dbgrptt.obj
 0002:0000a590       ??_C@_1CA@HPALHDOD@?$AA_?$AAV?$AAC?$AAr?$AAt?$AAD?$AAb?$AAg?$AAR?$AAe?$AAp?$AAo?$AAr?$AAt?$AAW@ 000000014004c590     libucrtd:dbgrptt.obj
 0002:0000a5b0       ??_C@_1FA@CNLLOMHI@?$AA_?$AAi?$AAt?$AAo?$AAw?$AA_?$AAs?$AA?$CI?$AAn?$AAL?$AAi?$AAn?$AAe?$AA?0?$AA?5@ 000000014004c5b0     libucrtd:dbgrptt.obj
 0002:0000a600       ??_C@_1EM@MJFLEDMB@?$AAS?$AAe?$AAc?$AAo?$AAn?$AAd?$AA?5?$AAC?$AAh?$AAa?$AAn?$AAc?$AAe?$AA?5?$AAA@ 000000014004c600     libucrtd:dbgrptt.obj
 0002:0000a650       ??_C@_1BO@OCHMLCAG@?$AA?$DM?$AAf?$AAi?$AAl?$AAe?$AA?5?$AAu?$AAn?$AAk?$AAn?$AAo?$AAw?$AAn?$AA?$DO@ 000000014004c650     libucrtd:dbgrptt.obj
 0002:0000a670       ??_C@_1BA@ELMMDCFC@?$AA?0?$AA?5?$AAL?$AAi?$AAn?$AAe?$AA?5@ 000000014004c670     libucrtd:dbgrptt.obj
 0002:0000a680       ??_C@_13LBAGMAIH@?$AA?6@   000000014004c680     libucrtd:dbgrptt.obj
 0002:0000a690       ??_C@_1JK@KHFABAEO@?$AAw?$AAc?$AAs?$AAc?$AAp?$AAy?$AA_?$AAs?$AA?$CI?$AAs?$AAz?$AAU?$AAs?$AAe?$AAr@ 000000014004c690     libucrtd:dbgrptt.obj
 0002:0000a730       ??_C@_1KO@DGAHENCH@?$AAw?$AAc?$AAs?$AAc?$AAp?$AAy?$AA_?$AAs?$AA?$CI?$AAs?$AAz?$AAL?$AAi?$AAn?$AAe@ 000000014004c730     libucrtd:dbgrptt.obj
 0002:0000a7e0       ??_C@_1CG@FFFGGODN@?$AAA?$AAs?$AAs?$AAe?$AAr?$AAt?$AAi?$AAo?$AAn?$AA?5?$AAf?$AAa?$AAi?$AAl?$AAe@ 000000014004c7e0     libucrtd:dbgrptt.obj
 0002:0000a808       ??_C@_1CE@OJBNHDMO@?$AAA?$AAs?$AAs?$AAe?$AAr?$AAt?$AAi?$AAo?$AAn?$AA?5?$AAf?$AAa?$AAi?$AAl?$AAe@ 000000014004c808     libucrtd:dbgrptt.obj
 0002:0000a830       ??_C@_1FK@HPADHBBD@?$AAw?$AAc?$AAs?$AAc?$AAa?$AAt?$AA_?$AAs?$AA?$CI?$AAs?$AAz?$AAL?$AAi?$AAn?$AAe@ 000000014004c830     libucrtd:dbgrptt.obj
 0002:0000a890       ??_C@_1EK@NMDFGHMF@?$AAw?$AAc?$AAs?$AAc?$AAa?$AAt?$AA_?$AAs?$AA?$CI?$AAs?$AAz?$AAL?$AAi?$AAn?$AAe@ 000000014004c890     libucrtd:dbgrptt.obj
 0002:0000a8dc       ??_C@_13CMNBPIDO@?$AA?$AN@ 000000014004c8dc     libucrtd:dbgrptt.obj
 0002:0000a8e0       ??_C@_1EK@PHCBEDKB@?$AAw?$AAc?$AAs?$AAc?$AAa?$AAt?$AA_?$AAs?$AA?$CI?$AAs?$AAz?$AAL?$AAi?$AAn?$AAe@ 000000014004c8e0     libucrtd:dbgrptt.obj
 0002:0000a930       ??_C@_1BM@GIBPMLNL@?$AA?$CF?$AAl?$AAs?$AA?$CI?$AA?$CF?$AAd?$AA?$CJ?$AA?5?$AA?3?$AA?5?$AA?$CF?$AAl?$AAs@ 000000014004c930     libucrtd:dbgrptt.obj
 0002:0000a950       ??_C@_1JI@EACPGHID@?$AAw?$AAc?$AAs?$AAc?$AAp?$AAy?$AA_?$AAs?$AA?$CI?$AAs?$AAz?$AAO?$AAu?$AAt?$AAM@ 000000014004c950     libucrtd:dbgrptt.obj
 0002:0000a9f0       ??_C@_1FI@DBAIJPJE@?$AAw?$AAc?$AAs?$AAc?$AAp?$AAy?$AA_?$AAs?$AA?$CI?$AAs?$AAz?$AAO?$AAu?$AAt?$AAM@ 000000014004c9f0     libucrtd:dbgrptt.obj
 0002:0000aa50       ??_C@_1IK@LEBMBAP@?$AAw?$AAc?$AAs?$AAt?$AAo?$AAm?$AAb?$AAs?$AA_?$AAs?$AA?$CI?$AAn?$AAu?$AAl?$AAl@ 000000014004ca50     libucrtd:dbgrptt.obj
 0002:0000aae0       ??_C@_1MA@LBAMNNOB@?$AAs?$AAt?$AAr?$AAc?$AAp?$AAy?$AA_?$AAs?$AA?$CI?$AAs?$AAz?$AAO?$AAu?$AAt?$AAM@ 000000014004cae0     libucrtd:dbgrptt.obj
 0002:0000aba0       ??_C@_0DP@GNPEPHJD@_CrtDbgReport?3?5String?5too?5long?5@ 000000014004cba0     libucrtd:dbgrptt.obj
 0002:0000abe0       ??_C@_1IE@CPGKIAGP@?$AAw?$AAc?$AAs?$AAt?$AAo?$AAm?$AAb?$AAs?$AA_?$AAs?$AA?$CI?$AA?$CG?$AAr?$AAe?$AAt@ 000000014004cbe0     libucrtd:dbgrptt.obj
 0002:0000ac68       ??_C@_1CE@MCCHPLBM@?$AAb?$AAu?$AAf?$AAf?$AAe?$AAr?$AA?5?$AA?$CB?$AA?$DN?$AA?5?$AAn?$AAu?$AAl?$AAl?$AAp@ 000000014004cc68     libucrtd:_fptostr.obj
 0002:0000ac90       ??_C@_1GI@IMEEHIAK@?$AAm?$AAi?$AAn?$AAk?$AAe?$AAr?$AAn?$AAe?$AAl?$AA?2?$AAc?$AAr?$AAt?$AAs?$AA?2@ 000000014004cc90     libucrtd:_fptostr.obj
 0002:0000acf8       ??_C@_1DG@NMGBKPMI@?$AA_?$AA_?$AAa?$AAc?$AAr?$AAt?$AA_?$AAf?$AAp?$AA_?$AAs?$AAt?$AAr?$AAf?$AAl@ 000000014004ccf8     libucrtd:_fptostr.obj
 0002:0000ad30       ??_C@_1CC@ONIJBMJF@?$AAb?$AAu?$AAf?$AAf?$AAe?$AAr?$AA_?$AAc?$AAo?$AAu?$AAn?$AAt?$AA?5?$AA?$DO?$AA?5@ 000000014004cd30     libucrtd:_fptostr.obj
 0002:0000ad60       ??_C@_1IE@EAOKIIFP@?$AAb?$AAu?$AAf?$AAf?$AAe?$AAr?$AA_?$AAc?$AAo?$AAu?$AAn?$AAt?$AA?5?$AA?$DO?$AA?5@ 000000014004cd60     libucrtd:_fptostr.obj
 0002:0000ade8       ??_C@_1CA@EDEEBMBB@?$AAp?$AAf?$AAl?$AAt?$AA?5?$AA?$CB?$AA?$DN?$AA?5?$AAn?$AAu?$AAl?$AAl?$AAp?$AAt?$AAr@ 000000014004cde8     libucrtd:_fptostr.obj
 0002:0000ae10       ?large_power_data@?1??multiply_by_power_of_ten@__crt_strtox@@YA_NAEAUbig_integer@2@I@Z@4QBIB 000000014004ce10     libucrtd:cfout.obj
 0002:0000b720       ?large_power_indices@?1??multiply_by_power_of_ten@__crt_strtox@@YA_NAEAUbig_integer@2@I@Z@4QBUunpack_index@?1??12@YA_N0I@Z@B 000000014004d720     libucrtd:cfout.obj
 0002:0000b7b8       ?small_powers_of_ten@?1??multiply_by_power_of_ten@__crt_strtox@@YA_NAEAUbig_integer@2@I@Z@4QBIB 000000014004d7b8     libucrtd:cfout.obj
 0002:0000b7e0       ??_C@_1DI@GICAMMFM@?$AA?$CI?$AA?$CC?$AAD?$AAi?$AAv?$AAi?$AAs?$AAi?$AAo?$AAn?$AA?5?$AAb?$AAy?$AA?5?$AAz@ 000000014004d7e0     libucrtd:cfout.obj
 0002:0000b820       ??_C@_1GO@BFGDDONN@?$AAm?$AAi?$AAn?$AAk?$AAe?$AAr?$AAn?$AAe?$AAl?$AA?2?$AAc?$AAr?$AAt?$AAs?$AA?2@ 000000014004d820     libucrtd:cfout.obj
 0002:0000b890       ??_C@_1GC@DDAKNBNC@?$AAm?$AAi?$AAn?$AAk?$AAe?$AAr?$AAn?$AAe?$AAl?$AA?2?$AAc?$AAr?$AAt?$AAs?$AA?2@ 000000014004d890     libucrtd:cfout.obj
 0002:0000b8f8       ??_C@_1BM@FAAOAKKO@?$AA_?$AA_?$AAa?$AAc?$AAr?$AAt?$AA_?$AAf?$AAl?$AAt?$AAo?$AAu?$AAt@ 000000014004d8f8     libucrtd:cfout.obj
 0002:0000b920       ??_C@_1EI@OACEJKEP@?$AAs?$AAt?$AAr?$AAc?$AAp?$AAy?$AA_?$AAs?$AA?$CI?$AAr?$AAe?$AAs?$AAu?$AAl?$AAt@ 000000014004d920     libucrtd:cfout.obj
 0002:0000b968       ??_C@_01GBGANLPD@0@        000000014004d968     libucrtd:cfout.obj
 0002:0000b970       ??_C@_1FC@KIECGFMP@?$AAs?$AAt?$AAr?$AAc?$AAp?$AAy?$AA_?$AAs?$AA?$CI?$AAr?$AAe?$AAs?$AAu?$AAl?$AAt@ 000000014004d970     libucrtd:cfout.obj
 0002:0000b9c4       ??_C@_05DNEBIAHO@1?$CDINF@ 000000014004d9c4     libucrtd:cfout.obj
 0002:0000b9d0       ??_C@_1FC@NFPJEIBD@?$AAs?$AAt?$AAr?$AAc?$AAp?$AAy?$AA_?$AAs?$AA?$CI?$AAr?$AAe?$AAs?$AAu?$AAl?$AAt@ 000000014004d9d0     libucrtd:cfout.obj
 0002:0000ba24       ??_C@_06IMKFLFPG@1?$CDQNAN@ 000000014004da24     libucrtd:cfout.obj
 0002:0000ba30       ??_C@_1FC@DEJHIMLO@?$AAs?$AAt?$AAr?$AAc?$AAp?$AAy?$AA_?$AAs?$AA?$CI?$AAr?$AAe?$AAs?$AAu?$AAl?$AAt@ 000000014004da30     libucrtd:cfout.obj
 0002:0000ba84       ??_C@_06PGGFOGJG@1?$CDSNAN@ 000000014004da84     libucrtd:cfout.obj
 0002:0000ba90       ??_C@_1FC@KMLHLFPC@?$AAs?$AAt?$AAr?$AAc?$AAp?$AAy?$AA_?$AAs?$AA?$CI?$AAr?$AAe?$AAs?$AAu?$AAl?$AAt@ 000000014004da90     libucrtd:cfout.obj
 0002:0000bae4       ??_C@_05PHHOCPM@1?$CDIND@  000000014004dae4     libucrtd:cfout.obj
 0002:0000baf0       ??_C@_1DE@KHKADFOO@?$AAm?$AAa?$AAn?$AAt?$AAi?$AAs?$AAs?$AAa?$AA_?$AAb?$AAu?$AAf?$AAf?$AAe?$AAr@ 000000014004daf0     libucrtd:cfout.obj
 0002:0000bb30       ??_C@_1FI@LFKLOPAC@?$AA?$CI?$AA?$CC?$AAu?$AAn?$AAe?$AAx?$AAp?$AAe?$AAc?$AAt?$AAe?$AAd?$AA?5?$AAi?$AAn@ 000000014004db30     libucrtd:cfout.obj
 0002:0000bb90       ??_C@_1FG@MLHBDPBG@?$AAq?$AAu?$AAo?$AAt?$AAi?$AAe?$AAn?$AAt?$AA?5?$AA?$DM?$AA?5?$AAd?$AAi?$AAg?$AAi@ 000000014004db90     libucrtd:cfout.obj
 0002:0000bbf0       ??_C@_1EK@OANGPA@?$AA1?$AA?5?$AA?$DM?$AA?$DN?$AA?5?$AAt?$AAr?$AAa?$AAi?$AAl?$AA_?$AAb?$AAy?$AAt?$AAe@ 000000014004dbf0     libucrtd:c32rtomb.obj
 0002:0000bc40       ??_C@_1GI@FBFKMNDD@?$AAm?$AAi?$AAn?$AAk?$AAe?$AAr?$AAn?$AAe?$AAl?$AA?2?$AAc?$AAr?$AAt?$AAs?$AA?2@ 000000014004dc40     libucrtd:c32rtomb.obj
 0002:0000bcb0       ??_C@_1EA@DDDCIHI@?$AAc?$AA3?$AA2?$AA?5?$AA?$DM?$AA?5?$AA?$CI?$AA1?$AAu?$AA?5?$AA?$DM?$AA?$DM?$AA?5?$AA?$CI?$AA7@ 000000014004dcb0     libucrtd:c32rtomb.obj
 0002:0000bcf0       ??_C@_1GG@MCCIENJO@?$AAm?$AAi?$AAn?$AAk?$AAe?$AAr?$AAn?$AAe?$AAl?$AA?2?$AAc?$AAr?$AAt?$AAs?$AA?2@ 000000014004dcf0     libucrtd:mbrtowc.obj
 0002:0000bd60       ??_C@_1EK@MCEFBPIK@?$AAr?$AAe?$AAt?$AAv?$AAa?$AAl?$AA?5?$AA?$CB?$AA?$DN?$AA?5?$AA_?$AA_?$AAc?$AAr?$AAt@ 000000014004dd60     libucrtd:mbrtowc.obj
 0002:0000be30       ??_C@_1GE@GPOPIOIG@?$AAm?$AAi?$AAn?$AAk?$AAe?$AAr?$AAn?$AAe?$AAl?$AA?2?$AAc?$AAr?$AAt?$AAs?$AA?2@ 000000014004de30     libucrtd:_freebuf.obj
 0002:0000bea0       ??_C@_1GA@DEPMKPD@?$AAm?$AAi?$AAn?$AAk?$AAe?$AAr?$AAn?$AAe?$AAl?$AA?2?$AAc?$AAr?$AAt?$AAs?$AA?2@ 000000014004dea0     libucrtd:isatty.obj
 0002:0000bf00       ??_C@_1BA@LEBDGIHM@?$AA_?$AAi?$AAs?$AAa?$AAt?$AAt?$AAy@ 000000014004df00     libucrtd:isatty.obj
 0002:0000bf38       ??_C@_1DI@OOEEHOBJ@?$AAb?$AAa?$AAs?$AAe?$AA?5?$AA?$CB?$AA?$DN?$AA?5?$AAn?$AAu?$AAl?$AAl?$AAp?$AAt?$AAr@ 000000014004df38     libucrtd:qsort.obj
 0002:0000bf70       ??_C@_1GA@KPPCKKGE@?$AAm?$AAi?$AAn?$AAk?$AAe?$AAr?$AAn?$AAe?$AAl?$AA?2?$AAc?$AAr?$AAt?$AAs?$AA?2@ 000000014004df70     libucrtd:qsort.obj
 0002:0000bfd0       ??_C@_1M@INMHODIG@?$AAq?$AAs?$AAo?$AAr?$AAt@ 000000014004dfd0     libucrtd:qsort.obj
 0002:0000bfe0       ??_C@_1BE@NJBEBBME@?$AAw?$AAi?$AAd?$AAt?$AAh?$AA?5?$AA?$DO?$AA?5?$AA0@ 000000014004dfe0     libucrtd:qsort.obj
 0002:0000bff8       ??_C@_1CA@LIDFOMIN@?$AAc?$AAo?$AAm?$AAp?$AA?5?$AA?$CB?$AA?$DN?$AA?5?$AAn?$AAu?$AAl?$AAl?$AAp?$AAt?$AAr@ 000000014004dff8     libucrtd:qsort.obj
 0002:0000c018       ??_C@_1CE@BLLJFLOH@?$AAs?$AAt?$AAr?$AAi?$AAn?$AAg?$AA?5?$AA?$CB?$AA?$DN?$AA?5?$AAn?$AAu?$AAl?$AAl?$AAp@ 000000014004e018     libucrtd:mbsdec.obj
 0002:0000c040       ??_C@_1GO@DDOMFNGF@?$AAm?$AAi?$AAn?$AAk?$AAe?$AAr?$AAn?$AAe?$AAl?$AA?2?$AAc?$AAr?$AAt?$AAs?$AA?2@ 000000014004e040     libucrtd:mbsdec.obj
 0002:0000c0b0       ??_C@_1BE@KLNCOLCD@?$AA_?$AAm?$AAb?$AAs?$AAd?$AAe?$AAc?$AA_?$AAl@ 000000014004e0b0     libucrtd:mbsdec.obj
 0002:0000c0c8       ??_C@_1CG@CMGPGAOD@?$AAc?$AAu?$AAr?$AAr?$AAe?$AAn?$AAt?$AA?5?$AA?$CB?$AA?$DN?$AA?5?$AAn?$AAu?$AAl?$AAl@ 000000014004e0c8     libucrtd:mbsdec.obj
 0002:0000c0f0       ??_C@_0DH@IKPCBLP@minkernel?2crts?2ucrt?2src?2appcrt?2@ 000000014004e0f0     libucrtd:lcmapstringa.obj
 0002:0000c130       ??_C@_1GA@HBEFGMHK@?$AAm?$AAi?$AAn?$AAk?$AAe?$AAr?$AAn?$AAe?$AAl?$AA?2?$AAc?$AAr?$AAt?$AAs?$AA?2@ 000000014004e130     libucrtd:xtoa.obj
 0002:0000c190       ??_C@_1BM@HMPEMLNP@?$AAc?$AAo?$AAm?$AAm?$AAo?$AAn?$AA_?$AAx?$AAt?$AAo?$AAx?$AA_?$AAs@ 000000014004e190     libucrtd:xtoa.obj
 0002:0000c1b0       ??_C@_1HA@JFIOFNKD@?$AAb?$AAu?$AAf?$AAf?$AAe?$AAr?$AA_?$AAc?$AAo?$AAu?$AAn?$AAt?$AA?5?$AA?$DO?$AA?5@ 000000014004e1b0     libucrtd:xtoa.obj
 0002:0000c220       ??_C@_1DE@PCJGDBBD@?$AA2?$AA?5?$AA?$DM?$AA?$DN?$AA?5?$AAr?$AAa?$AAd?$AAi?$AAx?$AA?5?$AA?$CG?$AA?$CG?$AA?5?$AAr@ 000000014004e220     libucrtd:xtoa.obj
 0002:0000c258       ??_C@_1CM@LONILNIJ@?$AAl?$AAe?$AAn?$AAg?$AAt?$AAh?$AA?5?$AA?$DM?$AA?5?$AAb?$AAu?$AAf?$AAf?$AAe?$AAr@ 000000014004e258     libucrtd:xtoa.obj
 0002:0000c288       ??_C@_1BI@OLPLFKOE@?$AAc?$AAo?$AAm?$AAm?$AAo?$AAn?$AA_?$AAx?$AAt?$AAo?$AAx@ 000000014004e288     libucrtd:xtoa.obj
 0002:0000d0e0       ??_C@_15EMKDOKLE@?$AAa?$AAr@ 000000014004f0e0     libucrtd:lcidtoname_downlevel.obj
 0002:0000d0e8       ??_C@_15KNPADPLH@?$AAb?$AAg@ 000000014004f0e8     libucrtd:lcidtoname_downlevel.obj
 0002:0000d0f0       ??_C@_15EDMHLDMO@?$AAc?$AAa@ 000000014004f0f0     libucrtd:lcidtoname_downlevel.obj
 0002:0000d0f8       ??_C@_1O@BPEAJADD@?$AAz?$AAh?$AA?9?$AAC?$AAH?$AAS@ 000000014004f0f8     libucrtd:lcidtoname_downlevel.obj
 0002:0000d108       ??_C@_15LJNHCMNK@?$AAc?$AAs@ 000000014004f108     libucrtd:lcidtoname_downlevel.obj
 0002:0000d110       ??_C@_15FOMCIDHG@?$AAd?$AAa@ 000000014004f110     libucrtd:lcidtoname_downlevel.obj
 0002:0000d118       ??_C@_15NBKABECB@?$AAd?$AAe@ 000000014004f118     libucrtd:lcidtoname_downlevel.obj
 0002:0000d120       ??_C@_15GHPEIIAO@?$AAe?$AAl@ 000000014004f120     libucrtd:lcidtoname_downlevel.obj
 0002:0000d128       ??_C@_15MNPNEAIF@?$AAe?$AAn@ 000000014004f128     libucrtd:lcidtoname_downlevel.obj
 0002:0000d130       ??_C@_15GPIOMPMH@?$AAe?$AAs@ 000000014004f130     libucrtd:lcidtoname_downlevel.obj
 0002:0000d138       ??_C@_15NGLOAKJC@?$AAf?$AAi@ 000000014004f138     libucrtd:lcidtoname_downlevel.obj
 0002:0000d140       ??_C@_15FBKGNKAM@?$AAf?$AAr@ 000000014004f140     libucrtd:lcidtoname_downlevel.obj
 0002:0000d148       ??_C@_15KGGCNEFK@?$AAh?$AAe@ 000000014004f148     libucrtd:lcidtoname_downlevel.obj
 0002:0000d150       ??_C@_15PGHLIDMF@?$AAh?$AAu@ 000000014004f150     libucrtd:lcidtoname_downlevel.obj
 0002:0000d158       ??_C@_15BIEMAPLM@?$AAi?$AAs@ 000000014004f158     libucrtd:lcidtoname_downlevel.obj
 0002:0000d160       ??_C@_15IFJLDHAF@?$AAi?$AAt@ 000000014004f160     libucrtd:lcidtoname_downlevel.obj
 0002:0000d168       ??_C@_15GEMIOCAG@?$AAj?$AAa@ 000000014004f168     libucrtd:lcidtoname_downlevel.obj
 0002:0000d170       ??_C@_15EPELEGJA@?$AAk?$AAo@ 000000014004f170     libucrtd:lcidtoname_downlevel.obj
 0002:0000d178       ??_C@_15NDDHIMN@?$AAn?$AAl@ 000000014004f178     libucrtd:lcidtoname_downlevel.obj
 0002:0000d180       ??_C@_15BPIGNHCD@?$AAn?$AAo@ 000000014004f180     libucrtd:lcidtoname_downlevel.obj
 0002:0000d188       ??_C@_15DEOPBLCG@?$AAp?$AAl@ 000000014004f188     libucrtd:lcidtoname_downlevel.obj
 0002:0000d190       ??_C@_15KBECGEFG@?$AAp?$AAt@ 000000014004f190     libucrtd:lcidtoname_downlevel.obj
 0002:0000d198       ??_C@_15GLJCBFMD@?$AAr?$AAo@ 000000014004f198     libucrtd:lcidtoname_downlevel.obj
 0002:0000d1a0       ??_C@_15FEDGKCDI@?$AAr?$AAu@ 000000014004f1a0     libucrtd:lcidtoname_downlevel.obj
 0002:0000d1a8       ??_C@_15GLKMLLHM@?$AAh?$AAr@ 000000014004f1a8     libucrtd:lcidtoname_downlevel.obj
 0002:0000d1b0       ??_C@_15CPKMFBDB@?$AAs?$AAk@ 000000014004f1b0     libucrtd:lcidtoname_downlevel.obj
 0002:0000d1b8       ??_C@_15BAAIOGMK@?$AAs?$AAq@ 000000014004f1b8     libucrtd:lcidtoname_downlevel.obj
 0002:0000d1c0       ??_C@_15INNPNOHD@?$AAs?$AAv@ 000000014004f1c0     libucrtd:lcidtoname_downlevel.obj
 0002:0000d1c8       ??_C@_15CABMMOGH@?$AAt?$AAh@ 000000014004f1c8     libucrtd:lcidtoname_downlevel.obj
 0002:0000d1d0       ??_C@_15BPLIHJJM@?$AAt?$AAr@ 000000014004f1d0     libucrtd:lcidtoname_downlevel.obj
 0002:0000d1d8       ??_C@_15NEOEKKDJ@?$AAu?$AAr@ 000000014004f1d8     libucrtd:lcidtoname_downlevel.obj
 0002:0000d1e0       ??_C@_15NFICGAJK@?$AAi?$AAd@ 000000014004f1e0     libucrtd:lcidtoname_downlevel.obj
 0002:0000d1e8       ??_C@_15HPJPHDM@?$AAb?$AAe@ 000000014004f1e8     libucrtd:lcidtoname_downlevel.obj
 0002:0000d1f0       ??_C@_15LCHLGJII@?$AAs?$AAl@ 000000014004f1f0     libucrtd:lcidtoname_downlevel.obj
 0002:0000d1f8       ??_C@_15PCFJPHHO@?$AAe?$AAt@ 000000014004f1f8     libucrtd:lcidtoname_downlevel.obj
 0002:0000d200       ??_C@_15HPFPGODN@?$AAl?$AAv@ 000000014004f200     libucrtd:lcidtoname_downlevel.obj
 0002:0000d208       ??_C@_15NFFGKGLG@?$AAl?$AAt@ 000000014004f208     libucrtd:lcidtoname_downlevel.obj
 0002:0000d210       ??_C@_15BDAKCCHN@?$AAf?$AAa@ 000000014004f210     libucrtd:lcidtoname_downlevel.obj
 0002:0000d218       ??_C@_15NFGIAIAJ@?$AAv?$AAi@ 000000014004f218     libucrtd:lcidtoname_downlevel.obj
 0002:0000d220       ??_C@_15LMKNDMHN@?$AAh?$AAy@ 000000014004f220     libucrtd:lcidtoname_downlevel.obj
 0002:0000d228       ??_C@_15IJBHMCFL@?$AAa?$AAz@ 000000014004f228     libucrtd:lcidtoname_downlevel.obj
 0002:0000d230       ??_C@_15EKOFJABL@?$AAe?$AAu@ 000000014004f230     libucrtd:lcidtoname_downlevel.obj
 0002:0000d238       ??_C@_15BGHADCNK@?$AAm?$AAk@ 000000014004f238     libucrtd:lcidtoname_downlevel.obj
 0002:0000d240       ??_C@_15JDNICKHM@?$AAa?$AAf@ 000000014004f240     libucrtd:lcidtoname_downlevel.obj
 0002:0000d248       ??_C@_15KPJEDBKD@?$AAk?$AAa@ 000000014004f248     libucrtd:lcidtoname_downlevel.obj
 0002:0000d250       ??_C@_15PDNFFFEO@?$AAf?$AAo@ 000000014004f250     libucrtd:lcidtoname_downlevel.obj
 0002:0000d258       ??_C@_15OMLEGLOC@?$AAh?$AAi@ 000000014004f258     libucrtd:lcidtoname_downlevel.obj
 0002:0000d260       ??_C@_15IDNNENKK@?$AAm?$AAs@ 000000014004f260     libucrtd:lcidtoname_downlevel.obj
 0002:0000d268       ??_C@_15MACJNBMH@?$AAk?$AAk@ 000000014004f268     libucrtd:lcidtoname_downlevel.obj
 0002:0000d270       ??_C@_15DKDJEOND@?$AAk?$AAy@ 000000014004f270     libucrtd:lcidtoname_downlevel.obj
 0002:0000d278       ??_C@_15DFGDLJBG@?$AAs?$AAw@ 000000014004f278     libucrtd:lcidtoname_downlevel.obj
 0002:0000d280       ??_C@_15BBFAICNG@?$AAu?$AAz@ 000000014004f280     libucrtd:lcidtoname_downlevel.obj
 0002:0000d288       ??_C@_15DKNDCGEA@?$AAt?$AAt@ 000000014004f288     libucrtd:lcidtoname_downlevel.obj
 0002:0000d290       ??_C@_15MGIFMDPL@?$AAp?$AAa@ 000000014004f290     libucrtd:lcidtoname_downlevel.obj
 0002:0000d298       ??_C@_15HCNDBBA@?$AAg?$AAu@ 000000014004f298     libucrtd:lcidtoname_downlevel.obj
 0002:0000d2a0       ??_C@_15FNBEIBON@?$AAt?$AAa@ 000000014004f2a0     libucrtd:lcidtoname_downlevel.obj
 0002:0000d2a8       ??_C@_15NCHGBGLK@?$AAt?$AAe@ 000000014004f2a8     libucrtd:lcidtoname_downlevel.obj
 0002:0000d2b0       ??_C@_15PHPHCBPF@?$AAk?$AAn@ 000000014004f2b0     libucrtd:lcidtoname_downlevel.obj
 0002:0000d2b8       ??_C@_15DLGBCKMP@?$AAm?$AAr@ 000000014004f2b8     libucrtd:lcidtoname_downlevel.obj
 0002:0000d2c0       ??_C@_15EABBLBFF@?$AAs?$AAa@ 000000014004f2c0     libucrtd:lcidtoname_downlevel.obj
 0002:0000d2c8       ??_C@_15CBKOMCOI@?$AAm?$AAn@ 000000014004f2c8     libucrtd:lcidtoname_downlevel.obj
 0002:0000d2d0       ??_C@_15CKDMCJAF@?$AAg?$AAl@ 000000014004f2d0     libucrtd:lcidtoname_downlevel.obj
 0002:0000d2d8       ??_C@_17CNJFBPG@?$AAk?$AAo?$AAk@ 000000014004f2d8     libucrtd:lcidtoname_downlevel.obj
 0002:0000d2e0       ??_C@_17FFBJICPL@?$AAs?$AAy?$AAr@ 000000014004f2e0     libucrtd:lcidtoname_downlevel.obj
 0002:0000d2e8       ??_C@_17KPNDCPAF@?$AAd?$AAi?$AAv@ 000000014004f2e8     libucrtd:lcidtoname_downlevel.obj
 0002:0000d2f0       ??_C@_1M@OKAHONE@?$AAa?$AAr?$AA?9?$AAS?$AAA@ 000000014004f2f0     libucrtd:lcidtoname_downlevel.obj
 0002:0000d300       ??_C@_1M@FFFIGIGK@?$AAb?$AAg?$AA?9?$AAB?$AAG@ 000000014004f300     libucrtd:lcidtoname_downlevel.obj
 0002:0000d310       ??_C@_1M@BJNKEDC@?$AAc?$AAa?$AA?9?$AAE?$AAS@ 000000014004f310     libucrtd:lcidtoname_downlevel.obj
 0002:0000d320       ??_C@_1M@IJJHFJHA@?$AAc?$AAs?$AA?9?$AAC?$AAZ@ 000000014004f320     libucrtd:lcidtoname_downlevel.obj
 0002:0000d330       ??_C@_1M@CLPEOBGI@?$AAd?$AAa?$AA?9?$AAD?$AAK@ 000000014004f330     libucrtd:lcidtoname_downlevel.obj
 0002:0000d340       ??_C@_1M@MCMADGCB@?$AAd?$AAe?$AA?9?$AAD?$AAE@ 000000014004f340     libucrtd:lcidtoname_downlevel.obj
 0002:0000d350       ??_C@_1M@OOCKEMAM@?$AAe?$AAl?$AA?9?$AAG?$AAR@ 000000014004f350     libucrtd:lcidtoname_downlevel.obj
 0002:0000d360       ??_C@_1M@DDNJFGID@?$AAf?$AAi?$AA?9?$AAF?$AAI@ 000000014004f360     libucrtd:lcidtoname_downlevel.obj
 0002:0000d370       ??_C@_1M@GLIPPMAC@?$AAf?$AAr?$AA?9?$AAF?$AAR@ 000000014004f370     libucrtd:lcidtoname_downlevel.obj
 0002:0000d380       ??_C@_1M@GFMCHPE@?$AAh?$AAe?$AA?9?$AAI?$AAL@ 000000014004f380     libucrtd:lcidtoname_downlevel.obj
 0002:0000d390       ??_C@_1M@MHLPGNKM@?$AAh?$AAu?$AA?9?$AAH?$AAU@ 000000014004f390     libucrtd:lcidtoname_downlevel.obj
 0002:0000d3a0       ??_C@_1M@LPDDNNPN@?$AAi?$AAs?$AA?9?$AAI?$AAS@ 000000014004f3a0     libucrtd:lcidtoname_downlevel.obj
 0002:0000d3b0       ??_C@_1M@MADIPODN@?$AAi?$AAt?$AA?9?$AAI?$AAT@ 000000014004f3b0     libucrtd:lcidtoname_downlevel.obj
 0002:0000d3c0       ??_C@_1M@IHBJJGG@?$AAn?$AAl?$AA?9?$AAN?$AAL@ 000000014004f3c0     libucrtd:lcidtoname_downlevel.obj
 0002:0000d3d0       ??_C@_1M@EANAGDL@?$AAn?$AAb?$AA?9?$AAN?$AAO@ 000000014004f3d0     libucrtd:lcidtoname_downlevel.obj
 0002:0000d3e0       ??_C@_1M@NEIEMEGP@?$AAp?$AAl?$AA?9?$AAP?$AAL@ 000000014004f3e0     libucrtd:lcidtoname_downlevel.obj
 0002:0000d3f0       ??_C@_1M@BOCFIGEP@?$AAp?$AAt?$AA?9?$AAB?$AAR@ 000000014004f3f0     libucrtd:lcidtoname_downlevel.obj
 0002:0000d400       ??_C@_1M@IMPFOPBG@?$AAr?$AAo?$AA?9?$AAR?$AAO@ 000000014004f400     libucrtd:lcidtoname_downlevel.obj
 0002:0000d410       ??_C@_1M@IDNNEJMM@?$AAr?$AAu?$AA?9?$AAR?$AAU@ 000000014004f410     libucrtd:lcidtoname_downlevel.obj
 0002:0000d420       ??_C@_1M@LILEEOGM@?$AAh?$AAr?$AA?9?$AAH?$AAR@ 000000014004f420     libucrtd:lcidtoname_downlevel.obj
 0002:0000d430       ??_C@_1M@FKIFEHPB@?$AAs?$AAk?$AA?9?$AAS?$AAK@ 000000014004f430     libucrtd:lcidtoname_downlevel.obj
 0002:0000d440       ??_C@_1M@LJMAMNPJ@?$AAs?$AAq?$AA?9?$AAA?$AAL@ 000000014004f440     libucrtd:lcidtoname_downlevel.obj
 0002:0000d450       ??_C@_1M@GIAKDKJK@?$AAs?$AAv?$AA?9?$AAS?$AAE@ 000000014004f450     libucrtd:lcidtoname_downlevel.obj
 0002:0000d460       ??_C@_1M@MKJKIKCL@?$AAt?$AAh?$AA?9?$AAT?$AAH@ 000000014004f460     libucrtd:lcidtoname_downlevel.obj
 0002:0000d470       ??_C@_1M@MFLCCMPB@?$AAt?$AAr?$AA?9?$AAT?$AAR@ 000000014004f470     libucrtd:lcidtoname_downlevel.obj
 0002:0000d480       ??_C@_1M@OIJHDKJN@?$AAu?$AAr?$AA?9?$AAP?$AAK@ 000000014004f480     libucrtd:lcidtoname_downlevel.obj
 0002:0000d490       ??_C@_1M@LHIPCIEK@?$AAi?$AAd?$AA?9?$AAI?$AAD@ 000000014004f490     libucrtd:lcidtoname_downlevel.obj
 0002:0000d4a0       ??_C@_1M@MFMOBGI@?$AAu?$AAk?$AA?9?$AAU?$AAA@ 000000014004f4a0     libucrtd:lcidtoname_downlevel.obj
 0002:0000d4b0       ??_C@_1M@OBGLJIPL@?$AAb?$AAe?$AA?9?$AAB?$AAY@ 000000014004f4b0     libucrtd:lcidtoname_downlevel.obj
 0002:0000d4c0       ??_C@_1M@BCFAJEAD@?$AAs?$AAl?$AA?9?$AAS?$AAI@ 000000014004f4c0     libucrtd:lcidtoname_downlevel.obj
 0002:0000d4d0       ??_C@_1M@FKFFEDDN@?$AAe?$AAt?$AA?9?$AAE?$AAE@ 000000014004f4d0     libucrtd:lcidtoname_downlevel.obj
 0002:0000d4e0       ??_C@_1M@KGKKAACI@?$AAl?$AAv?$AA?9?$AAL?$AAV@ 000000014004f4e0     libucrtd:lcidtoname_downlevel.obj
 0002:0000d4f0       ??_C@_1M@IFGBIJO@?$AAl?$AAt?$AA?9?$AAL?$AAT@ 000000014004f4f0     libucrtd:lcidtoname_downlevel.obj
 0002:0000d500       ??_C@_1M@FGEAHEDM@?$AAf?$AAa?$AA?9?$AAI?$AAR@ 000000014004f500     libucrtd:lcidtoname_downlevel.obj
 0002:0000d510       ??_C@_1M@KBMAIBFN@?$AAv?$AAi?$AA?9?$AAV?$AAN@ 000000014004f510     libucrtd:lcidtoname_downlevel.obj
 0002:0000d520       ??_C@_1M@GPCBKDJK@?$AAh?$AAy?$AA?9?$AAA?$AAM@ 000000014004f520     libucrtd:lcidtoname_downlevel.obj
 0002:0000d530       ??_C@_1BG@BECMDDJB@?$AAa?$AAz?$AA?9?$AAA?$AAZ?$AA?9?$AAL?$AAa?$AAt?$AAn@ 000000014004f530     libucrtd:lcidtoname_downlevel.obj
 0002:0000d548       ??_C@_1M@MAOFCAEA@?$AAe?$AAu?$AA?9?$AAE?$AAS@ 000000014004f548     libucrtd:lcidtoname_downlevel.obj
 0002:0000d558       ??_C@_1M@IGHABKPI@?$AAm?$AAk?$AA?9?$AAM?$AAK@ 000000014004f558     libucrtd:lcidtoname_downlevel.obj
 0002:0000d568       ??_C@_1M@IAIGNEJG@?$AAt?$AAn?$AA?9?$AAZ?$AAA@ 000000014004f568     libucrtd:lcidtoname_downlevel.obj
 0002:0000d578       ??_C@_1M@IIJCOJFA@?$AAx?$AAh?$AA?9?$AAZ?$AAA@ 000000014004f578     libucrtd:lcidtoname_downlevel.obj
 0002:0000d588       ??_C@_1M@LGPJHNJH@?$AAz?$AAu?$AA?9?$AAZ?$AAA@ 000000014004f588     libucrtd:lcidtoname_downlevel.obj
 0002:0000d598       ??_C@_1M@HOKAOIO@?$AAa?$AAf?$AA?9?$AAZ?$AAA@ 000000014004f598     libucrtd:lcidtoname_downlevel.obj
 0002:0000d5a8       ??_C@_1M@DPCLHLIE@?$AAk?$AAa?$AA?9?$AAG?$AAE@ 000000014004f5a8     libucrtd:lcidtoname_downlevel.obj
 0002:0000d5b8       ??_C@_1M@BLKMHJBI@?$AAf?$AAo?$AA?9?$AAF?$AAO@ 000000014004f5b8     libucrtd:lcidtoname_downlevel.obj
 0002:0000d5c8       ??_C@_1M@LGGJAPPB@?$AAh?$AAi?$AA?9?$AAI?$AAN@ 000000014004f5c8     libucrtd:lcidtoname_downlevel.obj
 0002:0000d5d8       ??_C@_1M@FIKPIHFE@?$AAm?$AAt?$AA?9?$AAM?$AAT@ 000000014004f5d8     libucrtd:lcidtoname_downlevel.obj
 0002:0000d5e8       ??_C@_1M@HEGGPBFA@?$AAs?$AAe?$AA?9?$AAN?$AAO@ 000000014004f5e8     libucrtd:lcidtoname_downlevel.obj
 0002:0000d5f8       ??_C@_1M@EIBJEEPA@?$AAm?$AAs?$AA?9?$AAM?$AAY@ 000000014004f5f8     libucrtd:lcidtoname_downlevel.obj
 0002:0000d608       ??_C@_1M@FHLBGMPP@?$AAk?$AAk?$AA?9?$AAK?$AAZ@ 000000014004f608     libucrtd:lcidtoname_downlevel.obj
 0002:0000d618       ??_C@_1M@NGJJLCGI@?$AAk?$AAy?$AA?9?$AAK?$AAG@ 000000014004f618     libucrtd:lcidtoname_downlevel.obj
 0002:0000d628       ??_C@_1M@GIENNBFC@?$AAs?$AAw?$AA?9?$AAK?$AAE@ 000000014004f628     libucrtd:lcidtoname_downlevel.obj
 0002:0000d638       ??_C@_1BG@NDGMJIMJ@?$AAu?$AAz?$AA?9?$AAU?$AAZ?$AA?9?$AAL?$AAa?$AAt?$AAn@ 000000014004f638     libucrtd:lcidtoname_downlevel.obj
 0002:0000d650       ??_C@_1M@IDCCIHBC@?$AAt?$AAt?$AA?9?$AAR?$AAU@ 000000014004f650     libucrtd:lcidtoname_downlevel.obj
 0002:0000d660       ??_C@_1M@LOICPMOJ@?$AAb?$AAn?$AA?9?$AAI?$AAN@ 000000014004f660     libucrtd:lcidtoname_downlevel.obj
 0002:0000d670       ??_C@_1M@KPKKNEAH@?$AAp?$AAa?$AA?9?$AAI?$AAN@ 000000014004f670     libucrtd:lcidtoname_downlevel.obj
 0002:0000d680       ??_C@_1M@PJGPPBOG@?$AAg?$AAu?$AA?9?$AAI?$AAN@ 000000014004f680     libucrtd:lcidtoname_downlevel.obj
 0002:0000d690       ??_C@_1M@KMKMOPHI@?$AAt?$AAa?$AA?9?$AAI?$AAN@ 000000014004f690     libucrtd:lcidtoname_downlevel.obj
 0002:0000d6a0       ??_C@_1M@KFEHEPAC@?$AAt?$AAe?$AA?9?$AAI?$AAN@ 000000014004f6a0     libucrtd:lcidtoname_downlevel.obj
 0002:0000d6b0       ??_C@_1M@CDCLMGHI@?$AAk?$AAn?$AA?9?$AAI?$AAN@ 000000014004f6b0     libucrtd:lcidtoname_downlevel.obj
 0002:0000d6c0       ??_C@_1M@MIODLDKF@?$AAm?$AAl?$AA?9?$AAI?$AAN@ 000000014004f6c0     libucrtd:lcidtoname_downlevel.obj
 0002:0000d6d0       ??_C@_1M@PBIEACPO@?$AAm?$AAr?$AA?9?$AAI?$AAN@ 000000014004f6d0     libucrtd:lcidtoname_downlevel.obj
 0002:0000d6e0       ??_C@_1M@NIDEAGPH@?$AAs?$AAa?$AA?9?$AAI?$AAN@ 000000014004f6e0     libucrtd:lcidtoname_downlevel.obj
 0002:0000d6f0       ??_C@_1M@FHIHCBIO@?$AAm?$AAn?$AA?9?$AAM?$AAN@ 000000014004f6f0     libucrtd:lcidtoname_downlevel.obj
 0002:0000d700       ??_C@_1M@JAIJPENP@?$AAc?$AAy?$AA?9?$AAG?$AAB@ 000000014004f700     libucrtd:lcidtoname_downlevel.obj
 0002:0000d710       ??_C@_1M@PHGFBEPN@?$AAg?$AAl?$AA?9?$AAE?$AAS@ 000000014004f710     libucrtd:lcidtoname_downlevel.obj
 0002:0000d720       ??_C@_1O@KPIPDNCP@?$AAk?$AAo?$AAk?$AA?9?$AAI?$AAN@ 000000014004f720     libucrtd:lcidtoname_downlevel.obj
 0002:0000d730       ??_C@_1O@KNHJLDJA@?$AAs?$AAy?$AAr?$AA?9?$AAS?$AAY@ 000000014004f730     libucrtd:lcidtoname_downlevel.obj
 0002:0000d740       ??_C@_1O@MKEKBLAH@?$AAd?$AAi?$AAv?$AA?9?$AAM?$AAV@ 000000014004f740     libucrtd:lcidtoname_downlevel.obj
 0002:0000d750       ??_C@_1O@OHDCKDDF@?$AAq?$AAu?$AAz?$AA?9?$AAB?$AAO@ 000000014004f750     libucrtd:lcidtoname_downlevel.obj
 0002:0000d760       ??_C@_1M@LEPJNLFD@?$AAn?$AAs?$AA?9?$AAZ?$AAA@ 000000014004f760     libucrtd:lcidtoname_downlevel.obj
 0002:0000d770       ??_C@_1M@OMLEIIJB@?$AAm?$AAi?$AA?9?$AAN?$AAZ@ 000000014004f770     libucrtd:lcidtoname_downlevel.obj
 0002:0000d780       ??_C@_1M@PMPEAILG@?$AAa?$AAr?$AA?9?$AAI?$AAQ@ 000000014004f780     libucrtd:lcidtoname_downlevel.obj
 0002:0000d790       ??_C@_1M@CNKPNOEE@?$AAd?$AAe?$AA?9?$AAC?$AAH@ 000000014004f790     libucrtd:lcidtoname_downlevel.obj
 0002:0000d7a0       ??_C@_1M@LKMGMLKO@?$AAe?$AAn?$AA?9?$AAG?$AAB@ 000000014004f7a0     libucrtd:lcidtoname_downlevel.obj
 0002:0000d7b0       ??_C@_1M@PGKJFFGL@?$AAe?$AAs?$AA?9?$AAM?$AAX@ 000000014004f7b0     libucrtd:lcidtoname_downlevel.obj
 0002:0000d7c0       ??_C@_1M@DNNANBDC@?$AAf?$AAr?$AA?9?$AAB?$AAE@ 000000014004f7c0     libucrtd:lcidtoname_downlevel.obj
 0002:0000d7d0       ??_C@_1M@HLGMDFHM@?$AAi?$AAt?$AA?9?$AAC?$AAH@ 000000014004f7d0     libucrtd:lcidtoname_downlevel.obj
 0002:0000d7e0       ??_C@_1M@CLLBGJH@?$AAn?$AAl?$AA?9?$AAB?$AAE@ 000000014004f7e0     libucrtd:lcidtoname_downlevel.obj
 0002:0000d7f0       ??_C@_1M@BODBOGLF@?$AAn?$AAn?$AA?9?$AAN?$AAO@ 000000014004f7f0     libucrtd:lcidtoname_downlevel.obj
 0002:0000d800       ??_C@_1M@HFFAHKAD@?$AAp?$AAt?$AA?9?$AAP?$AAT@ 000000014004f800     libucrtd:lcidtoname_downlevel.obj
 0002:0000d810       ??_C@_1BG@LNOAKHIE@?$AAs?$AAr?$AA?9?$AAS?$AAP?$AA?9?$AAL?$AAa?$AAt?$AAn@ 000000014004f810     libucrtd:lcidtoname_downlevel.obj
 0002:0000d828       ??_C@_1M@HBMHBGAK@?$AAs?$AAv?$AA?9?$AAF?$AAI@ 000000014004f828     libucrtd:lcidtoname_downlevel.obj
 0002:0000d838       ??_C@_1BG@DGCJGJBE@?$AAa?$AAz?$AA?9?$AAA?$AAZ?$AA?9?$AAC?$AAy?$AAr?$AAl@ 000000014004f838     libucrtd:lcidtoname_downlevel.obj
 0002:0000d850       ??_C@_1M@KEJDAAHB@?$AAs?$AAe?$AA?9?$AAS?$AAE@ 000000014004f850     libucrtd:lcidtoname_downlevel.obj
 0002:0000d860       ??_C@_1M@HEIBJJAD@?$AAm?$AAs?$AA?9?$AAB?$AAN@ 000000014004f860     libucrtd:lcidtoname_downlevel.obj
 0002:0000d870       ??_C@_1BG@PBGJMCEM@?$AAu?$AAz?$AA?9?$AAU?$AAZ?$AA?9?$AAC?$AAy?$AAr?$AAl@ 000000014004f870     libucrtd:lcidtoname_downlevel.obj
 0002:0000d888       ??_C@_1O@LAOBCMDF@?$AAq?$AAu?$AAz?$AA?9?$AAE?$AAC@ 000000014004f888     libucrtd:lcidtoname_downlevel.obj
 0002:0000d898       ??_C@_1M@POEEMAIO@?$AAa?$AAr?$AA?9?$AAE?$AAG@ 000000014004f898     libucrtd:lcidtoname_downlevel.obj
 0002:0000d8a8       ??_C@_1M@EFAKDEDL@?$AAz?$AAh?$AA?9?$AAH?$AAK@ 000000014004f8a8     libucrtd:lcidtoname_downlevel.obj
 0002:0000d8b8       ??_C@_1M@HKKIJHGI@?$AAd?$AAe?$AA?9?$AAA?$AAT@ 000000014004f8b8     libucrtd:lcidtoname_downlevel.obj
 0002:0000d8c8       ??_C@_1M@KBFBEHJF@?$AAe?$AAn?$AA?9?$AAA?$AAU@ 000000014004f8c8     libucrtd:lcidtoname_downlevel.obj
 0002:0000d8d8       ??_C@_1M@MNPLFAAH@?$AAe?$AAs?$AA?9?$AAE?$AAS@ 000000014004f8d8     libucrtd:lcidtoname_downlevel.obj
 0002:0000d8e8       ??_C@_1M@HJOOJFMA@?$AAf?$AAr?$AA?9?$AAC?$AAA@ 000000014004f8e8     libucrtd:lcidtoname_downlevel.obj
 0002:0000d8f8       ??_C@_1BG@JPOFPNAB@?$AAs?$AAr?$AA?9?$AAS?$AAP?$AA?9?$AAC?$AAy?$AAr?$AAl@ 000000014004f8f8     libucrtd:lcidtoname_downlevel.obj
 0002:0000d910       ??_C@_1M@LNFOCMOB@?$AAs?$AAe?$AA?9?$AAF?$AAI@ 000000014004f910     libucrtd:lcidtoname_downlevel.obj
 0002:0000d920       ??_C@_1O@MGJBOAMB@?$AAq?$AAu?$AAz?$AA?9?$AAP?$AAE@ 000000014004f920     libucrtd:lcidtoname_downlevel.obj
 0002:0000d930       ??_C@_1M@GJINLBOK@?$AAa?$AAr?$AA?9?$AAL?$AAY@ 000000014004f930     libucrtd:lcidtoname_downlevel.obj
 0002:0000d940       ??_C@_1M@GGMNHJNL@?$AAz?$AAh?$AA?9?$AAS?$AAG@ 000000014004f940     libucrtd:lcidtoname_downlevel.obj
 0002:0000d950       ??_C@_1M@HOIKODND@?$AAd?$AAe?$AA?9?$AAL?$AAU@ 000000014004f950     libucrtd:lcidtoname_downlevel.obj
 0002:0000d960       ??_C@_1M@DDOCCGFG@?$AAe?$AAn?$AA?9?$AAC?$AAA@ 000000014004f960     libucrtd:lcidtoname_downlevel.obj
 0002:0000d970       ??_C@_1M@BNOEMJLF@?$AAe?$AAs?$AA?9?$AAG?$AAT@ 000000014004f970     libucrtd:lcidtoname_downlevel.obj
 0002:0000d980       ??_C@_1M@EOGNKEK@?$AAf?$AAr?$AA?9?$AAC?$AAH@ 000000014004f980     libucrtd:lcidtoname_downlevel.obj
 0002:0000d990       ??_C@_1M@FLIDJFHL@?$AAh?$AAr?$AA?9?$AAB?$AAA@ 000000014004f990     libucrtd:lcidtoname_downlevel.obj
 0002:0000d9a0       ??_C@_1O@FMCELNAJ@?$AAs?$AAm?$AAj?$AA?9?$AAN?$AAO@ 000000014004f9a0     libucrtd:lcidtoname_downlevel.obj
 0002:0000d9b0       ??_C@_1M@JHGLJMGJ@?$AAa?$AAr?$AA?9?$AAD?$AAZ@ 000000014004f9b0     libucrtd:lcidtoname_downlevel.obj
 0002:0000d9c0       ??_C@_1M@JKKFDCNP@?$AAz?$AAh?$AA?9?$AAM?$AAO@ 000000014004f9c0     libucrtd:lcidtoname_downlevel.obj
 0002:0000d9d0       ??_C@_1M@GEEFALPE@?$AAd?$AAe?$AA?9?$AAL?$AAI@ 000000014004f9d0     libucrtd:lcidtoname_downlevel.obj
 0002:0000d9e0       ??_C@_1M@IGEOFBG@?$AAe?$AAn?$AA?9?$AAN?$AAZ@ 000000014004f9e0     libucrtd:lcidtoname_downlevel.obj
 0002:0000d9f0       ??_C@_1M@KDBONEHP@?$AAe?$AAs?$AA?9?$AAC?$AAR@ 000000014004f9f0     libucrtd:lcidtoname_downlevel.obj
 0002:0000da00       ??_C@_1M@FHMDOHNN@?$AAf?$AAr?$AA?9?$AAL?$AAU@ 000000014004fa00     libucrtd:lcidtoname_downlevel.obj
 0002:0000da10       ??_C@_1BG@NFKKMAFG@?$AAb?$AAs?$AA?9?$AAB?$AAA?$AA?9?$AAL?$AAa?$AAt?$AAn@ 000000014004fa10     libucrtd:lcidtoname_downlevel.obj
 0002:0000da28       ??_C@_1O@IMNBEMCI@?$AAs?$AAm?$AAj?$AA?9?$AAS?$AAE@ 000000014004fa28     libucrtd:lcidtoname_downlevel.obj
 0002:0000da38       ??_C@_1M@DHHMBNDP@?$AAa?$AAr?$AA?9?$AAM?$AAA@ 000000014004fa38     libucrtd:lcidtoname_downlevel.obj
 0002:0000da48       ??_C@_1M@BNBLJCGH@?$AAe?$AAn?$AA?9?$AAI?$AAE@ 000000014004fa48     libucrtd:lcidtoname_downlevel.obj
 0002:0000da58       ??_C@_1M@GEPAFMDL@?$AAe?$AAs?$AA?9?$AAP?$AAA@ 000000014004fa58     libucrtd:lcidtoname_downlevel.obj
 0002:0000da68       ??_C@_1M@OJONDMDL@?$AAf?$AAr?$AA?9?$AAM?$AAC@ 000000014004fa68     libucrtd:lcidtoname_downlevel.obj
 0002:0000da78       ??_C@_1BG@OBCNFJB@?$AAs?$AAr?$AA?9?$AAB?$AAA?$AA?9?$AAL?$AAa?$AAt?$AAn@ 000000014004fa78     libucrtd:lcidtoname_downlevel.obj
 0002:0000da90       ??_C@_1O@KEMEEGPO@?$AAs?$AAm?$AAa?$AA?9?$AAN?$AAO@ 000000014004fa90     libucrtd:lcidtoname_downlevel.obj
 0002:0000daa0       ??_C@_1M@ELMGFODK@?$AAa?$AAr?$AA?9?$AAT?$AAN@ 000000014004faa0     libucrtd:lcidtoname_downlevel.obj
 0002:0000dab0       ??_C@_1M@BHDLHFAF@?$AAe?$AAn?$AA?9?$AAZ?$AAA@ 000000014004fab0     libucrtd:lcidtoname_downlevel.obj
 0002:0000dac0       ??_C@_1M@BMGIGLIF@?$AAe?$AAs?$AA?9?$AAD?$AAO@ 000000014004fac0     libucrtd:lcidtoname_downlevel.obj
 0002:0000dad0       ??_C@_1BG@CMBHIPBE@?$AAs?$AAr?$AA?9?$AAB?$AAA?$AA?9?$AAC?$AAy?$AAr?$AAl@ 000000014004fad0     libucrtd:lcidtoname_downlevel.obj
 0002:0000dae8       ??_C@_1O@HEDBLHNP@?$AAs?$AAm?$AAa?$AA?9?$AAS?$AAE@ 000000014004fae8     libucrtd:lcidtoname_downlevel.obj
 0002:0000daf8       ??_C@_1M@DAGCADIM@?$AAa?$AAr?$AA?9?$AAO?$AAM@ 000000014004faf8     libucrtd:lcidtoname_downlevel.obj
 0002:0000db08       ??_C@_1M@FODLMICG@?$AAe?$AAn?$AA?9?$AAJ?$AAM@ 000000014004fb08     libucrtd:lcidtoname_downlevel.obj
 0002:0000db18       ??_C@_1M@DNMLCIHB@?$AAe?$AAs?$AA?9?$AAV?$AAE@ 000000014004fb18     libucrtd:lcidtoname_downlevel.obj
 0002:0000db28       ??_C@_1O@EOKHMKJK@?$AAs?$AAm?$AAs?$AA?9?$AAF?$AAI@ 000000014004fb28     libucrtd:lcidtoname_downlevel.obj
 0002:0000db38       ??_C@_1M@CAFJMKOF@?$AAa?$AAr?$AA?9?$AAY?$AAE@ 000000014004fb38     libucrtd:lcidtoname_downlevel.obj
 0002:0000db48       ??_C@_1M@CBFHIJLI@?$AAe?$AAn?$AA?9?$AAC?$AAB@ 000000014004fb48     libucrtd:lcidtoname_downlevel.obj
 0002:0000db58       ??_C@_1M@BGNFLDN@?$AAe?$AAs?$AA?9?$AAC?$AAO@ 000000014004fb58     libucrtd:lcidtoname_downlevel.obj
 0002:0000db68       ??_C@_1O@JMPHMAMC@?$AAs?$AAm?$AAn?$AA?9?$AAF?$AAI@ 000000014004fb68     libucrtd:lcidtoname_downlevel.obj
 0002:0000db78       ??_C@_1M@JLANABKE@?$AAa?$AAr?$AA?9?$AAS?$AAY@ 000000014004fb78     libucrtd:lcidtoname_downlevel.obj
 0002:0000db88       ??_C@_1M@HPKGCFGN@?$AAe?$AAn?$AA?9?$AAB?$AAZ@ 000000014004fb88     libucrtd:lcidtoname_downlevel.obj
 0002:0000db98       ??_C@_1M@OLJCMLGM@?$AAe?$AAs?$AA?9?$AAP?$AAE@ 000000014004fb98     libucrtd:lcidtoname_downlevel.obj
 0002:0000dba8       ??_C@_1M@MKKGFKLE@?$AAa?$AAr?$AA?9?$AAJ?$AAO@ 000000014004fba8     libucrtd:lcidtoname_downlevel.obj
 0002:0000dbb8       ??_C@_1M@EKPGLDNI@?$AAe?$AAn?$AA?9?$AAT?$AAT@ 000000014004fbb8     libucrtd:lcidtoname_downlevel.obj
 0002:0000dbc8       ??_C@_1M@OONGHFHE@?$AAe?$AAs?$AA?9?$AAA?$AAR@ 000000014004fbc8     libucrtd:lcidtoname_downlevel.obj
 0002:0000dbd8       ??_C@_1M@OOJFGBHE@?$AAa?$AAr?$AA?9?$AAL?$AAB@ 000000014004fbd8     libucrtd:lcidtoname_downlevel.obj
 0002:0000dbe8       ??_C@_1M@GCEJHNEG@?$AAe?$AAn?$AA?9?$AAZ?$AAW@ 000000014004fbe8     libucrtd:lcidtoname_downlevel.obj
 0002:0000dbf8       ??_C@_1M@JNOCAHJI@?$AAe?$AAs?$AA?9?$AAE?$AAC@ 000000014004fbf8     libucrtd:lcidtoname_downlevel.obj
 0002:0000dc08       ??_C@_1M@JEFHPGGB@?$AAa?$AAr?$AA?9?$AAK?$AAW@ 000000014004fc08     libucrtd:lcidtoname_downlevel.obj
 0002:0000dc18       ??_C@_1M@MLKIBJOJ@?$AAe?$AAn?$AA?9?$AAP?$AAH@ 000000014004fc18     libucrtd:lcidtoname_downlevel.obj
 0002:0000dc28       ??_C@_1M@BDNIPEND@?$AAe?$AAs?$AA?9?$AAC?$AAL@ 000000014004fc28     libucrtd:lcidtoname_downlevel.obj
 0002:0000dc38       ??_C@_1M@MPNMEKBD@?$AAa?$AAr?$AA?9?$AAA?$AAE@ 000000014004fc38     libucrtd:lcidtoname_downlevel.obj
 0002:0000dc48       ??_C@_1M@KBJALCPI@?$AAe?$AAs?$AA?9?$AAU?$AAY@ 000000014004fc48     libucrtd:lcidtoname_downlevel.obj
 0002:0000dc58       ??_C@_1M@LLCCOAGA@?$AAa?$AAr?$AA?9?$AAB?$AAH@ 000000014004fc58     libucrtd:lcidtoname_downlevel.obj
 0002:0000dc68       ??_C@_1M@PBFNCDEL@?$AAe?$AAs?$AA?9?$AAP?$AAY@ 000000014004fc68     libucrtd:lcidtoname_downlevel.obj
 0002:0000dc78       ??_C@_1M@EDGINPNP@?$AAa?$AAr?$AA?9?$AAQ?$AAA@ 000000014004fc78     libucrtd:lcidtoname_downlevel.obj
 0002:0000dc88       ??_C@_1M@MKDBIIJI@?$AAe?$AAs?$AA?9?$AAB?$AAO@ 000000014004fc88     libucrtd:lcidtoname_downlevel.obj
 0002:0000dc98       ??_C@_1M@CPKKEBLD@?$AAe?$AAs?$AA?9?$AAS?$AAV@ 000000014004fc98     libucrtd:lcidtoname_downlevel.obj
 0002:0000dca8       ??_C@_1M@NDBGMMJL@?$AAe?$AAs?$AA?9?$AAH?$AAN@ 000000014004fca8     libucrtd:lcidtoname_downlevel.obj
 0002:0000dcb8       ??_C@_1M@JIJIBHDP@?$AAe?$AAs?$AA?9?$AAN?$AAI@ 000000014004fcb8     libucrtd:lcidtoname_downlevel.obj
 0002:0000dcc8       ??_C@_1M@CGFMKEEK@?$AAe?$AAs?$AA?9?$AAP?$AAR@ 000000014004fcc8     libucrtd:lcidtoname_downlevel.obj
 0002:0000dcd8       ??_C@_1O@ICJHKIIK@?$AAz?$AAh?$AA?9?$AAC?$AAH?$AAT@ 000000014004fcd8     libucrtd:lcidtoname_downlevel.obj
 0002:0000dce8       ??_C@_15CLNEJCE@?$AAs?$AAr@ 000000014004fce8     libucrtd:lcidtoname_downlevel.obj
 0002:0000eb30       ??_C@_1M@KAHEKEIG@?$AAa?$AAf?$AA?9?$AAz?$AAa@ 0000000140050b30     libucrtd:lcidtoname_downlevel.obj
 0002:0000eb40       ??_C@_1M@GIECOABL@?$AAa?$AAr?$AA?9?$AAa?$AAe@ 0000000140050b40     libucrtd:lcidtoname_downlevel.obj
 0002:0000eb50       ??_C@_1M@BMLMEKGI@?$AAa?$AAr?$AA?9?$AAb?$AAh@ 0000000140050b50     libucrtd:lcidtoname_downlevel.obj
 0002:0000eb60       ??_C@_1M@DAPFDGGB@?$AAa?$AAr?$AA?9?$AAd?$AAz@ 0000000140050b60     libucrtd:lcidtoname_downlevel.obj
 0002:0000eb70       ??_C@_1M@FJNKGKIG@?$AAa?$AAr?$AA?9?$AAe?$AAg@ 0000000140050b70     libucrtd:lcidtoname_downlevel.obj
 0002:0000eb80       ??_C@_1M@FLGKKCLO@?$AAa?$AAr?$AA?9?$AAi?$AAq@ 0000000140050b80     libucrtd:lcidtoname_downlevel.obj
 0002:0000eb90       ??_C@_1M@GNDIPALM@?$AAa?$AAr?$AA?9?$AAj?$AAo@ 0000000140050b90     libucrtd:lcidtoname_downlevel.obj
 0002:0000eba0       ??_C@_1M@DDMJFMGJ@?$AAa?$AAr?$AA?9?$AAk?$AAw@ 0000000140050ba0     libucrtd:lcidtoname_downlevel.obj
 0002:0000ebb0       ??_C@_1M@EJALMLHM@?$AAa?$AAr?$AA?9?$AAl?$AAb@ 0000000140050bb0     libucrtd:lcidtoname_downlevel.obj
 0002:0000ebc0       ??_C@_1M@MOBDBLOC@?$AAa?$AAr?$AA?9?$AAl?$AAy@ 0000000140050bc0     libucrtd:lcidtoname_downlevel.obj
 0002:0000ebd0       ??_C@_1M@JAOCLHDH@?$AAa?$AAr?$AA?9?$AAm?$AAa@ 0000000140050bd0     libucrtd:lcidtoname_downlevel.obj
 0002:0000ebe0       ??_C@_1M@JHPMKJIE@?$AAa?$AAr?$AA?9?$AAo?$AAm@ 0000000140050be0     libucrtd:lcidtoname_downlevel.obj
 0002:0000ebf0       ??_C@_1M@OEPGHFNH@?$AAa?$AAr?$AA?9?$AAq?$AAa@ 0000000140050bf0     libucrtd:lcidtoname_downlevel.obj
 0002:0000ec00       ??_C@_1M@KJDONENM@?$AAa?$AAr?$AA?9?$AAs?$AAa@ 0000000140050c00     libucrtd:lcidtoname_downlevel.obj
 0002:0000ec10       ??_C@_1M@DMJDKLKM@?$AAa?$AAr?$AA?9?$AAs?$AAy@ 0000000140050c10     libucrtd:lcidtoname_downlevel.obj
 0002:0000ec20       ??_C@_1M@OMFIPEDC@?$AAa?$AAr?$AA?9?$AAt?$AAn@ 0000000140050c20     libucrtd:lcidtoname_downlevel.obj
 0002:0000ec30       ??_C@_1M@IHMHGAON@?$AAa?$AAr?$AA?9?$AAy?$AAe@ 0000000140050c30     libucrtd:lcidtoname_downlevel.obj
 0002:0000ec40       ??_C@_1BG@KDCPGJGB@?$AAa?$AAz?$AA?9?$AAa?$AAz?$AA?9?$AAc?$AAy?$AAr?$AAl@ 0000000140050c40     libucrtd:lcidtoname_downlevel.obj
 0002:0000ec58       ??_C@_1BG@IBCKDDOE@?$AAa?$AAz?$AA?9?$AAa?$AAz?$AA?9?$AAl?$AAa?$AAt?$AAn@ 0000000140050c58     libucrtd:lcidtoname_downlevel.obj
 0002:0000ec70       ??_C@_1M@EGPFDCPD@?$AAb?$AAe?$AA?9?$AAb?$AAy@ 0000000140050c70     libucrtd:lcidtoname_downlevel.obj
 0002:0000ec80       ??_C@_1M@PCMGMCGC@?$AAb?$AAg?$AA?9?$AAb?$AAg@ 0000000140050c80     libucrtd:lcidtoname_downlevel.obj
 0002:0000ec90       ??_C@_1M@BJBMFGOB@?$AAb?$AAn?$AA?9?$AAi?$AAn@ 0000000140050c90     libucrtd:lcidtoname_downlevel.obj
 0002:0000eca0       ??_C@_1BG@EAKMMACD@?$AAb?$AAs?$AA?9?$AAb?$AAa?$AA?9?$AAl?$AAa?$AAt?$AAn@ 0000000140050ca0     libucrtd:lcidtoname_downlevel.obj
 0002:0000ecb8       ??_C@_1M@KGADAODK@?$AAc?$AAa?$AA?9?$AAe?$AAs@ 0000000140050cb8     libucrtd:lcidtoname_downlevel.obj
 0002:0000ecc8       ??_C@_1M@COAJPDHI@?$AAc?$AAs?$AA?9?$AAc?$AAz@ 0000000140050cc8     libucrtd:lcidtoname_downlevel.obj
 0002:0000ecd8       ??_C@_1M@DHBHFONH@?$AAc?$AAy?$AA?9?$AAg?$AAb@ 0000000140050cd8     libucrtd:lcidtoname_downlevel.obj
 0002:0000ece8       ??_C@_1M@IMGKELGA@?$AAd?$AAa?$AA?9?$AAd?$AAk@ 0000000140050ce8     libucrtd:lcidtoname_downlevel.obj
 0002:0000ecf8       ??_C@_1M@NNDGDNGA@?$AAd?$AAe?$AA?9?$AAa?$AAt@ 0000000140050cf8     libucrtd:lcidtoname_downlevel.obj
 0002:0000ed08       ??_C@_1M@IKDBHEEM@?$AAd?$AAe?$AA?9?$AAc?$AAh@ 0000000140050d08     libucrtd:lcidtoname_downlevel.obj
 0002:0000ed18       ??_C@_1M@GFFOJMCJ@?$AAd?$AAe?$AA?9?$AAd?$AAe@ 0000000140050d18     libucrtd:lcidtoname_downlevel.obj
 0002:0000ed28       ??_C@_1M@MDNLKBPM@?$AAd?$AAe?$AA?9?$AAl?$AAi@ 0000000140050d28     libucrtd:lcidtoname_downlevel.obj
 0002:0000ed38       ??_C@_1M@NJBEEJNL@?$AAd?$AAe?$AA?9?$AAl?$AAu@ 0000000140050d38     libucrtd:lcidtoname_downlevel.obj
 0002:0000ed48       ??_C@_1O@GNNELBAP@?$AAd?$AAi?$AAv?$AA?9?$AAm?$AAv@ 0000000140050d48     libucrtd:lcidtoname_downlevel.obj
 0002:0000ed58       ??_C@_1M@EJLEOGAE@?$AAe?$AAl?$AA?9?$AAg?$AAr@ 0000000140050d58     libucrtd:lcidtoname_downlevel.obj
 0002:0000ed68       ??_C@_1M@GMPONJN@?$AAe?$AAn?$AA?9?$AAa?$AAu@ 0000000140050d68     libucrtd:lcidtoname_downlevel.obj
 0002:0000ed78       ??_C@_1M@NIDIIPGF@?$AAe?$AAn?$AA?9?$AAb?$AAz@ 0000000140050d78     libucrtd:lcidtoname_downlevel.obj
 0002:0000ed88       ??_C@_1M@JEHMIMFO@?$AAe?$AAn?$AA?9?$AAc?$AAa@ 0000000140050d88     libucrtd:lcidtoname_downlevel.obj
 0002:0000ed98       ??_C@_1M@IGMJCDLA@?$AAe?$AAn?$AA?9?$AAc?$AAb@ 0000000140050d98     libucrtd:lcidtoname_downlevel.obj
 0002:0000eda8       ??_C@_1M@BNFIGBKG@?$AAe?$AAn?$AA?9?$AAg?$AAb@ 0000000140050da8     libucrtd:lcidtoname_downlevel.obj
 0002:0000edb8       ??_C@_1M@LKIFDIGP@?$AAe?$AAn?$AA?9?$AAi?$AAe@ 0000000140050db8     libucrtd:lcidtoname_downlevel.obj
 0002:0000edc8       ??_C@_1M@PJKFGCCO@?$AAe?$AAn?$AA?9?$AAj?$AAm@ 0000000140050dc8     libucrtd:lcidtoname_downlevel.obj
 0002:0000edd8       ??_C@_1M@KPPKEPBO@?$AAe?$AAn?$AA?9?$AAn?$AAz@ 0000000140050dd8     libucrtd:lcidtoname_downlevel.obj
 0002:0000ede8       ??_C@_1M@GMDGLDOB@?$AAe?$AAn?$AA?9?$AAp?$AAh@ 0000000140050de8     libucrtd:lcidtoname_downlevel.obj
 0002:0000edf8       ??_C@_1M@ONGIBJNA@?$AAe?$AAn?$AA?9?$AAt?$AAt@ 0000000140050df8     libucrtd:lcidtoname_downlevel.obj
 0002:0000ee08       ??_C@_1M@LLODPCMM@?$AAe?$AAn?$AA?9?$AAu?$AAs@ 0000000140050e08     libucrtd:lcidtoname_downlevel.obj
 0002:0000ee18       ??_C@_1M@LAKFNPAN@?$AAe?$AAn?$AA?9?$AAz?$AAa@ 0000000140050e18     libucrtd:lcidtoname_downlevel.obj
 0002:0000ee28       ??_C@_1M@MFNHNHEO@?$AAe?$AAn?$AA?9?$AAz?$AAw@ 0000000140050e28     libucrtd:lcidtoname_downlevel.obj
 0002:0000ee38       ??_C@_1M@EJEINPHM@?$AAe?$AAs?$AA?9?$AAa?$AAr@ 0000000140050e38     libucrtd:lcidtoname_downlevel.obj
 0002:0000ee48       ??_C@_1M@GNKPCCJA@?$AAe?$AAs?$AA?9?$AAb?$AAo@ 0000000140050e48     libucrtd:lcidtoname_downlevel.obj
 0002:0000ee58       ??_C@_1M@LEEGFONL@?$AAe?$AAs?$AA?9?$AAc?$AAl@ 0000000140050e58     libucrtd:lcidtoname_downlevel.obj
 0002:0000ee68       ??_C@_1M@KGPDPBDF@?$AAe?$AAs?$AA?9?$AAc?$AAo@ 0000000140050e68     libucrtd:lcidtoname_downlevel.obj
 0002:0000ee78       ??_C@_1M@EIAHOHH@?$AAe?$AAs?$AA?9?$AAc?$AAr@ 0000000140050e78     libucrtd:lcidtoname_downlevel.obj
 0002:0000ee88       ??_C@_1M@LLPGMBIN@?$AAe?$AAs?$AA?9?$AAd?$AAo@ 0000000140050e88     libucrtd:lcidtoname_downlevel.obj
 0002:0000ee98       ??_C@_1M@DKHMKNJA@?$AAe?$AAs?$AA?9?$AAe?$AAc@ 0000000140050e98     libucrtd:lcidtoname_downlevel.obj
 0002:0000eea8       ??_C@_1M@GKGFPKAP@?$AAe?$AAs?$AA?9?$AAe?$AAs@ 0000000140050ea8     libucrtd:lcidtoname_downlevel.obj
 0002:0000eeb8       ??_C@_1M@LKHKGDLN@?$AAe?$AAs?$AA?9?$AAg?$AAt@ 0000000140050eb8     libucrtd:lcidtoname_downlevel.obj
 0002:0000eec8       ??_C@_1M@HEIIGGJD@?$AAe?$AAs?$AA?9?$AAh?$AAn@ 0000000140050ec8     libucrtd:lcidtoname_downlevel.obj
 0002:0000eed8       ??_C@_1M@FBDHPPGD@?$AAe?$AAs?$AA?9?$AAm?$AAx@ 0000000140050ed8     libucrtd:lcidtoname_downlevel.obj
 0002:0000eee8       ??_C@_1M@DPAGLNDH@?$AAe?$AAs?$AA?9?$AAn?$AAi@ 0000000140050ee8     libucrtd:lcidtoname_downlevel.obj
 0002:0000eef8       ??_C@_1M@MDGOPGDD@?$AAe?$AAs?$AA?9?$AAp?$AAa@ 0000000140050ef8     libucrtd:lcidtoname_downlevel.obj
 0002:0000ef08       ??_C@_1M@EMAMGBGE@?$AAe?$AAs?$AA?9?$AAp?$AAe@ 0000000140050f08     libucrtd:lcidtoname_downlevel.obj
 0002:0000ef18       ??_C@_1M@IBMCAOEC@?$AAe?$AAs?$AA?9?$AAp?$AAr@ 0000000140050f18     libucrtd:lcidtoname_downlevel.obj
 0002:0000ef28       ??_C@_1M@FGMDIJED@?$AAe?$AAs?$AA?9?$AAp?$AAy@ 0000000140050f28     libucrtd:lcidtoname_downlevel.obj
 0002:0000ef38       ??_C@_1M@IIDEOLLL@?$AAe?$AAs?$AA?9?$AAs?$AAv@ 0000000140050f38     libucrtd:lcidtoname_downlevel.obj
 0002:0000ef48       ??_C@_1M@GAOBIPA@?$AAe?$AAs?$AA?9?$AAu?$AAy@ 0000000140050f48     libucrtd:lcidtoname_downlevel.obj
 0002:0000ef58       ??_C@_1M@JKFFICHJ@?$AAe?$AAs?$AA?9?$AAv?$AAe@ 0000000140050f58     libucrtd:lcidtoname_downlevel.obj
 0002:0000ef68       ??_C@_1M@PNMLOJDF@?$AAe?$AAt?$AA?9?$AAe?$AAe@ 0000000140050f68     libucrtd:lcidtoname_downlevel.obj
 0002:0000ef78       ??_C@_1M@GHHLIKEI@?$AAe?$AAu?$AA?9?$AAe?$AAs@ 0000000140050f78     libucrtd:lcidtoname_downlevel.obj
 0002:0000ef88       ??_C@_1M@PBNONODE@?$AAf?$AAa?$AA?9?$AAi?$AAr@ 0000000140050f88     libucrtd:lcidtoname_downlevel.obj
 0002:0000ef98       ??_C@_1M@JEEHPMIL@?$AAf?$AAi?$AA?9?$AAf?$AAi@ 0000000140050f98     libucrtd:lcidtoname_downlevel.obj
 0002:0000efa8       ??_C@_1M@LMDCNDBA@?$AAf?$AAo?$AA?9?$AAf?$AAo@ 0000000140050fa8     libucrtd:lcidtoname_downlevel.obj
 0002:0000efb8       ??_C@_1M@JKEOHLDK@?$AAf?$AAr?$AA?9?$AAb?$AAe@ 0000000140050fb8     libucrtd:lcidtoname_downlevel.obj
 0002:0000efc8       ??_C@_1M@NOHADPMI@?$AAf?$AAr?$AA?9?$AAc?$AAa@ 0000000140050fc8     libucrtd:lcidtoname_downlevel.obj
 0002:0000efd8       ??_C@_1M@KDHIHAEC@?$AAf?$AAr?$AA?9?$AAc?$AAh@ 0000000140050fd8     libucrtd:lcidtoname_downlevel.obj
 0002:0000efe8       ??_C@_1M@MMBBFGAK@?$AAf?$AAr?$AA?9?$AAf?$AAr@ 0000000140050fe8     libucrtd:lcidtoname_downlevel.obj
 0002:0000eff8       ??_C@_1M@PAFNENNF@?$AAf?$AAr?$AA?9?$AAl?$AAu@ 0000000140050ff8     libucrtd:lcidtoname_downlevel.obj
 0002:0000f008       ??_C@_1M@EOHDJGDD@?$AAf?$AAr?$AA?9?$AAm?$AAc@ 0000000140051008     libucrtd:lcidtoname_downlevel.obj
 0002:0000f018       ??_C@_1M@FAPLLOPF@?$AAg?$AAl?$AA?9?$AAe?$AAs@ 0000000140051018     libucrtd:lcidtoname_downlevel.obj
 0002:0000f028       ??_C@_1M@FOPBFLOO@?$AAg?$AAu?$AA?9?$AAi?$AAn@ 0000000140051028     libucrtd:lcidtoname_downlevel.obj
 0002:0000f038       ??_C@_1M@KBMCINPM@?$AAh?$AAe?$AA?9?$AAi?$AAl@ 0000000140051038     libucrtd:lcidtoname_downlevel.obj
 0002:0000f048       ??_C@_1M@BBPHKFPJ@?$AAh?$AAi?$AA?9?$AAi?$AAn@ 0000000140051048     libucrtd:lcidtoname_downlevel.obj
 0002:0000f058       ??_C@_1M@PMBNDPHD@?$AAh?$AAr?$AA?9?$AAb?$AAa@ 0000000140051058     libucrtd:lcidtoname_downlevel.obj
 0002:0000f068       ??_C@_1M@BPCKOEGE@?$AAh?$AAr?$AA?9?$AAh?$AAr@ 0000000140051068     libucrtd:lcidtoname_downlevel.obj
 0002:0000f078       ??_C@_1M@GACBMHKE@?$AAh?$AAu?$AA?9?$AAh?$AAu@ 0000000140051078     libucrtd:lcidtoname_downlevel.obj
 0002:0000f088       ??_C@_1M@MILPAJJC@?$AAh?$AAy?$AA?9?$AAa?$AAm@ 0000000140051088     libucrtd:lcidtoname_downlevel.obj
 0002:0000f098       ??_C@_1M@BABBICEC@?$AAi?$AAd?$AA?9?$AAi?$AAd@ 0000000140051098     libucrtd:lcidtoname_downlevel.obj
 0002:0000f0a8       ??_C@_1M@BIKNHHPF@?$AAi?$AAs?$AA?9?$AAi?$AAs@ 00000001400510a8     libucrtd:lcidtoname_downlevel.obj
 0002:0000f0b8       ??_C@_1M@NMPCJPHE@?$AAi?$AAt?$AA?9?$AAc?$AAh@ 00000001400510b8     libucrtd:lcidtoname_downlevel.obj
 0002:0000f0c8       ??_C@_1M@GHKGFEDF@?$AAi?$AAt?$AA?9?$AAi?$AAt@ 00000001400510c8     libucrtd:lcidtoname_downlevel.obj
 0002:0000f0d8       ??_C@_1M@NIEJCJJA@?$AAj?$AAa?$AA?9?$AAj?$AAp@ 00000001400510d8     libucrtd:lcidtoname_downlevel.obj
 0002:0000f0e8       ??_C@_1M@JILFNBIM@?$AAk?$AAa?$AA?9?$AAg?$AAe@ 00000001400510e8     libucrtd:lcidtoname_downlevel.obj
 0002:0000f0f8       ??_C@_1M@PACPMGPH@?$AAk?$AAk?$AA?9?$AAk?$AAz@ 00000001400510f8     libucrtd:lcidtoname_downlevel.obj
 0002:0000f108       ??_C@_1M@IELFGMHA@?$AAk?$AAn?$AA?9?$AAi?$AAn@ 0000000140051108     libucrtd:lcidtoname_downlevel.obj
 0002:0000f118       ??_C@_1O@IBBJHCH@?$AAk?$AAo?$AAk?$AA?9?$AAi?$AAn@ 0000000140051118     libucrtd:lcidtoname_downlevel.obj
 0002:0000f128       ??_C@_1M@DMHAEOGC@?$AAk?$AAo?$AA?9?$AAk?$AAr@ 0000000140051128     libucrtd:lcidtoname_downlevel.obj
 0002:0000f138       ??_C@_1M@HBAHBIGA@?$AAk?$AAy?$AA?9?$AAk?$AAg@ 0000000140051138     libucrtd:lcidtoname_downlevel.obj
 0002:0000f148       ??_C@_1M@KPMILCJG@?$AAl?$AAt?$AA?9?$AAl?$AAt@ 0000000140051148     libucrtd:lcidtoname_downlevel.obj
 0002:0000f158       ??_C@_1M@BDEKKCA@?$AAl?$AAv?$AA?9?$AAl?$AAv@ 0000000140051158     libucrtd:lcidtoname_downlevel.obj
 0002:0000f168       ??_C@_1M@ELCKCCJJ@?$AAm?$AAi?$AA?9?$AAn?$AAz@ 0000000140051168     libucrtd:lcidtoname_downlevel.obj
 0002:0000f178       ??_C@_1M@CBOOLAPA@?$AAm?$AAk?$AA?9?$AAm?$AAk@ 0000000140051178     libucrtd:lcidtoname_downlevel.obj
 0002:0000f188       ??_C@_1M@GPHNBJKN@?$AAm?$AAl?$AA?9?$AAi?$AAn@ 0000000140051188     libucrtd:lcidtoname_downlevel.obj
 0002:0000f198       ??_C@_1M@PABJILIG@?$AAm?$AAn?$AA?9?$AAm?$AAn@ 0000000140051198     libucrtd:lcidtoname_downlevel.obj
 0002:0000f1a8       ??_C@_1M@FGBKKIPG@?$AAm?$AAr?$AA?9?$AAi?$AAn@ 00000001400511a8     libucrtd:lcidtoname_downlevel.obj
 0002:0000f1b8       ??_C@_1M@NDBPDDAL@?$AAm?$AAs?$AA?9?$AAb?$AAn@ 00000001400511b8     libucrtd:lcidtoname_downlevel.obj
 0002:0000f1c8       ??_C@_1M@OPIHOOPI@?$AAm?$AAs?$AA?9?$AAm?$AAy@ 00000001400511c8     libucrtd:lcidtoname_downlevel.obj
 0002:0000f1d8       ??_C@_1M@PPDBCNFM@?$AAm?$AAt?$AA?9?$AAm?$AAt@ 00000001400511d8     libucrtd:lcidtoname_downlevel.obj
 0002:0000f1e8       ??_C@_1M@KDJDKMDD@?$AAn?$AAb?$AA?9?$AAn?$AAo@ 00000001400511e8     libucrtd:lcidtoname_downlevel.obj
 0002:0000f1f8       ??_C@_1M@KFCFLMJP@?$AAn?$AAl?$AA?9?$AAb?$AAe@ 00000001400511f8     libucrtd:lcidtoname_downlevel.obj
 0002:0000f208       ??_C@_1M@KPOPDDGO@?$AAn?$AAl?$AA?9?$AAn?$AAl@ 0000000140051208     libucrtd:lcidtoname_downlevel.obj
 0002:0000f218       ??_C@_1M@LJKPEMLN@?$AAn?$AAn?$AA?9?$AAn?$AAo@ 0000000140051218     libucrtd:lcidtoname_downlevel.obj
 0002:0000f228       ??_C@_1M@BDGHHBFL@?$AAn?$AAs?$AA?9?$AAz?$AAa@ 0000000140051228     libucrtd:lcidtoname_downlevel.obj
 0002:0000f238       ??_C@_1M@IDEHOAP@?$AAp?$AAa?$AA?9?$AAi?$AAn@ 0000000140051238     libucrtd:lcidtoname_downlevel.obj
 0002:0000f248       ??_C@_1M@HDBKGOGH@?$AAp?$AAl?$AA?9?$AAp?$AAl@ 0000000140051248     libucrtd:lcidtoname_downlevel.obj
 0002:0000f258       ??_C@_1M@LJLLCMEH@?$AAp?$AAt?$AA?9?$AAb?$AAr@ 0000000140051258     libucrtd:lcidtoname_downlevel.obj
 0002:0000f268       ??_C@_1M@NCMONAAL@?$AAp?$AAt?$AA?9?$AAp?$AAt@ 0000000140051268     libucrtd:lcidtoname_downlevel.obj
 0002:0000f278       ??_C@_1O@EAKMAJDN@?$AAq?$AAu?$AAz?$AA?9?$AAb?$AAo@ 0000000140051278     libucrtd:lcidtoname_downlevel.obj
 0002:0000f288       ??_C@_1O@BHHPIGDN@?$AAq?$AAu?$AAz?$AA?9?$AAe?$AAc@ 0000000140051288     libucrtd:lcidtoname_downlevel.obj
 0002:0000f298       ??_C@_1O@GBAPEKMJ@?$AAq?$AAu?$AAz?$AA?9?$AAp?$AAe@ 0000000140051298     libucrtd:lcidtoname_downlevel.obj
 0002:0000f2a8       ??_C@_1M@CLGLEFBO@?$AAr?$AAo?$AA?9?$AAr?$AAo@ 00000001400512a8     libucrtd:lcidtoname_downlevel.obj
 0002:0000f2b8       ??_C@_1M@CEEDODME@?$AAr?$AAu?$AA?9?$AAr?$AAu@ 00000001400512b8     libucrtd:lcidtoname_downlevel.obj
 0002:0000f2c8       ??_C@_1M@HPKKKMPP@?$AAs?$AAa?$AA?9?$AAi?$AAn@ 00000001400512c8     libucrtd:lcidtoname_downlevel.obj
 0002:0000f2d8       ??_C@_1M@BKMAIGOJ@?$AAs?$AAe?$AA?9?$AAf?$AAi@ 00000001400512d8     libucrtd:lcidtoname_downlevel.obj
 0002:0000f2e8       ??_C@_1M@NDPIFLFI@?$AAs?$AAe?$AA?9?$AAn?$AAo@ 00000001400512e8     libucrtd:lcidtoname_downlevel.obj
 0002:0000f2f8       ??_C@_1M@DANKKHJ@?$AAs?$AAe?$AA?9?$AAs?$AAe@ 00000001400512f8     libucrtd:lcidtoname_downlevel.obj
 0002:0000f308       ??_C@_1M@PNBLONPJ@?$AAs?$AAk?$AA?9?$AAs?$AAk@ 0000000140051308     libucrtd:lcidtoname_downlevel.obj
 0002:0000f318       ??_C@_1M@LFMODOAL@?$AAs?$AAl?$AA?9?$AAs?$AAi@ 0000000140051318     libucrtd:lcidtoname_downlevel.obj
 0002:0000f328       ??_C@_1O@DFKOMPG@?$AAs?$AAm?$AAa?$AA?9?$AAn?$AAo@ 0000000140051328     libucrtd:lcidtoname_downlevel.obj
 0002:0000f338       ??_C@_1O@NDKPBNNH@?$AAs?$AAm?$AAa?$AA?9?$AAs?$AAe@ 0000000140051338     libucrtd:lcidtoname_downlevel.obj
 0002:0000f348       ??_C@_1O@PLLKBHAB@?$AAs?$AAm?$AAj?$AA?9?$AAn?$AAo@ 0000000140051348     libucrtd:lcidtoname_downlevel.obj
 0002:0000f358       ??_C@_1O@CLEPOGCA@?$AAs?$AAm?$AAj?$AA?9?$AAs?$AAe@ 0000000140051358     libucrtd:lcidtoname_downlevel.obj
 0002:0000f368       ??_C@_1O@DLGJGKMK@?$AAs?$AAm?$AAn?$AA?9?$AAf?$AAi@ 0000000140051368     libucrtd:lcidtoname_downlevel.obj
 0002:0000f378       ??_C@_1O@OJDJGAJC@?$AAs?$AAm?$AAs?$AA?9?$AAf?$AAi@ 0000000140051378     libucrtd:lcidtoname_downlevel.obj
 0002:0000f388       ??_C@_1M@BOFOGHPB@?$AAs?$AAq?$AA?9?$AAa?$AAl@ 0000000140051388     libucrtd:lcidtoname_downlevel.obj
 0002:0000f398       ??_C@_1BG@LJBBIPGB@?$AAs?$AAr?$AA?9?$AAb?$AAa?$AA?9?$AAc?$AAy?$AAr?$AAl@ 0000000140051398     libucrtd:lcidtoname_downlevel.obj
 0002:0000f3b0       ??_C@_1BG@JLBENFOE@?$AAs?$AAr?$AA?9?$AAb?$AAa?$AA?9?$AAl?$AAa?$AAt?$AAn@ 00000001400513b0     libucrtd:lcidtoname_downlevel.obj
 0002:0000f3c8       ??_C@_1BG@KODPNHE@?$AAs?$AAr?$AA?9?$AAs?$AAp?$AA?9?$AAc?$AAy?$AAr?$AAl@ 00000001400513c8     libucrtd:lcidtoname_downlevel.obj
 0002:0000f3e0       ??_C@_1BG@CIOGKHPB@?$AAs?$AAr?$AA?9?$AAs?$AAp?$AA?9?$AAl?$AAa?$AAt?$AAn@ 00000001400513e0     libucrtd:lcidtoname_downlevel.obj
 0002:0000f3f8       ??_C@_1M@NGFJLMAC@?$AAs?$AAv?$AA?9?$AAf?$AAi@ 00000001400513f8     libucrtd:lcidtoname_downlevel.obj
 0002:0000f408       ??_C@_1M@MPJEJAJC@?$AAs?$AAv?$AA?9?$AAs?$AAe@ 0000000140051408     libucrtd:lcidtoname_downlevel.obj
 0002:0000f418       ??_C@_1M@MPNDHLFK@?$AAs?$AAw?$AA?9?$AAk?$AAe@ 0000000140051418     libucrtd:lcidtoname_downlevel.obj
 0002:0000f428       ??_C@_1O@KOHBJJI@?$AAs?$AAy?$AAr?$AA?9?$AAs?$AAy@ 0000000140051428     libucrtd:lcidtoname_downlevel.obj
 0002:0000f438       ??_C@_1M@LDCEFHA@?$AAt?$AAa?$AA?9?$AAi?$AAn@ 0000000140051438     libucrtd:lcidtoname_downlevel.obj
 0002:0000f448       ??_C@_1M@CNJOFAK@?$AAt?$AAe?$AA?9?$AAi?$AAn@ 0000000140051448     libucrtd:lcidtoname_downlevel.obj
 0002:0000f458       ??_C@_1M@GNAECACD@?$AAt?$AAh?$AA?9?$AAt?$AAh@ 0000000140051458     libucrtd:lcidtoname_downlevel.obj
 0002:0000f468       ??_C@_1M@CHBIHOJO@?$AAt?$AAn?$AA?9?$AAz?$AAa@ 0000000140051468     libucrtd:lcidtoname_downlevel.obj
 0002:0000f478       ??_C@_1M@GCCMIGPJ@?$AAt?$AAr?$AA?9?$AAt?$AAr@ 0000000140051478     libucrtd:lcidtoname_downlevel.obj
 0002:0000f488       ??_C@_1M@CELMCNBK@?$AAt?$AAt?$AA?9?$AAr?$AAu@ 0000000140051488     libucrtd:lcidtoname_downlevel.obj
 0002:0000f498       ??_C@_1M@KLMCELGA@?$AAu?$AAk?$AA?9?$AAu?$AAa@ 0000000140051498     libucrtd:lcidtoname_downlevel.obj
 0002:0000f4a8       ??_C@_1M@EPAJJAJF@?$AAu?$AAr?$AA?9?$AAp?$AAk@ 00000001400514a8     libucrtd:lcidtoname_downlevel.obj
 0002:0000f4b8       ??_C@_1BG@GEGPMCDJ@?$AAu?$AAz?$AA?9?$AAu?$AAz?$AA?9?$AAc?$AAy?$AAr?$AAl@ 00000001400514b8     libucrtd:lcidtoname_downlevel.obj
 0002:0000f4d0       ??_C@_1BG@EGGKJILM@?$AAu?$AAz?$AA?9?$AAu?$AAz?$AA?9?$AAl?$AAa?$AAt?$AAn@ 00000001400514d0     libucrtd:lcidtoname_downlevel.obj
 0002:0000f4e8       ??_C@_1M@GFOCLFF@?$AAv?$AAi?$AA?9?$AAv?$AAn@ 00000001400514e8     libucrtd:lcidtoname_downlevel.obj
 0002:0000f4f8       ??_C@_1M@CPAMEDFI@?$AAx?$AAh?$AA?9?$AAz?$AAa@ 00000001400514f8     libucrtd:lcidtoname_downlevel.obj
 0002:0000f508       ??_C@_1O@EBKIFIGN@?$AAz?$AAh?$AA?9?$AAc?$AAh?$AAs@ 0000000140051508     libucrtd:lcidtoname_downlevel.obj
 0002:0000f518       ??_C@_1O@NMHPGANE@?$AAz?$AAh?$AA?9?$AAc?$AAh?$AAt@ 0000000140051518     libucrtd:lcidtoname_downlevel.obj
 0002:0000f528       ??_C@_1M@LPINJOMC@?$AAz?$AAh?$AA?9?$AAc?$AAn@ 0000000140051528     libucrtd:lcidtoname_downlevel.obj
 0002:0000f538       ??_C@_1M@OCJEJODD@?$AAz?$AAh?$AA?9?$AAh?$AAk@ 0000000140051538     libucrtd:lcidtoname_downlevel.obj
 0002:0000f548       ??_C@_1M@DNDLJINH@?$AAz?$AAh?$AA?9?$AAm?$AAo@ 0000000140051548     libucrtd:lcidtoname_downlevel.obj
 0002:0000f558       ??_C@_1M@MBFDNDND@?$AAz?$AAh?$AA?9?$AAs?$AAg@ 0000000140051558     libucrtd:lcidtoname_downlevel.obj
 0002:0000f568       ??_C@_1M@IMEPLEPE@?$AAz?$AAh?$AA?9?$AAt?$AAw@ 0000000140051568     libucrtd:lcidtoname_downlevel.obj
 0002:0000f578       ??_C@_1M@BBGHNHJP@?$AAz?$AAu?$AA?9?$AAz?$AAa@ 0000000140051578     libucrtd:lcidtoname_downlevel.obj
 0002:0000f5b0       ??_C@_1BK@FPAMLIDG@?$AAs?$AA?5?$AA?$CB?$AA?$DN?$AA?5?$AAn?$AAu?$AAl?$AAl?$AAp?$AAt?$AAr@ 00000001400515b0     libucrtd:mbstowcs.obj
 0002:0000f5d0       ??_C@_1GI@KABMHNPH@?$AAm?$AAi?$AAn?$AAk?$AAe?$AAr?$AAn?$AAe?$AAl?$AA?2?$AAc?$AAr?$AAt?$AAs?$AA?2@ 00000001400515d0     libucrtd:mbstowcs.obj
 0002:0000f638       ??_C@_1CG@JEHFHLNG@?$AA_?$AAm?$AAb?$AAs?$AAt?$AAo?$AAw?$AAc?$AAs?$AA_?$AAl?$AA_?$AAh?$AAe?$AAl@ 0000000140051638     libucrtd:mbstowcs.obj
 0002:0000f660       ??_C@_1JM@MEKBACIG@?$AA?$CI?$AAp?$AAw?$AAc?$AAs?$AA?5?$AA?$DN?$AA?$DN?$AA?5?$AAn?$AAu?$AAl?$AAl?$AAp?$AAt@ 0000000140051660     libucrtd:mbstowcs.obj
 0002:0000f700       ??_C@_1CG@BILJJDPK@?$AA_?$AAm?$AAb?$AAs?$AAt?$AAo?$AAw?$AAc?$AAs?$AA_?$AAi?$AAn?$AAt?$AAe?$AAr@ 0000000140051700     libucrtd:mbstowcs.obj
 0002:0000f728       ??_C@_1CM@LLECFMFH@?$AAb?$AAu?$AAf?$AAf?$AAe?$AAr?$AAS?$AAi?$AAz?$AAe?$AA?5?$AA?$DM?$AA?$DN?$AA?5?$AAI@ 0000000140051728     libucrtd:mbstowcs.obj
 0002:0000f758       ??_C@_1CO@JNPEPJAL@?$AAr?$AAe?$AAt?$AAs?$AAi?$AAz?$AAe?$AA?5?$AA?$DM?$AA?$DN?$AA?5?$AAs?$AAi?$AAz?$AAe@ 0000000140051758     libucrtd:mbstowcs.obj
 0002:0000f788       ??_C@_1CA@NOKNKDIG@?$AAp?$AAw?$AAc?$AAs?$AA?5?$AA?$CB?$AA?$DN?$AA?5?$AAn?$AAu?$AAl?$AAl?$AAp?$AAt?$AAr@ 0000000140051788     libucrtd:wcstombs.obj
 0002:0000f7b0       ??_C@_1GI@EEJDEALP@?$AAm?$AAi?$AAn?$AAk?$AAe?$AAr?$AAn?$AAe?$AAl?$AA?2?$AAc?$AAr?$AAt?$AAs?$AA?2@ 00000001400517b0     libucrtd:wcstombs.obj
 0002:0000f818       ??_C@_1CG@LLJCAOHF@?$AA_?$AAw?$AAc?$AAs?$AAt?$AAo?$AAm?$AAb?$AAs?$AA_?$AAl?$AA_?$AAh?$AAe?$AAl@ 0000000140051818     libucrtd:wcstombs.obj
 0002:0000f840       ??_C@_1JI@DFNKFCLG@?$AA?$CI?$AAd?$AAs?$AAt?$AA?5?$AA?$CB?$AA?$DN?$AA?5?$AAn?$AAu?$AAl?$AAl?$AAp?$AAt?$AAr@ 0000000140051840     libucrtd:wcstombs.obj
 0002:0000f8d8       ??_C@_1CG@DHFOOGFJ@?$AA_?$AAw?$AAc?$AAs?$AAt?$AAo?$AAm?$AAb?$AAs?$AA_?$AAi?$AAn?$AAt?$AAe?$AAr@ 00000001400518d8     libucrtd:wcstombs.obj
 0002:0000f900       ??_C@_1CM@KEOGBFLI@?$AAs?$AAi?$AAz?$AAe?$AAI?$AAn?$AAB?$AAy?$AAt?$AAe?$AAs?$AA?5?$AA?$DO?$AA?5?$AAr@ 0000000140051900     libucrtd:wcstombs.obj
 0002:0000fb80       ??_C@_1DG@JNDMIEJL@?$AA?$CI?$AA?$CC?$AAI?$AAn?$AAv?$AAa?$AAl?$AAi?$AAd?$AA?5?$AAi?$AAn?$AAp?$AAu?$AAt@ 0000000140051b80     libucrtd:contrlfp.obj
 0002:0000fbc0       ??_C@_1FO@HHLKCIKB@?$AAm?$AAi?$AAn?$AAk?$AAe?$AAr?$AAn?$AAe?$AAl?$AA?2?$AAc?$AAr?$AAt?$AAs?$AA?2@ 0000000140051bc0     libucrtd:contrlfp.obj
 0002:0000fc20       ??_C@_1BK@CDOALEA@?$AA_?$AAc?$AAo?$AAn?$AAt?$AAr?$AAo?$AAl?$AAf?$AAp?$AA_?$AAs@ 0000000140051c20     libucrtd:contrlfp.obj
 0002:0000fc40       ??_C@_1GA@DKNOMDCL@?$AAm?$AAi?$AAn?$AAk?$AAe?$AAr?$AAn?$AAe?$AAl?$AA?2?$AAc?$AAr?$AAt?$AAs?$AA?2@ 0000000140051c40     libucrtd:fclose.obj
 0002:0000fca0       ??_C@_1DA@IHIKPHIN@?$AA_?$AAf?$AAc?$AAl?$AAo?$AAs?$AAe?$AA_?$AAn?$AAo?$AAl?$AAo?$AAc?$AAk?$AA_@ 0000000140051ca0     libucrtd:fclose.obj
 0002:0000fcd0       ??_C@_1CC@LPELGHFC@?$AA_?$AAf?$AAc?$AAl?$AAo?$AAs?$AAe?$AA_?$AAi?$AAn?$AAt?$AAe?$AAr?$AAn?$AAa@ 0000000140051cd0     libucrtd:fclose.obj
 0002:0000fd20       ??_C@_1GA@MPOOLHCO@?$AAm?$AAi?$AAn?$AAk?$AAe?$AAr?$AAn?$AAe?$AAl?$AA?2?$AAc?$AAr?$AAt?$AAs?$AA?2@ 0000000140051d20     libucrtd:commit.obj
 0002:0000fd80       ??_C@_1BA@FLNMBBIM@?$AA_?$AAc?$AAo?$AAm?$AAm?$AAi?$AAt@ 0000000140051d80     libucrtd:commit.obj
 0002:0000fdc0       ??_C@_1FO@CAMPMGCN@?$AAm?$AAi?$AAn?$AAk?$AAe?$AAr?$AAn?$AAe?$AAl?$AA?2?$AAc?$AAr?$AAt?$AAs?$AA?2@ 0000000140051dc0     libucrtd:write.obj
 0002:0000fe20       ??_C@_1CA@PNHCPGNO@?$AA_?$AAw?$AAr?$AAi?$AAt?$AAe?$AA_?$AAi?$AAn?$AAt?$AAe?$AAr?$AAn?$AAa?$AAl@ 0000000140051e20     libucrtd:write.obj
 0002:0000fe40       ??_C@_1CK@MMEFCHHN@?$AA?$CB?$AA_?$AAd?$AAb?$AAc?$AAs?$AAB?$AAu?$AAf?$AAf?$AAe?$AAr?$AAU?$AAs?$AAe@ 0000000140051e40     libucrtd:write.obj
 0002:0000fe70       ??_C@_1EG@LICJGLJJ@?$AA1?$AA?5?$AA?$DM?$AA?5?$AAm?$AAb?$AA_?$AAl?$AAe?$AAn?$AA?5?$AA?$CG?$AA?$CG?$AA?5?$AAm@ 0000000140051e70     libucrtd:write.obj
 0002:0000fec0       ??_C@_1FC@NFILPJB@?$AAm?$AAb?$AA_?$AAb?$AAu?$AAf?$AA_?$AAu?$AAs?$AAe?$AAd?$AA?5?$AA?$CL?$AA?5?$AAb@ 0000000140051ec0     libucrtd:write.obj
 0002:0000ff20       ??_C@_1FC@HEJOPHLA@?$AAa?$AAv?$AAa?$AAi?$AAl?$AAa?$AAb?$AAl?$AAe?$AA_?$AAb?$AAy?$AAt?$AAe?$AAs@ 0000000140051f20     libucrtd:write.obj
 0002:0000ff80       ??_C@_1GG@JOGHJGBM@?$AA_?$AAi?$AAs?$AAl?$AAe?$AAa?$AAd?$AAb?$AAy?$AAt?$AAe?$AA_?$AAf?$AAa?$AAs@ 0000000140051f80     libucrtd:write.obj
 0002:0000ffe8       ??_C@_1BM@NCANHCIP@?$AA_?$AAw?$AAr?$AAi?$AAt?$AAe?$AA_?$AAn?$AAo?$AAl?$AAo?$AAc?$AAk@ 0000000140051fe8     libucrtd:write.obj
 0002:00010008       ??_C@_1CK@CPEAGIIP@?$AAb?$AAu?$AAf?$AAf?$AAe?$AAr?$AA_?$AAs?$AAi?$AAz?$AAe?$AA?5?$AA?$CF?$AA?5?$AA2@ 0000000140052008     libucrtd:write.obj
 0002:00010040       ??_C@_1FO@KIIHJNFN@?$AAm?$AAi?$AAn?$AAk?$AAe?$AAr?$AAn?$AAe?$AAl?$AA?2?$AAc?$AAr?$AAt?$AAs?$AA?2@ 0000000140052040     libucrtd:lseek.obj
 0002:000100a0       ??_C@_1DM@LMLOLGJ@?$AA?$CI?$AA?$CC?$AAI?$AAn?$AAv?$AAa?$AAl?$AAi?$AAd?$AA?5?$AAf?$AAi?$AAl?$AAe?$AA?5@ 00000001400520a0     libucrtd:lseek.obj
 0002:000100e0       __log10_256_lead           00000001400520e0     libucrtd:log10_256_lead_tail_table.obj
 0002:000108f0       __log10_256_tail           00000001400528f0     libucrtd:log10_256_lead_tail_table.obj
 0002:00011100       __log_F_inv_qword          0000000140053100     libucrtd:log_f_inv_qword_table.obj
 0002:00011910       ??_C@_05HGHHAHAP@log10@    0000000140053910     libucrtd:log_special.obj
 0002:00011920       ??_C@_1EK@PDBKILLM@?$AA?$CI?$AAm?$AAa?$AAs?$AAk?$AA?$CG?$AA?$HO?$AA?$CI?$AA_?$AAM?$AAC?$AAW?$AA_?$AAD?$AAN@ 0000000140053920     libucrtd:ieee.obj
 0002:00011970       ??_C@_1GC@IEFABLII@?$AAm?$AAi?$AAn?$AAk?$AAe?$AAr?$AAn?$AAe?$AAl?$AA?2?$AAc?$AAr?$AAt?$AAs?$AA?2@ 0000000140053970     libucrtd:ieee.obj
 0002:00011a00       ??_C@_1FO@IPDGALOE@?$AAm?$AAi?$AAn?$AAk?$AAe?$AAr?$AAn?$AAe?$AAl?$AA?2?$AAc?$AAr?$AAt?$AAs?$AA?2@ 0000000140053a00     libucrtd:close.obj
 0002:00011a60       ??_C@_1CA@GBJHJLEM@?$AA_?$AAc?$AAl?$AAo?$AAs?$AAe?$AA_?$AAi?$AAn?$AAt?$AAe?$AAr?$AAn?$AAa?$AAl@ 0000000140053a60     libucrtd:close.obj
 0002:00011ab8       ??_C@_1BA@BALFACEM@?$AAC?$AAO?$AAN?$AAO?$AAU?$AAT?$AA$@ 0000000140053ab8     libucrtd:initcon.obj
 0002:00011ad0       ??_7type_info@@6B@         0000000140053ad0     LIBCMTD:std_type_info_static.obj
 0002:00011ae0       __xmm@00000000000000000000000000000000 0000000140053ae0     libvcruntimed:strrchr.obj
 0002:00011af0       _load_config_used          0000000140053af0     LIBCMTD:loadcfg.obj
 0002:00011e00       ??_R4exception@std@@6B@    0000000140053e00     libvcruntimed:frame.obj
 0002:00011e28       ??_R3exception@std@@8      0000000140053e28     libvcruntimed:frame.obj
 0002:00011e40       ??_R2exception@std@@8      0000000140053e40     libvcruntimed:frame.obj
 0002:00011e50       ??_R1A@?0A@EA@exception@std@@8 0000000140053e50     libvcruntimed:frame.obj
 0002:00011e78       ??_R4bad_exception@std@@6B@ 0000000140053e78     libvcruntimed:frame.obj
 0002:00011ea0       ??_R3bad_exception@std@@8  0000000140053ea0     libvcruntimed:frame.obj
 0002:00011eb8       ??_R2bad_exception@std@@8  0000000140053eb8     libvcruntimed:frame.obj
 0002:00011ed0       ??_R1A@?0A@EA@bad_exception@std@@8 0000000140053ed0     libvcruntimed:frame.obj
 0002:00011ef8       ??_R4type_info@@6B@        0000000140053ef8     LIBCMTD:std_type_info_static.obj
 0002:00011f20       ??_R3type_info@@8          0000000140053f20     LIBCMTD:std_type_info_static.obj
 0002:00011f38       ??_R2type_info@@8          0000000140053f38     LIBCMTD:std_type_info_static.obj
 0002:00011f48       ??_R1A@?0A@EA@type_info@@8 0000000140053f48     LIBCMTD:std_type_info_static.obj
 0002:00011f6c       __volatile_metadata        0000000140053f6c     <linker-defined>
 0002:000123c8       __rtc_iaa                  00000001400543c8     LIBCMTD:initsect.obj
 0002:000123d0       __rtc_izz                  00000001400543d0     LIBCMTD:initsect.obj
 0002:000123d8       __rtc_taa                  00000001400543d8     LIBCMTD:initsect.obj
 0002:000123e0       __rtc_tzz                  00000001400543e0     LIBCMTD:initsect.obj
 0002:000135c8       _TI2?AVbad_exception@std@@ 00000001400555c8     libvcruntimed:frame.obj
 0002:000135e8       _CTA2?AVbad_exception@std@@ 00000001400555e8     libvcruntimed:frame.obj
 0002:00013600       _CT??_R0?AVbad_exception@std@@@8??0bad_exception@std@@QEAA@AEBV01@@Z24 0000000140055600     libvcruntimed:frame.obj
 0002:00013628       _CT??_R0?AVexception@std@@@8??0exception@std@@QEAA@AEBV01@@Z24 0000000140055628     libvcruntimed:frame.obj
 0002:0001364c       __IMPORT_DESCRIPTOR_USER32 000000014005564c     user32:USER32.dll
 0002:00013660       __IMPORT_DESCRIPTOR_GDI32  0000000140055660     gdi32:GDI32.dll
 0002:00013674       __IMPORT_DESCRIPTOR_KERNEL32 0000000140055674     kernel32:KERNEL32.dll
 0002:00013688       __IMPORT_DESCRIPTOR_WINMM  0000000140055688     winmm:WINMM.dll
 0002:0001369c       __NULL_IMPORT_DESCRIPTOR   000000014005569c     user32:USER32.dll
 0003:00000000       ?engine_api@@3UEngine_api@@A 0000000140057000     platform.obj
 0003:00000040       __security_cookie          0000000140057040     LIBCMTD:gs_cookie.obj
 0003:00000080       __security_cookie_complement 0000000140057080     LIBCMTD:gs_cookie.obj
 0003:00000088       _fltused                   0000000140057088     LIBCMTD:fltused.obj
 0003:0000008c       __scrt_native_dllmain_reason 000000014005708c     LIBCMTD:utility.obj
 0003:00000090       __scrt_default_matherr     0000000140057090     LIBCMTD:matherr.obj
 0003:00000098       __isa_inverted             0000000140057098     LIBCMTD:cpu_disp.obj
 0003:000000a0       __isa_available            00000001400570a0     LIBCMTD:cpu_disp.obj
 0003:000000a4       __isa_enabled              00000001400570a4     LIBCMTD:cpu_disp.obj
 0003:000000a8       __memset_fast_string_threshold 00000001400570a8     LIBCMTD:cpu_disp.obj
 0003:000000b0       __memset_nt_threshold      00000001400570b0     LIBCMTD:cpu_disp.obj
 0003:000000d4       _crtDbgFlag                00000001400570d4     libucrtd:debug_heap.obj
 0003:000000d8       _crtBreakAlloc             00000001400570d8     libucrtd:debug_heap.obj
 0003:000000e0       __abort_behavior           00000001400570e0     libucrtd:abort.obj
 0003:00000100       _iob                       0000000140057100     libucrtd:_file.obj
 0003:00000210       __acrt_initial_locale_data 0000000140057210     libucrtd:nlsdata.obj
 0003:00000368       __acrt_initial_locale_pointers 0000000140057368     libucrtd:nlsdata.obj
 0003:00000378       __acrt_wide_c_locale_string 0000000140057378     libucrtd:nlsdata.obj
 0003:00000380       __acrt_initial_multibyte_data 0000000140057380     libucrtd:mbctype.obj
 0003:000008c0       __acrt_lconv_c             00000001400578c0     libucrtd:localeconv.obj
 0003:00000958       __acrt_lconv_static_decimal 0000000140057958     libucrtd:localeconv.obj
 0003:0000095c       __acrt_lconv_static_W_decimal 000000014005795c     libucrtd:localeconv.obj
 0003:00000960       __globallocalestatus       0000000140057960     libucrtd:glstatus.obj
 0003:00000968       _pfnAllocHook              0000000140057968     libucrtd:debug_heap_hook.obj
 0003:00000970       _crtAssertBusy             0000000140057970     libucrtd:dbgrptt.obj
 0003:00000978       _CrtDbgMode                0000000140057978     libucrtd:dbgrptt.obj
 0003:00000988       _CrtDbgFile                0000000140057988     libucrtd:dbgrptt.obj
 0003:000009b0       _lookuptrailbytes          00000001400579b0     libucrtd:read.obj
 0003:00000ad0       ??_R0?AVbad_exception@std@@@8 0000000140057ad0     libvcruntimed:frame.obj
 0003:00000af8       ??_R0?AVexception@std@@@8  0000000140057af8     libvcruntimed:frame.obj
 0003:00000b20       ??_R0?AVtype_info@@@8      0000000140057b20     LIBCMTD:std_type_info_static.obj
 0003:00000b40       ?globals@@3PEAUGlobals@@EA 0000000140057b40     platform.obj
 0003:00000b48       ?input@@3PEAUInput@@EA     0000000140057b48     platform.obj
 0003:00000b50       ?keymap@@3PAEA             0000000140057b50     platform.obj
 0003:00000c50       ?_OptionsStorage@?1??__local_stdio_printf_options@@9@4_KA 0000000140057c50     platform.obj
 0003:000011d0       __scrt_current_native_startup_state 00000001400581d0     LIBCMTD:utility.obj
 0003:000011d8       __scrt_native_startup_lock 00000001400581d8     LIBCMTD:utility.obj
 0003:00001220       ?__type_info_root_node@@3U__type_info_node@@A 0000000140058220     LIBCMTD:tncleanup.obj
 0003:00001230       ?_OptionsStorage@?1??__local_stdio_scanf_options@@9@4_KA 0000000140058230     LIBCMTD:default_local_stdio_options.obj
 0003:00001238       __scrt_debugger_hook_flag  0000000140058238     LIBCMTD:utility_desktop.obj
 0003:0000123c       __avx10_version            000000014005823c     LIBCMTD:cpu_disp.obj
 0003:00001240       __favor                    0000000140058240     LIBCMTD:cpu_disp.obj
 0003:00001248       ?__WinRTOutOfMemoryExceptionCallback@@3P6APEAXXZEA 0000000140058248     libvcruntimed:ehhelpers.obj
 0003:00001300       ?pArgList@UnDecorator@@0PEAVReplicator@@EA 0000000140058300     libvcruntimed:undname.obj
 0003:00001308       ?pZNameList@UnDecorator@@0PEAVReplicator@@EA 0000000140058308     libvcruntimed:undname.obj
 0003:00001310       ?pTemplateArgList@UnDecorator@@0PEAVReplicator@@EA 0000000140058310     libvcruntimed:undname.obj
 0003:00001318       ?gName@UnDecorator@@0PEBDEB 0000000140058318     libvcruntimed:undname.obj
 0003:00001320       ?name@UnDecorator@@0PEBDEB 0000000140058320     libvcruntimed:undname.obj
 0003:00001328       ?disableFlags@UnDecorator@@0KA 0000000140058328     libvcruntimed:undname.obj
 0003:0000132c       ?fExplicitTemplateParams@UnDecorator@@0_NA 000000014005832c     libvcruntimed:undname.obj
 0003:0000132d       ?fGetTemplateArgumentList@UnDecorator@@0_NA 000000014005832d     libvcruntimed:undname.obj
 0003:00001330       ?m_pGetParameter@UnDecorator@@0P6APEADJ@ZEA 0000000140058330     libvcruntimed:undname.obj
 0003:00001338       ?m_CHPENameOffset@UnDecorator@@0KA 0000000140058338     libvcruntimed:undname.obj
 0003:0000133c       ?m_recursionLevel@UnDecorator@@0KA 000000014005833c     libvcruntimed:undname.obj
 0003:000013a8       __pPurecall                00000001400583a8     libvcruntimed:purevirt_data.obj
 0003:00001af8       _environ_table             0000000140058af8     libucrtd:environment_initialization.obj
 0003:00001b00       _wenviron_table            0000000140058b00     libucrtd:environment_initialization.obj
 0003:00001b08       __dcrt_initial_wide_environment 0000000140058b08     libucrtd:environment_initialization.obj
 0003:00001b10       __dcrt_initial_narrow_environment 0000000140058b10     libucrtd:environment_initialization.obj
 0003:00001b28       ?c_exit_complete@?1???R<lambda_6e4b09c48022b2350581041d5f6b0c4c>@@QEBA@XZ@4_NA 0000000140058b28     libucrtd:exit.obj
 0003:00001b2c       __acrt_locale_changed_data 0000000140058b2c     libucrtd:wsetlocale.obj
 0003:00001b34       _commode                   0000000140058b34     libucrtd:ncommode.obj
 0003:00001b38       __acrt_atexit_table        0000000140058b38     libucrtd:onexit.obj
 0003:00001b50       __acrt_at_quick_exit_table 0000000140058b50     libucrtd:onexit.obj
 0003:00001b98       _pfnDumpClient             0000000140058b98     libucrtd:debug_heap.obj
 0003:00001bb8       _nstream                   0000000140058bb8     libucrtd:_file.obj
 0003:00001bc0       __piob                     0000000140058bc0     libucrtd:_file.obj
 0003:00001bd0       __acrt_stdout_buffer       0000000140058bd0     libucrtd:_sftbuf.obj
 0003:00001bd8       __acrt_stderr_buffer       0000000140058bd8     libucrtd:_sftbuf.obj
 0003:00001be0       __acrt_current_locale_data 0000000140058be0     libucrtd:nlsdata.obj
 0003:00001bf0       __pioinfo                  0000000140058bf0     libucrtd:ioinit.obj
 0003:00001ff0       _nhandle                   0000000140058ff0     libucrtd:ioinit.obj
 0003:00001ff8       _mbctype                   0000000140058ff8     libucrtd:mbctype.obj
 0003:00002000       _mbcasemap                 0000000140059000     libucrtd:mbctype.obj
 0003:00002008       __acrt_current_multibyte_data 0000000140059008     libucrtd:mbctype.obj
 0003:00002018       _pgmptr                    0000000140059018     libucrtd:argv_data.obj
 0003:00002020       __argc                     0000000140059020     libucrtd:argv_data.obj
 0003:00002028       __argv                     0000000140059028     libucrtd:argv_data.obj
 0003:00002030       __wargv                    0000000140059030     libucrtd:argv_data.obj
 0003:00002038       _acmdln                    0000000140059038     libucrtd:argv_data.obj
 0003:00002040       _wcmdln                    0000000140059040     libucrtd:argv_data.obj
 0003:0000228c       _fmode                     000000014005928c     libucrtd:txtmode.obj
 0003:00002420       __acrt_lconv_static_null   0000000140059420     libucrtd:localeconv.obj
 0003:00002424       __acrt_lconv_static_W_null 0000000140059424     libucrtd:localeconv.obj
 0003:00002428       __acrt_heap                0000000140059428     libucrtd:heap_handle.obj
 0003:00002458       _pfnReportHook             0000000140059458     libucrtd:dbgrptt.obj
 0003:00002460       _pReportHookList           0000000140059460     libucrtd:dbgrptt.obj
 0003:00002468       _pReportHookListW          0000000140059468     libucrtd:dbgrptt.obj
 0003:00002478       __fma3_is_available        0000000140059478     libucrtd:fma3_available.obj
 0003:0000247c       __use_fma3_lib             000000014005947c     libucrtd:fma3_available.obj
 0003:00002488       __scrt_ucrt_dll_is_in_use  0000000140059488     <common>
 0003:00002490       __dyn_tls_dtor_callback    0000000140059490     <common>
 0003:00002498       __dyn_tls_init_callback    0000000140059498     <common>

 entry point at        0001:00002410

 Static symbols

 0000:fffa1000       .debug$S                   0000000140000000     gdi32:GDI32.dll
 0000:fffa1000       .debug$S                   0000000140000000     kernel32:KERNEL32.dll
 0000:fffa1000       .debug$S                   0000000140000000     kernel32:KERNEL32.dll
 0000:fffa1000       .debug$S                   0000000140000000     kernel32:KERNEL32.dll
 0000:fffa1000       .debug$S                   0000000140000000     kernel32:KERNEL32.dll
 0000:fffa1000       .debug$S                   0000000140000000     kernel32:KERNEL32.dll
 0000:fffa1000       .debug$S                   0000000140000000     kernel32:KERNEL32.dll
 0000:fffa1000       .debug$S                   0000000140000000     kernel32:KERNEL32.dll
 0000:fffa1000       .debug$S                   0000000140000000     kernel32:KERNEL32.dll
 0000:fffa1000       .debug$S                   0000000140000000     kernel32:KERNEL32.dll
 0000:fffa1000       .debug$S                   0000000140000000     kernel32:KERNEL32.dll
 0000:fffa1000       .debug$S                   0000000140000000     kernel32:KERNEL32.dll
 0000:fffa1000       .debug$S                   0000000140000000     kernel32:KERNEL32.dll
 0000:fffa1000       .debug$S                   0000000140000000     kernel32:KERNEL32.dll
 0000:fffa1000       .debug$S                   0000000140000000     kernel32:KERNEL32.dll
 0000:fffa1000       .debug$S                   0000000140000000     kernel32:KERNEL32.dll
 0000:fffa1000       .debug$S                   0000000140000000     kernel32:KERNEL32.dll
 0000:fffa1000       .debug$S                   0000000140000000     kernel32:KERNEL32.dll
 0000:fffa1000       .debug$S                   0000000140000000     kernel32:KERNEL32.dll
 0000:fffa1000       .debug$S                   0000000140000000     kernel32:KERNEL32.dll
 0000:fffa1000       .debug$S                   0000000140000000     kernel32:KERNEL32.dll
 0000:fffa1000       .debug$S                   0000000140000000     kernel32:KERNEL32.dll
 0000:fffa1000       .debug$S                   0000000140000000     kernel32:KERNEL32.dll
 0000:fffa1000       .debug$S                   0000000140000000     kernel32:KERNEL32.dll
 0000:fffa1000       .debug$S                   0000000140000000     kernel32:KERNEL32.dll
 0000:fffa1000       .debug$S                   0000000140000000     kernel32:KERNEL32.dll
 0000:fffa1000       .debug$S                   0000000140000000     kernel32:KERNEL32.dll
 0000:fffa1000       .debug$S                   0000000140000000     kernel32:KERNEL32.dll
 0000:fffa1000       .debug$S                   0000000140000000     kernel32:KERNEL32.dll
 0000:fffa1000       .debug$S                   0000000140000000     kernel32:KERNEL32.dll
 0000:fffa1000       .debug$S                   0000000140000000     kernel32:KERNEL32.dll
 0000:fffa1000       .debug$S                   0000000140000000     kernel32:KERNEL32.dll
 0000:fffa1000       .debug$S                   0000000140000000     kernel32:KERNEL32.dll
 0000:fffa1000       .debug$S                   0000000140000000     kernel32:KERNEL32.dll
 0000:fffa1000       .debug$S                   0000000140000000     kernel32:KERNEL32.dll
 0000:fffa1000       .debug$S                   0000000140000000     kernel32:KERNEL32.dll
 0000:fffa1000       .debug$S                   0000000140000000     kernel32:KERNEL32.dll
 0000:fffa1000       .debug$S                   0000000140000000     kernel32:KERNEL32.dll
 0000:fffa1000       .debug$S                   0000000140000000     kernel32:KERNEL32.dll
 0000:fffa1000       .debug$S                   0000000140000000     kernel32:KERNEL32.dll
 0000:fffa1000       .debug$S                   0000000140000000     kernel32:KERNEL32.dll
 0000:fffa1000       .debug$S                   0000000140000000     kernel32:KERNEL32.dll
 0000:fffa1000       .debug$S                   0000000140000000     kernel32:KERNEL32.dll
 0000:fffa1000       .debug$S                   0000000140000000     kernel32:KERNEL32.dll
 0000:fffa1000       .debug$S                   0000000140000000     kernel32:KERNEL32.dll
 0000:fffa1000       .debug$S                   0000000140000000     kernel32:KERNEL32.dll
 0000:fffa1000       .debug$S                   0000000140000000     kernel32:KERNEL32.dll
 0000:fffa1000       .debug$S                   0000000140000000     kernel32:KERNEL32.dll
 0000:fffa1000       .debug$S                   0000000140000000     kernel32:KERNEL32.dll
 0000:fffa1000       .debug$S                   0000000140000000     kernel32:KERNEL32.dll
 0000:fffa1000       .debug$S                   0000000140000000     kernel32:KERNEL32.dll
 0000:fffa1000       .debug$S                   0000000140000000     kernel32:KERNEL32.dll
 0000:fffa1000       .debug$S                   0000000140000000     kernel32:KERNEL32.dll
 0000:fffa1000       .debug$S                   0000000140000000     kernel32:KERNEL32.dll
 0000:fffa1000       .debug$S                   0000000140000000     kernel32:KERNEL32.dll
 0000:fffa1000       .debug$S                   0000000140000000     kernel32:KERNEL32.dll
 0000:fffa1000       .debug$S                   0000000140000000     kernel32:KERNEL32.dll
 0000:fffa1000       .debug$S                   0000000140000000     kernel32:KERNEL32.dll
 0000:fffa1000       .debug$S                   0000000140000000     kernel32:KERNEL32.dll
 0000:fffa1000       .debug$S                   0000000140000000     kernel32:KERNEL32.dll
 0000:fffa1000       .debug$S                   0000000140000000     kernel32:KERNEL32.dll
 0000:fffa1000       .debug$S                   0000000140000000     kernel32:KERNEL32.dll
 0000:fffa1000       .debug$S                   0000000140000000     kernel32:KERNEL32.dll
 0000:fffa1000       .debug$S                   0000000140000000     kernel32:KERNEL32.dll
 0000:fffa1000       .debug$S                   0000000140000000     kernel32:KERNEL32.dll
 0000:fffa1000       .debug$S                   0000000140000000     kernel32:KERNEL32.dll
 0000:fffa1000       .debug$S                   0000000140000000     kernel32:KERNEL32.dll
 0000:fffa1000       .debug$S                   0000000140000000     kernel32:KERNEL32.dll
 0000:fffa1000       .debug$S                   0000000140000000     kernel32:KERNEL32.dll
 0000:fffa1000       .debug$S                   0000000140000000     kernel32:KERNEL32.dll
 0000:fffa1000       .debug$S                   0000000140000000     kernel32:KERNEL32.dll
 0000:fffa1000       .debug$S                   0000000140000000     kernel32:KERNEL32.dll
 0000:fffa1000       .debug$S                   0000000140000000     kernel32:KERNEL32.dll
 0000:fffa1000       .debug$S                   0000000140000000     kernel32:KERNEL32.dll
 0000:fffa1000       .debug$S                   0000000140000000     kernel32:KERNEL32.dll
 0000:fffa1000       .debug$S                   0000000140000000     kernel32:KERNEL32.dll
 0000:fffa1000       .debug$S                   0000000140000000     kernel32:KERNEL32.dll
 0000:fffa1000       .debug$S                   0000000140000000     kernel32:KERNEL32.dll
 0000:fffa1000       .debug$S                   0000000140000000     kernel32:KERNEL32.dll
 0000:fffa1000       .debug$S                   0000000140000000     kernel32:KERNEL32.dll
 0000:fffa1000       .debug$S                   0000000140000000     kernel32:KERNEL32.dll
 0000:fffa1000       .debug$S                   0000000140000000     kernel32:KERNEL32.dll
 0000:fffa1000       .debug$S                   0000000140000000     kernel32:KERNEL32.dll
 0000:fffa1000       .debug$S                   0000000140000000     kernel32:KERNEL32.dll
 0000:fffa1000       .debug$S                   0000000140000000     kernel32:KERNEL32.dll
 0000:fffa1000       .debug$S                   0000000140000000     kernel32:KERNEL32.dll
 0000:fffa1000       .debug$S                   0000000140000000     kernel32:KERNEL32.dll
 0000:fffa1000       .debug$S                   0000000140000000     kernel32:KERNEL32.dll
 0000:fffa1000       .debug$S                   0000000140000000     kernel32:KERNEL32.dll
 0000:fffa1000       .debug$S                   0000000140000000     kernel32:KERNEL32.dll
 0000:fffa1000       .debug$S                   0000000140000000     kernel32:KERNEL32.dll
 0000:fffa1000       .debug$S                   0000000140000000     kernel32:KERNEL32.dll
 0000:fffa1000       .debug$S                   0000000140000000     kernel32:KERNEL32.dll
 0000:fffa1000       .debug$S                   0000000140000000     kernel32:KERNEL32.dll
 0000:fffa1000       .debug$S                   0000000140000000     kernel32:KERNEL32.dll
 0000:fffa1000       .debug$S                   0000000140000000     kernel32:KERNEL32.dll
 0000:fffa1000       .debug$S                   0000000140000000     kernel32:KERNEL32.dll
 0000:fffa1000       .debug$S                   0000000140000000     kernel32:KERNEL32.dll
 0000:fffa1000       .debug$S                   0000000140000000     kernel32:KERNEL32.dll
 0000:fffa1000       .debug$S                   0000000140000000     kernel32:KERNEL32.dll
 0000:fffa1000       .debug$S                   0000000140000000     kernel32:KERNEL32.dll
 0000:fffa1000       .debug$S                   0000000140000000     kernel32:KERNEL32.dll
 0000:fffa1000       .debug$S                   0000000140000000     kernel32:KERNEL32.dll
 0000:fffa1000       .debug$S                   0000000140000000     kernel32:KERNEL32.dll
 0000:fffa1000       .debug$S                   0000000140000000     kernel32:KERNEL32.dll
 0000:fffa1000       .debug$S                   0000000140000000     kernel32:KERNEL32.dll
 0000:fffa1000       .debug$S                   0000000140000000     user32:USER32.dll
 0000:fffa1000       .debug$S                   0000000140000000     user32:USER32.dll
 0000:fffa1000       .debug$S                   0000000140000000     user32:USER32.dll
 0000:fffa1000       .debug$S                   0000000140000000     user32:USER32.dll
 0000:fffa1000       .debug$S                   0000000140000000     user32:USER32.dll
 0000:fffa1000       .debug$S                   0000000140000000     user32:USER32.dll
 0000:fffa1000       .debug$S                   0000000140000000     user32:USER32.dll
 0000:fffa1000       .debug$S                   0000000140000000     user32:USER32.dll
 0000:fffa1000       .debug$S                   0000000140000000     user32:USER32.dll
 0000:fffa1000       .debug$S                   0000000140000000     user32:USER32.dll
 0000:fffa1000       .debug$S                   0000000140000000     user32:USER32.dll
 0000:fffa1000       .debug$S                   0000000140000000     user32:USER32.dll
 0000:fffa1000       .debug$S                   0000000140000000     user32:USER32.dll
 0000:fffa1000       .debug$S                   0000000140000000     user32:USER32.dll
 0000:fffa1000       .debug$S                   0000000140000000     user32:USER32.dll
 0000:fffa1000       .debug$S                   0000000140000000     user32:USER32.dll
 0000:fffa1000       .debug$S                   0000000140000000     user32:USER32.dll
 0000:fffa1000       .debug$S                   0000000140000000     user32:USER32.dll
 0000:fffa1000       .debug$S                   0000000140000000     user32:USER32.dll
 0000:fffa1000       .debug$S                   0000000140000000     user32:USER32.dll
 0000:fffa1000       .debug$S                   0000000140000000     user32:USER32.dll
 0000:fffa1000       .debug$S                   0000000140000000     user32:USER32.dll
 0000:fffa1000       .debug$S                   0000000140000000     user32:USER32.dll
 0000:fffa1000       .debug$S                   0000000140000000     user32:USER32.dll
 0000:fffa1000       .debug$S                   0000000140000000     user32:USER32.dll
 0000:fffa1000       .debug$S                   0000000140000000     user32:USER32.dll
 0000:fffa1000       .debug$S                   0000000140000000     winmm:WINMM.dll
 0001:00002050       $$000000                   0000000140003050     LIBCMTD:amdsecgs.obj
 0001:00002080       ?pre_c_initialization@@YAHXZ 0000000140003080 f   LIBCMTD:exe_winmain.obj
 0001:00002140       ?post_pgo_initialization@@YAHXZ 0000000140003140 f   LIBCMTD:exe_winmain.obj
 0001:00002150       ?pre_cpp_initialization@@YAXXZ 0000000140003150 f   LIBCMTD:exe_winmain.obj
 0001:00002170       ?__scrt_common_main@@YAHXZ 0000000140003170 f   LIBCMTD:exe_winmain.obj
 0001:00002190       ?__scrt_common_main_seh@@YAHXZ 0000000140003190 f   LIBCMTD:exe_winmain.obj
 0001:00002370       ?invoke_main@@YAHXZ        0000000140003370 f   LIBCMTD:exe_winmain.obj
 0001:00002610       capture_current_context    0000000140003610 f   LIBCMTD:gs_report.obj
 0001:000026b0       capture_previous_context   00000001400036b0 f   LIBCMTD:gs_report.obj
 0001:00002770       ?find_pe_section@@YAPEAU_IMAGE_SECTION_HEADER@@QEAE_K@Z 0000000140003770 f   LIBCMTD:utility.obj
 0001:00002840       ?is_potentially_valid_image_base@@YA_NQEAX@Z 0000000140003840 f   LIBCMTD:utility.obj
 0001:00002c70       __get_entropy              0000000140003c70 f   LIBCMTD:gs_support.obj
 0001:00002dd0       ?get_invalid_value@environment_strings_traits@?A0x1bf47908@@SAPEA_WXZ 0000000140003dd0 f   libucrtd:get_environment_from_os.obj
 0001:00002e10       initialize_environment     0000000140003e10 f   libucrtd:initialization.obj
 0001:00002e10       initialize_global_state_isolation 0000000140003e10 f   libucrtd:initialization.obj
 0001:00002e20       init_string_functions      0000000140003e20 f   libvcruntimed:initialization.obj
 0001:00003dc0       ??0?$__crt_unique_handle_t@Uenvironment_strings_traits@?A0x1bf47908@@@@QEAA@QEA_W@Z 0000000140004dc0 f i libucrtd:get_environment_from_os.obj
 0001:00003dc0       ??0<lambda_8d0ee55de4b1038c4002e0adecdf1839>@@QEAA@AEBQEAU__acrt_ptd@@@Z 0000000140004dc0 f i libucrtd:per_thread_data.obj
 0001:00003dc0       ??0<lambda_8f455de75cd7d7f24b4096f044d8b9e6>@@QEAA@AEBQEAU__acrt_ptd@@@Z 0000000140004dc0 f i libucrtd:per_thread_data.obj
 0001:00003dc0       ??0<lambda_e157831efee4ea0afb0a2ace5dd5fd0d>@@QEAA@AEBQEAU__acrt_ptd@@@Z 0000000140004dc0 f i libucrtd:per_thread_data.obj
 0001:00003dc0       ??0<lambda_3e4146214822e0ea86c47ff907aef2ff>@@QEAA@AEBH@Z 0000000140004dc0 f i libucrtd:commit.obj
 0001:00003dc0       ??0<lambda_df1553121bfa390f1154bd84936f2730>@@QEAA@AEAV?$__crt_unique_heap_ptr@PEADU__crt_internal_free_policy@@@@@Z 0000000140004dc0 f i libucrtd:argv_parsing.obj
 0001:00003dc0       ??0<lambda_d121dba8a4adeaf3a9819e48611155df>@@QEAA@AEBQEAU_onexit_table_t@@@Z 0000000140004dc0 f i libucrtd:onexit.obj
 0001:00003e40       ?get@?$__crt_unique_handle_t@Uenvironment_strings_traits@?A0x1bf47908@@@@QEBAPEA_WXZ 0000000140004e40 f i libucrtd:get_environment_from_os.obj
 0001:00003e40       ?begin@?$argument_list@D@?A0x5f5c8891@@QEBAPEAPEADXZ 0000000140004e40 f i libucrtd:argv_wildcards.obj
 0001:00004030       ?_FilterSetCurrentException@@YAKPEAU_EXCEPTION_POINTERS@@E@Z 0000000140005030 f   libvcruntimed:ehhelpers.obj
 0001:000042c0       $$000000                   00000001400052c0     libvcruntimed:notify.obj
 0001:000042e0       $$000000                   00000001400052e0     libvcruntimed:notify.obj
 0001:000042f0       $$000000                   00000001400052f0     libvcruntimed:notify.obj
 0001:00004360       ??0scoped_get_last_error_reset@?A0xf875a351@@QEAA@XZ 0000000140005360 f   libvcruntimed:per_thread_data.obj
 0001:00004380       ??1scoped_get_last_error_reset@?A0xf875a351@@QEAA@XZ 0000000140005380 f   libvcruntimed:per_thread_data.obj
 0001:000043d0       ?store_and_initialize_ptd@@YA_NQEAU__vcrt_ptd@@@Z 00000001400053d0 f   libvcruntimed:per_thread_data.obj
 0001:00004880       ?invalid_function_sentinel@@YAPEAXXZ 0000000140005880 f   libucrtd:winapi_thunks.obj
 0001:00004880       ?invalid_function_sentinel@@YAPEAXXZ 0000000140005880 f   libvcruntimed:winapi_downlevel.obj
 0001:00004890       ?try_get_FlsAlloc@@YAP6AKP6AXPEAX@Z@ZXZ 0000000140005890 f   libvcruntimed:winapi_downlevel.obj
 0001:000048c0       ?try_get_FlsFree@@YAP6AHK@ZXZ 00000001400058c0 f   libvcruntimed:winapi_downlevel.obj
 0001:000048f0       ?try_get_FlsGetValue@@YAP6APEAXK@ZXZ 00000001400058f0 f   libvcruntimed:winapi_downlevel.obj
 0001:00004920       ?try_get_FlsSetValue@@YAP6AHKPEAX@ZXZ 0000000140005920 f   libvcruntimed:winapi_downlevel.obj
 0001:00004950       ?try_get_InitializeCriticalSectionEx@@YAP6AHPEAU_RTL_CRITICAL_SECTION@@KK@ZXZ 0000000140005950 f   libvcruntimed:winapi_downlevel.obj
 0001:00004980       ?try_get_first_available_module@@YAPEAUHINSTANCE__@@QEBW4module_id@?A0x14174aea@@0@Z 0000000140005980 f   libvcruntimed:winapi_downlevel.obj
 0001:000049e0       ?try_get_function@@YAPEAXW4function_id@?A0x14174aea@@QEBDQEBW4module_id@2@2@Z 00000001400059e0 f   libvcruntimed:winapi_downlevel.obj
 0001:00004b50       ?try_get_module@@YAPEAUHINSTANCE__@@W4module_id@?A0x14174aea@@@Z 0000000140005b50 f   libvcruntimed:winapi_downlevel.obj
 0001:00004cb0       ?try_get_proc_address_from_first_available_module@@YAPEAXQEBDQEBW4module_id@?A0x14174aea@@1@Z 0000000140005cb0 f   libvcruntimed:winapi_downlevel.obj
 0001:00004d00       ?try_load_library_from_system_directory@@YAPEAUHINSTANCE__@@QEB_W@Z 0000000140005d00 f   libvcruntimed:winapi_downlevel.obj
 0001:00004f70       ??$SehTransFilter@V__FrameHandler3@@@@YAHPEAU_EXCEPTION_POINTERS@@PEAUEHExceptionRecord@@PEA_KPEAU_CONTEXT@@PEAU_xDISPATCHER_CONTEXT@@PEBU_s_FuncInfo@@HPEAH@Z 0000000140005f70 f   libvcruntimed:risctrnsctrl.obj
 0001:00005ca0       ?adjustIp@@YA_KPEAU_xDISPATCHER_CONTEXT@@_K@Z 0000000140006ca0 f   libvcruntimed:ehstate.obj
 0001:00005cb0       ??$BuildCatchObjectHelperInternal@V__FrameHandler3@@@@YAHPEAUEHExceptionRecord@@PEAXPEBU_s_HandlerType@@PEBU_s_CatchableType@@@Z 0000000140006cb0 f   libvcruntimed:frame.obj
 0001:000060a0       ??$BuildCatchObjectInternal@V__FrameHandler3@@@@YAXPEAUEHExceptionRecord@@PEAXPEBU_s_HandlerType@@PEBU_s_CatchableType@@@Z 00000001400070a0 f   libvcruntimed:frame.obj
 0001:000061f0       ??$CatchIt@V__FrameHandler3@@@@YAXPEAUEHExceptionRecord@@PEA_KPEAU_CONTEXT@@PEAU_xDISPATCHER_CONTEXT@@PEBU_s_FuncInfo@@PEBU_s_HandlerType@@PEBU_s_CatchableType@@PEBU_s_TryBlockMapEntry@@H1EE@Z 00000001400071f0 f   libvcruntimed:frame.obj
 0001:00006330       ??$FindHandler@V__FrameHandler3@@@@YAXPEAUEHExceptionRecord@@PEA_KPEAU_CONTEXT@@PEAU_xDISPATCHER_CONTEXT@@PEBU_s_FuncInfo@@EH1@Z 0000000140007330 f   libvcruntimed:frame.obj
 0001:00006b10       ??$FindHandlerForForeignException@V__FrameHandler3@@@@YAXPEAUEHExceptionRecord@@PEA_KPEAU_CONTEXT@@PEAU_xDISPATCHER_CONTEXT@@PEBU_s_FuncInfo@@HH1@Z 0000000140007b10 f   libvcruntimed:frame.obj
 0001:000075b0       ??0<lambda_92619d2358a28f41a33ba319515a20b9>@@QEAA@AEBQEAU__acrt_ptd@@AEBQEAPEAU__crt_locale_data@@@Z 00000001400085b0 f i libucrtd:per_thread_data.obj
 0001:000075b0       ??0<lambda_af29824b49a67d335554598d6cad2be6>@@QEAA@AEBHAEAV__crt_cached_ptd_host@@@Z 00000001400085b0 f i libucrtd:close.obj
 0001:000075b0       ??0<lambda_bd5a608237428601b7e45fbdc72b1ae8>@@QEAA@AEBQEAU__acrt_ptd@@AEBQEAPEAU__crt_multibyte_data@@@Z 00000001400085b0 f i libucrtd:mbctype.obj
 0001:000075b0       ??0<lambda_208ce30acdd7200aa596f2796f4d5154>@@QEAA@AEBQEAU_onexit_table_t@@AEBQ6AHXZ@Z 00000001400085b0 f i libucrtd:onexit.obj
 0001:00007c70       ?ExFilterRethrow@@YAHPEAU_EXCEPTION_POINTERS@@PEAUEHExceptionRecord@@PEAH@Z 0000000140008c70 f   libvcruntimed:frame.obj
 0001:00008090       ?IsInExceptionSpec@@YAEPEAUEHExceptionRecord@@PEBU_s_ESTypeList@@@Z 0000000140009090 f   libvcruntimed:frame.obj
 0001:000081b0       ?Is_bad_exception_allowed@@YAEPEBU_s_ESTypeList@@@Z 00000001400091b0 f   libvcruntimed:frame.obj
 0001:00008330       ?__RethrowException@@YAXPEAUEHExceptionRecord@@@Z 0000000140009330 f   libvcruntimed:frame.obj
 0001:00008590       $$000000                   0000000140009590     libvcruntimed:handlers.obj
 0001:00008b40       ??$common_vsnprintf_s@D@@YAH_KQEAD00QEBDAEAV__crt_cached_ptd_host@@1@Z 0000000140009b40 f   libucrtd:output.obj
 0001:00009220       ??$common_vsnprintf_s@_W@@YAH_KQEA_W00QEB_WAEAV__crt_cached_ptd_host@@QEAD@Z 000000014000a220 f   libucrtd:output.obj
 0001:00009910       ??$common_vsprintf@Vformat_validation_base@__crt_stdio_output@@D@@YAH_KQEAD0QEBDAEAV__crt_cached_ptd_host@@1@Z 000000014000a910 f   libucrtd:output.obj
 0001:00009dd0       ??$common_vsprintf@Vformat_validation_base@__crt_stdio_output@@_W@@YAH_KQEA_W0QEB_WAEAV__crt_cached_ptd_host@@QEAD@Z 000000014000add0 f   libucrtd:output.obj
 0001:0000a280       ??$common_vsprintf@Vstandard_base@__crt_stdio_output@@D@@YAH_KQEAD0QEBDAEAV__crt_cached_ptd_host@@1@Z 000000014000b280 f   libucrtd:output.obj
 0001:0000a740       ??$common_vsprintf_s@D@@YAH_KQEAD0QEBDAEAV__crt_cached_ptd_host@@1@Z 000000014000b740 f   libucrtd:output.obj
 0001:00010d14       $LN39                      0000000140011d14     libucrtd:output.obj
 0001:000110d4       $LN39                      00000001400120d4     libucrtd:output.obj
 0001:00011498       $LN39                      0000000140012498     libucrtd:output.obj
 0001:000123bc       $LN54                      00000001400133bc     libucrtd:output.obj
 0001:000123e4       $LN53                      00000001400133e4     libucrtd:output.obj
 0001:0001287c       $LN54                      000000014001387c     libucrtd:output.obj
 0001:000128a4       $LN53                      00000001400138a4     libucrtd:output.obj
 0001:00012d3c       $LN54                      0000000140013d3c     libucrtd:output.obj
 0001:00012d64       $LN53                      0000000140013d64     libucrtd:output.obj
 0001:000131f8       $LN44                      00000001400141f8     libucrtd:output.obj
 0001:00013228       $LN43                      0000000140014228     libucrtd:output.obj
 0001:000136b8       $LN44                      00000001400146b8     libucrtd:output.obj
 0001:000136e8       $LN43                      00000001400146e8     libucrtd:output.obj
 0001:00013c3c       $LN44                      0000000140014c3c     libucrtd:output.obj
 0001:00013c6c       $LN43                      0000000140014c6c     libucrtd:output.obj
 0001:00013f10       $LN19                      0000000140014f10     libucrtd:output.obj
 0001:00017320       ?xcptlookup@@YAPEAU__crt_signal_action_t@@KQEAU1@@Z 0000000140018320 f   libucrtd:exception_filter.obj
 0001:0001763c       $LN33                      000000014001863c     libucrtd:exception_filter.obj
 0001:00017660       ?issue_debug_notification@@YA_NQEB_W@Z 0000000140018660 f   libucrtd:report_runtime_error.obj
 0001:000176c0       ?should_write_error_to_console@@YA_NXZ 00000001400186c0 f   libucrtd:report_runtime_error.obj
 0001:00017700       ?write_string_to_console@@YAXQEB_W@Z 0000000140018700 f   libucrtd:report_runtime_error.obj
 0001:00017d70       ??$common_configure_argv@D@@YAHW4_crt_argv_mode@@@Z 0000000140018d70 f   libucrtd:argv_parsing.obj
 0001:00018140       ??$parse_command_line@D@@YAXPEADPEAPEAD0PEA_K2@Z 0000000140019140 f   libucrtd:argv_parsing.obj
 0001:00018650       ??R<lambda_df1553121bfa390f1154bd84936f2730>@@QEBAHXZ 0000000140019650 f   libucrtd:argv_parsing.obj
 0001:000186b0       ?pre_initialize@@YAXD@Z    00000001400196b0 f   libucrtd:environment_initialization.obj
 0001:000186b0       ?do_locale_initialization@@YAXD@Z 00000001400196b0 f   libucrtd:argv_parsing.obj
 0001:000186b0       ?do_locale_initialization@@YAXE@Z 00000001400196b0 f   libucrtd:argv_winmain.obj
 0001:000186d0       ?expand_argv_wildcards@@YAHQEAPEADQEAPEAPEAD@Z 00000001400196d0 f   libucrtd:argv_parsing.obj
 0001:00018710       ?get_argv@@YAAEAPEAPEADD@Z 0000000140019710 f   libucrtd:argv_parsing.obj
 0001:00018720       ?get_command_line@@YAPEADD@Z 0000000140019720 f   libucrtd:argv_parsing.obj
 0001:00018720       ?get_command_line@@YAPEAEE@Z 0000000140019720 f   libucrtd:argv_winmain.obj
 0001:00018760       ?should_copy_another_character@@YA_ND@Z 0000000140019760 f   libucrtd:argv_parsing.obj
 0001:00018900       ??$common_initialize_environment_nolock@D@@YAHXZ 0000000140019900 f   libucrtd:environment_initialization.obj
 0001:00018a20       ??$count_variables_in_environment_block@D@@YA?B_KQEAD@Z 0000000140019a20 f   libucrtd:environment_initialization.obj
 0001:00018aa0       ??$create_environment@D@@YAQEAPEADQEAD@Z 0000000140019aa0 f   libucrtd:environment_initialization.obj
 0001:00018cb0       ??$free_environment@D@@YAXQEAPEAD@Z 0000000140019cb0 f   libucrtd:environment_initialization.obj
 0001:00018cb0       ??$free_environment@_W@@YAXQEAPEA_W@Z 0000000140019cb0 f   libucrtd:environment_initialization.obj
 0001:00018e80       ??$uninitialize_environment_internal@D@@YAXAEAPEAPEAD@Z 0000000140019e80 f   libucrtd:environment_initialization.obj
 0001:00018ec0       ??$uninitialize_environment_internal@_W@@YAXAEAPEAPEA_W@Z 0000000140019ec0 f   libucrtd:environment_initialization.obj
 0001:00018f00       ?get_dual_state_environment_nolock@@YAAEAV?$dual_state_global@PEAPEAD@__crt_state_management@@D@Z 0000000140019f00 f   libucrtd:environment_initialization.obj
 0001:00018f10       ?get_environment_nolock@@YAAEAPEAPEADD@Z 0000000140019f10 f   libucrtd:environment_initialization.obj
 0001:00018f30       ?get_initial_environment@@YAAEAPEAPEADD@Z 0000000140019f30 f   libucrtd:environment_initialization.obj
 0001:00018f40       ?get_initial_environment@@YAAEAPEAPEA_W_W@Z 0000000140019f40 f   libucrtd:environment_initialization.obj
 0001:00018fb0       ??$common_wincmdln@E@@YAPEAEXZ 0000000140019fb0 f   libucrtd:argv_winmain.obj
 0001:000190b0       ?should_copy_another_character@@YA_NE@Z 000000014001a0b0 f   libucrtd:argv_winmain.obj
 0001:00019210       ??$?RV<lambda_d80eeec6fff315bfe5c115232f3240e3>@@AEAV<lambda_6e4b09c48022b2350581041d5f6b0c4c>@@V<lambda_2358e3775559c9db80273638284d5e45>@@@?$__crt_seh_guarded_call@X@@QEAAX$$QEAV<lambda_d80eeec6fff315bfe5c115232f3240e3>@@AEAV<lambda_6e4b09c48022b2350581041d5f6b0c4c>@@$$QEAV<lambda_2358e3775559c9db80273638284d5e45>@@@Z 000000014001a210 f   libucrtd:exit.obj
 0001:00019250       ??$__acrt_lock_and_call@V<lambda_6e4b09c48022b2350581041d5f6b0c4c>@@@@YAXW4__acrt_lock_id@@$$QEAV<lambda_6e4b09c48022b2350581041d5f6b0c4c>@@@Z 000000014001a250 f   libucrtd:exit.obj
 0001:000192e0       ??0<lambda_04ddeca75b7c13fd67716e8dfcef87ee>@@QEAA@AEBW4__acrt_lock_id@@@Z 000000014001a2e0 f   libucrtd:per_thread_data.obj
 0001:000192e0       ??0<lambda_0ae27a3a962d80f24befdcbee591983d>@@QEAA@AEBW4__acrt_lock_id@@@Z 000000014001a2e0 f   libucrtd:per_thread_data.obj
 0001:000192e0       ??0<lambda_2d41944a1d46af3157314b8a01080d33>@@QEAA@AEBW4__acrt_lock_id@@@Z 000000014001a2e0 f   libucrtd:per_thread_data.obj
 0001:000192e0       ??0<lambda_6992ecaafeb10aed2b74cb1fae11a551>@@QEAA@AEBW4__acrt_lock_id@@@Z 000000014001a2e0 f   libucrtd:per_thread_data.obj
 0001:000192e0       ??0<lambda_74a0ef281e44d15e1136f792f539efb3>@@QEAA@AEBW4__acrt_lock_id@@@Z 000000014001a2e0 f   libucrtd:per_thread_data.obj
 0001:000192e0       ??0<lambda_aa500f224e6afead328df44964fe2772>@@QEAA@AEBW4__acrt_lock_id@@@Z 000000014001a2e0 f   libucrtd:per_thread_data.obj
 0001:000192e0       ??0<lambda_aa87e3671a710a21b5dc78c0bdf72e11>@@QEAA@AEBW4__acrt_lock_id@@@Z 000000014001a2e0 f   libucrtd:per_thread_data.obj
 0001:000192e0       ??0<lambda_dc504788e8f1664fe9b84e20bfb512f2>@@QEAA@AEBW4__acrt_lock_id@@@Z 000000014001a2e0 f   libucrtd:per_thread_data.obj
 0001:000192e0       ??0<lambda_38119f0e861e05405d8a144b9b982f0a>@@QEAA@AEBW4__acrt_lock_id@@@Z 000000014001a2e0 f   libucrtd:wsetlocale.obj
 0001:000192e0       ??0<lambda_410d79af7f07d98d83a3f525b3859a53>@@QEAA@AEBW4__acrt_lock_id@@@Z 000000014001a2e0 f   libucrtd:wsetlocale.obj
 0001:000192e0       ??0<lambda_19eaff14c5fe7be5b1b106a862eb1091>@@QEAA@AEBH@Z 000000014001a2e0 f   libucrtd:close.obj
 0001:000192e0       ??0<lambda_3ce37f5b621ab310299ea5f68cbdf3bb>@@QEAA@AEBH@Z 000000014001a2e0 f   libucrtd:close.obj
 0001:000192e0       ??0<lambda_7d29013d608e9f25a034de83c9b9e983>@@QEAA@AEBH@Z 000000014001a2e0 f   libucrtd:commit.obj
 0001:000192e0       ??0<lambda_b869e5a4e1069fcb5c3da79c0d999133>@@QEAA@AEBH@Z 000000014001a2e0 f   libucrtd:commit.obj
 0001:000192e0       ??0<lambda_728235dc0fc2b1f82d1fa5b3e7102d8f>@@QEAA@AEBW4__acrt_lock_id@@@Z 000000014001a2e0 f   libucrtd:mbctype.obj
 0001:000192e0       ??0<lambda_efa02eb69bf647d2f7ff0dd6f1103f72>@@QEAA@AEBW4__acrt_lock_id@@@Z 000000014001a2e0 f   libucrtd:mbctype.obj
 0001:000192e0       ??0<lambda_450d765d439847d4c735a33c368b5fc0>@@QEAA@AEBW4__acrt_lock_id@@@Z 000000014001a2e0 f   libucrtd:signal.obj
 0001:000192e0       ??0<lambda_601a2a7da3b7a96e9554ac7215c4b07c>@@QEAA@AEBW4__acrt_lock_id@@@Z 000000014001a2e0 f   libucrtd:signal.obj
 0001:000192e0       ??0<lambda_2358e3775559c9db80273638284d5e45>@@QEAA@AEBW4__acrt_lock_id@@@Z 000000014001a2e0 f   libucrtd:exit.obj
 0001:000192e0       ??0<lambda_d80eeec6fff315bfe5c115232f3240e3>@@QEAA@AEBW4__acrt_lock_id@@@Z 000000014001a2e0 f   libucrtd:exit.obj
 0001:000192e0       ??0<lambda_6a47f4c8fd0152770a780fc1d70204eb>@@QEAA@AEBW4__acrt_lock_id@@@Z 000000014001a2e0 f   libucrtd:onexit.obj
 0001:000192e0       ??0<lambda_6aaa2265f5b6a89667e7d7630012e97a>@@QEAA@AEBW4__acrt_lock_id@@@Z 000000014001a2e0 f   libucrtd:onexit.obj
 0001:000192e0       ??0<lambda_80060f20ac3990516b753a27f211934c>@@QEAA@AEBW4__acrt_lock_id@@@Z 000000014001a2e0 f   libucrtd:onexit.obj
 0001:000192e0       ??0<lambda_fd91b99c0687e8936f1d70d7d9b78e69>@@QEAA@AEBW4__acrt_lock_id@@@Z 000000014001a2e0 f   libucrtd:onexit.obj
 0001:000192e0       ??0<lambda_886d6c58226a84441f68b9f2b8217b83>@@QEAA@AEBW4__acrt_lock_id@@@Z 000000014001a2e0 f   libucrtd:fflush.obj
 0001:000192e0       ??0<lambda_f7f22ab5edc0698d5f6905b0d3f44752>@@QEAA@AEBW4__acrt_lock_id@@@Z 000000014001a2e0 f   libucrtd:fflush.obj
 0001:00019300       ??0<lambda_6e4b09c48022b2350581041d5f6b0c4c>@@QEAA@AEBW4_crt_exit_cleanup_mode@@AEBW4_crt_exit_return_mode@@AEA_N@Z 000000014001a300 f   libucrtd:exit.obj
 0001:00019300       ??0<lambda_ab61a845afdef5b7c387490eaf3616ee>@@QEAA@AEAHAEB_N0@Z 000000014001a300 f   libucrtd:fflush.obj
 0001:00019370       ??R<lambda_04ddeca75b7c13fd67716e8dfcef87ee>@@QEBAXXZ 000000014001a370 f   libucrtd:per_thread_data.obj
 0001:00019370       ??R<lambda_6992ecaafeb10aed2b74cb1fae11a551>@@QEBAXXZ 000000014001a370 f   libucrtd:per_thread_data.obj
 0001:00019370       ??R<lambda_aa500f224e6afead328df44964fe2772>@@QEBAXXZ 000000014001a370 f   libucrtd:per_thread_data.obj
 0001:00019370       ??R<lambda_dc504788e8f1664fe9b84e20bfb512f2>@@QEBAXXZ 000000014001a370 f   libucrtd:per_thread_data.obj
 0001:00019370       ??R<lambda_38119f0e861e05405d8a144b9b982f0a>@@QEBAXXZ 000000014001a370 f   libucrtd:wsetlocale.obj
 0001:00019370       ??R<lambda_728235dc0fc2b1f82d1fa5b3e7102d8f>@@QEBAXXZ 000000014001a370 f   libucrtd:mbctype.obj
 0001:00019370       ??R<lambda_601a2a7da3b7a96e9554ac7215c4b07c>@@QEBAXXZ 000000014001a370 f   libucrtd:signal.obj
 0001:00019370       ??R<lambda_2358e3775559c9db80273638284d5e45>@@QEBAXXZ 000000014001a370 f   libucrtd:exit.obj
 0001:00019370       ??R<lambda_6aaa2265f5b6a89667e7d7630012e97a>@@QEBAXXZ 000000014001a370 f   libucrtd:onexit.obj
 0001:00019370       ??R<lambda_fd91b99c0687e8936f1d70d7d9b78e69>@@QEBAXXZ 000000014001a370 f   libucrtd:onexit.obj
 0001:00019370       ??R<lambda_f7f22ab5edc0698d5f6905b0d3f44752>@@QEBAXXZ 000000014001a370 f   libucrtd:fflush.obj
 0001:00019390       ??R<lambda_6e4b09c48022b2350581041d5f6b0c4c>@@QEBA@XZ 000000014001a390 f   libucrtd:exit.obj
 0001:000194b0       ??R<lambda_0ae27a3a962d80f24befdcbee591983d>@@QEBAXXZ 000000014001a4b0 f   libucrtd:per_thread_data.obj
 0001:000194b0       ??R<lambda_2d41944a1d46af3157314b8a01080d33>@@QEBAXXZ 000000014001a4b0 f   libucrtd:per_thread_data.obj
 0001:000194b0       ??R<lambda_74a0ef281e44d15e1136f792f539efb3>@@QEBAXXZ 000000014001a4b0 f   libucrtd:per_thread_data.obj
 0001:000194b0       ??R<lambda_aa87e3671a710a21b5dc78c0bdf72e11>@@QEBAXXZ 000000014001a4b0 f   libucrtd:per_thread_data.obj
 0001:000194b0       ??R<lambda_410d79af7f07d98d83a3f525b3859a53>@@QEBAXXZ 000000014001a4b0 f   libucrtd:wsetlocale.obj
 0001:000194b0       ??R<lambda_efa02eb69bf647d2f7ff0dd6f1103f72>@@QEBAXXZ 000000014001a4b0 f   libucrtd:mbctype.obj
 0001:000194b0       ??R<lambda_450d765d439847d4c735a33c368b5fc0>@@QEBAXXZ 000000014001a4b0 f   libucrtd:signal.obj
 0001:000194b0       ??R<lambda_d80eeec6fff315bfe5c115232f3240e3>@@QEBAXXZ 000000014001a4b0 f   libucrtd:exit.obj
 0001:000194b0       ??R<lambda_6a47f4c8fd0152770a780fc1d70204eb>@@QEBAXXZ 000000014001a4b0 f   libucrtd:onexit.obj
 0001:000194b0       ??R<lambda_80060f20ac3990516b753a27f211934c>@@QEBAXXZ 000000014001a4b0 f   libucrtd:onexit.obj
 0001:000194b0       ??R<lambda_886d6c58226a84441f68b9f2b8217b83>@@QEBAXXZ 000000014001a4b0 f   libucrtd:fflush.obj
 0001:00019500       ?atexit_exception_filter@@YAHK@Z 000000014001a500 f   libucrtd:exit.obj
 0001:000195a0       ?common_exit@@YAXHW4_crt_exit_cleanup_mode@@W4_crt_exit_return_mode@@@Z 000000014001a5a0 f   libucrtd:exit.obj
 0001:00019640       ?exit_or_terminate_process@@YAXI@Z 000000014001a640 f   libucrtd:exit.obj
 0001:00019680       ?is_managed_app@@YA_NXZ    000000014001a680 f   libucrtd:exit.obj
 0001:00019730       ?should_call_terminate_process@@YA_NXZ 000000014001a730 f   libucrtd:exit.obj
 0001:00019790       ?try_cor_exit_process@@YAXI@Z 000000014001a790 f   libucrtd:exit.obj
 0001:00019a40       ??$?RV<lambda_410d79af7f07d98d83a3f525b3859a53>@@AEAV<lambda_3e16ef9562a7dcce91392c22ab16ea36>@@V<lambda_38119f0e861e05405d8a144b9b982f0a>@@@?$__crt_seh_guarded_call@X@@QEAAX$$QEAV<lambda_410d79af7f07d98d83a3f525b3859a53>@@AEAV<lambda_3e16ef9562a7dcce91392c22ab16ea36>@@$$QEAV<lambda_38119f0e861e05405d8a144b9b982f0a>@@@Z 000000014001aa40 f   libucrtd:wsetlocale.obj
 0001:00019a80       ??$__acrt_lock_and_call@V<lambda_3e16ef9562a7dcce91392c22ab16ea36>@@@@YAXW4__acrt_lock_id@@$$QEAV<lambda_3e16ef9562a7dcce91392c22ab16ea36>@@@Z 000000014001aa80 f   libucrtd:wsetlocale.obj
 0001:00019ae0       ??$uninitialize@V<lambda_363eea9039da1e8169e2d060c7fe5cbc>@@@?$dual_state_global@PEAU__crt_locale_data@@@__crt_state_management@@QEAAX$$QEAV<lambda_363eea9039da1e8169e2d060c7fe5cbc>@@@Z 000000014001aae0 f   libucrtd:wsetlocale.obj
 0001:00019b40       ??R<lambda_363eea9039da1e8169e2d060c7fe5cbc>@@QEBAXAEAPEAU__crt_locale_data@@@Z 000000014001ab40 f   libucrtd:wsetlocale.obj
 0001:00019b80       ??R<lambda_3e16ef9562a7dcce91392c22ab16ea36>@@QEBA@XZ 000000014001ab80 f   libucrtd:wsetlocale.obj
 0001:00019ea0       ??$?RV<lambda_6a47f4c8fd0152770a780fc1d70204eb>@@AEAV<lambda_d121dba8a4adeaf3a9819e48611155df>@@V<lambda_6aaa2265f5b6a89667e7d7630012e97a>@@@?$__crt_seh_guarded_call@H@@QEAAH$$QEAV<lambda_6a47f4c8fd0152770a780fc1d70204eb>@@AEAV<lambda_d121dba8a4adeaf3a9819e48611155df>@@$$QEAV<lambda_6aaa2265f5b6a89667e7d7630012e97a>@@@Z 000000014001aea0 f   libucrtd:onexit.obj
 0001:00019ef0       ??$?RV<lambda_80060f20ac3990516b753a27f211934c>@@AEAV<lambda_208ce30acdd7200aa596f2796f4d5154>@@V<lambda_fd91b99c0687e8936f1d70d7d9b78e69>@@@?$__crt_seh_guarded_call@H@@QEAAH$$QEAV<lambda_80060f20ac3990516b753a27f211934c>@@AEAV<lambda_208ce30acdd7200aa596f2796f4d5154>@@$$QEAV<lambda_fd91b99c0687e8936f1d70d7d9b78e69>@@@Z 000000014001aef0 f   libucrtd:onexit.obj
 0001:00019f40       ??$__acrt_lock_and_call@V<lambda_208ce30acdd7200aa596f2796f4d5154>@@@@YAHW4__acrt_lock_id@@$$QEAV<lambda_208ce30acdd7200aa596f2796f4d5154>@@@Z 000000014001af40 f   libucrtd:onexit.obj
 0001:00019fa0       ??$__acrt_lock_and_call@V<lambda_d121dba8a4adeaf3a9819e48611155df>@@@@YAHW4__acrt_lock_id@@$$QEAV<lambda_d121dba8a4adeaf3a9819e48611155df>@@@Z 000000014001afa0 f   libucrtd:onexit.obj
 0001:0001a000       ??R<lambda_208ce30acdd7200aa596f2796f4d5154>@@QEBAHXZ 000000014001b000 f   libucrtd:onexit.obj
 0001:0001a340       ??R<lambda_d121dba8a4adeaf3a9819e48611155df>@@QEBAHXZ 000000014001b340 f   libucrtd:onexit.obj
 0001:0001a6a0       initialize_global_variables 000000014001b6a0 f   libucrtd:initialization.obj
 0001:0001a6c0       initialize_c               000000014001b6c0 f   libucrtd:initialization.obj
 0001:0001a6f0       uninitialize_c             000000014001b6f0 f   libucrtd:initialization.obj
 0001:0001a6f0       uninitialize_global_state_isolation 000000014001b6f0 f   libucrtd:initialization.obj
 0001:0001a700       uninitialize_environment   000000014001b700 f   libucrtd:initialization.obj
 0001:0001a730       initialize_pointers        000000014001b730 f   libucrtd:initialization.obj
 0001:0001a790       uninitialize_vcruntime     000000014001b790 f   libucrtd:initialization.obj
 0001:0001a7b0       uninitialize_allocated_memory 000000014001b7b0 f   libucrtd:initialization.obj
 0001:0001a7f0       uninitialize_allocated_io_buffers 000000014001b7f0 f   libucrtd:initialization.obj
 0001:0001a870       report_memory_leaks        000000014001b870 f   libucrtd:initialization.obj
 0001:0001a8a0       ??$uninitialize@V<lambda_af27fe6ede5d83bbdbd622796c194e9c>@@@?$dual_state_global@PEAU__crt_multibyte_data@@@__crt_state_management@@QEAAX$$QEAV<lambda_af27fe6ede5d83bbdbd622796c194e9c>@@@Z 000000014001b8a0 f   libucrtd:initialization.obj
 0001:0001a900       ??R<lambda_af27fe6ede5d83bbdbd622796c194e9c>@@QEBAXAEAPEAU__crt_multibyte_data@@@Z 000000014001b900 f   libucrtd:initialization.obj
 0001:0001ab70       ?block_from_header@@YAPEAEQEAU_CrtMemBlockHeader@@@Z 000000014001bb70 f   libucrtd:debug_heap.obj
 0001:0001ab80       ?check_block@@YA_NQEAU_CrtMemBlockHeader@@@Z 000000014001bb80 f   libucrtd:debug_heap.obj
 0001:0001b0f0       ?check_bytes@@YA_NQEBEE_K@Z 000000014001c0f0 f   libucrtd:debug_heap.obj
 0001:0001b160       ?dump_all_object_since_nolock@@YAXQEBU_CrtMemState@@@Z 000000014001c160 f   libucrtd:debug_heap.obj
 0001:0001b5e0       ?free_dbg_nolock@@YAXQEAXH@Z 000000014001c5e0 f   libucrtd:debug_heap.obj
 0001:0001bd60       ?header_from_block@@YAPEAU_CrtMemBlockHeader@@QEBX@Z 000000014001cd60 f   libucrtd:debug_heap.obj
 0001:0001bd70       ?heap_alloc_dbg@@YAPEAX_KHQEBDH@Z 000000014001cd70 f   libucrtd:debug_heap.obj
 0001:0001be10       ?heap_alloc_dbg_internal@@YAPEAX_KHQEBDH@Z 000000014001ce10 f   libucrtd:debug_heap.obj
 0001:0001c260       ?is_bad_read_pointer@@YA_NQEBX_K@Z 000000014001d260 f   libucrtd:debug_heap.obj
 0001:0001c370       ?is_block_an_aligned_allocation@@YA_NQEBX@Z 000000014001d370 f   libucrtd:debug_heap.obj
 0001:0001c3b0       ?is_block_type_valid@@YA_NH@Z 000000014001d3b0 f   libucrtd:debug_heap.obj
 0001:0001c400       ?print_block_data@@YAXQEAU__crt_locale_pointers@@QEAU_CrtMemBlockHeader@@@Z 000000014001d400 f   libucrtd:debug_heap.obj
 0001:0001c630       ?realloc_dbg_nolock@@YAPEAXQEAXQEA_KHQEBDH_N@Z 000000014001d630 f   libucrtd:debug_heap.obj
 0001:0001ce70       ?validate_heap_if_required_nolock@@YAXXZ 000000014001de70 f   libucrtd:debug_heap.obj
 0001:0001dc00       ??$common_tcscpy_s@D@@YAHQEAD_KQEBD@Z 000000014001ec00 f   libucrtd:strcpy_s.obj
 0001:0001e110       $$000000                   000000014001f110     libucrtd:strcmp.obj
 0001:0001e190       $$000000                   000000014001f190     libucrtd:strlen.obj
 0001:0001e330       ?capture_current_context@@YAXQEAU_CONTEXT@@@Z 000000014001f330 f   libucrtd:invalid_parameter.obj
 0001:0001e880       ??$common_message_window@D@@YAHHQEAXQEBD111@Z 000000014001f880 f   libucrtd:dbgrpt.obj
 0001:0001ef50       ??$common_message_window@_W@@YAHHQEAXQEB_W111@Z 000000014001ff50 f   libucrtd:dbgrpt.obj
 0001:0001f750       ?get_output_message_format@@YAPEB_WD@Z 0000000140020750 f   libucrtd:dbgrpt.obj
 0001:0001f760       ?get_output_message_format@@YAPEB_W_W@Z 0000000140020760 f   libucrtd:dbgrpt.obj
 0001:0001f770       ?get_program_name_unknown_text@@YAPEBDD@Z 0000000140020770 f   libucrtd:dbgrpt.obj
 0001:0001f780       ?get_program_name_unknown_text@@YAPEB_W_W@Z 0000000140020780 f   libucrtd:dbgrpt.obj
 0001:0001fa20       $$000000                   0000000140020a20     libucrtd:strncmp.obj
 0001:0001fd40       ??$common_strnlen@$00G@@YA_KQEBG_K@Z 0000000140020d40 f   libucrtd:strnlen.obj
 0001:0001fda0       ??$common_strnlen@$0A@E@@YA_KQEBE_K@Z 0000000140020da0 f   libucrtd:strnlen.obj
 0001:0001fe00       ??$common_strnlen@$0A@G@@YA_KQEBG_K@Z 0000000140020e00 f   libucrtd:strnlen.obj
 0001:0001fe60       ??$common_strnlen_c@$00G@@YA_KQEBG_K@Z 0000000140020e60 f   libucrtd:strnlen.obj
 0001:0001fee0       ??$common_strnlen_c@$0A@E@@YA_KQEBE_K@Z 0000000140020ee0 f   libucrtd:strnlen.obj
 0001:0001ff60       ??$common_strnlen_c@$0A@G@@YA_KQEBG_K@Z 0000000140020f60 f   libucrtd:strnlen.obj
 0001:0001ffe0       ??$common_strnlen_simd@$00$00G@@YA_KQEBG_K@Z 0000000140020fe0 f   libucrtd:strnlen.obj
 0001:00020280       ??$common_strnlen_simd@$00$0A@G@@YA_KQEBG_K@Z 0000000140021280 f   libucrtd:strnlen.obj
 0001:00020570       ??$common_strnlen_simd@$0A@$00E@@YA_KQEBE_K@Z 0000000140021570 f   libucrtd:strnlen.obj
 0001:000207f0       ??$common_strnlen_simd@$0A@$00G@@YA_KQEBG_K@Z 00000001400217f0 f   libucrtd:strnlen.obj
 0001:00020a90       ??$common_strnlen_simd@$0A@$0A@E@@YA_KQEBE_K@Z 0000000140021a90 f   libucrtd:strnlen.obj
 0001:00020d60       ??$common_strnlen_simd@$0A@$0A@G@@YA_KQEBG_K@Z 0000000140021d60 f   libucrtd:strnlen.obj
 0001:00021050       ??$last_reached@$00@@YA_NQEBX0@Z 0000000140022050 f   libucrtd:strnlen.obj
 0001:00021060       ??$last_reached@$0A@@@YA_NQEBX0@Z 0000000140022060 f   libucrtd:strnlen.obj
 0001:000215b0       ?fe_to_nearest@@YA_NQEBN_KF@Z 00000001400225b0 f   libucrtd:cvt.obj
 0001:00021700       ?fp_format_a@@YAHQEBNPEAD_KQEAD2H_NIW4__acrt_rounding_mode@@AEAV__crt_cached_ptd_host@@@Z 0000000140022700 f   libucrtd:cvt.obj
 0001:00021f50       ?fp_format_e@@YAHQEBNQEAD_K12H_NIW4__acrt_rounding_mode@@AEAV__crt_cached_ptd_host@@@Z 0000000140022f50 f   libucrtd:cvt.obj
 0001:00022130       ?fp_format_e_internal@@YAHQEAD_KH_NIQEAU_strflt@@2AEAV__crt_cached_ptd_host@@@Z 0000000140023130 f   libucrtd:cvt.obj
 0001:00022560       ?fp_format_f@@YAHQEBNQEAD_K12HW4__acrt_rounding_mode@@AEAV__crt_cached_ptd_host@@@Z 0000000140023560 f   libucrtd:cvt.obj
 0001:000226f0       ?fp_format_f_internal@@YAHQEAD_KHQEAU_strflt@@_NAEAV__crt_cached_ptd_host@@@Z 00000001400236f0 f   libucrtd:cvt.obj
 0001:00022930       ?fp_format_g@@YAHQEBNQEAD_K12H_NIW4__acrt_rounding_mode@@AEAV__crt_cached_ptd_host@@@Z 0000000140023930 f   libucrtd:cvt.obj
 0001:00022b90       ?fp_format_nan_or_infinity@@YAHW4__acrt_fp_class@@_NPEAD_K1@Z 0000000140023b90 f   libucrtd:cvt.obj
 0001:00022d00       ?shift_bytes@@YAXQEAD_K0H@Z 0000000140023d00 f   libucrtd:cvt.obj
 0001:00022d50       ?should_round_up@@YA_NQEBN_KFW4__acrt_rounding_mode@@@Z 0000000140023d50 f   libucrtd:cvt.obj
 0001:00023518       $LN42                      0000000140024518     libucrtd:cvt.obj
 0001:0002352c       $LN41                      000000014002452c     libucrtd:cvt.obj
 0001:00024400       ??$?RV<lambda_0ae27a3a962d80f24befdcbee591983d>@@AEAV<lambda_8d0ee55de4b1038c4002e0adecdf1839>@@V<lambda_dc504788e8f1664fe9b84e20bfb512f2>@@@?$__crt_seh_guarded_call@X@@QEAAX$$QEAV<lambda_0ae27a3a962d80f24befdcbee591983d>@@AEAV<lambda_8d0ee55de4b1038c4002e0adecdf1839>@@$$QEAV<lambda_dc504788e8f1664fe9b84e20bfb512f2>@@@Z 0000000140025400 f   libucrtd:per_thread_data.obj
 0001:00024440       ??$?RV<lambda_2d41944a1d46af3157314b8a01080d33>@@AEAV<lambda_8f455de75cd7d7f24b4096f044d8b9e6>@@V<lambda_aa500f224e6afead328df44964fe2772>@@@?$__crt_seh_guarded_call@X@@QEAAX$$QEAV<lambda_2d41944a1d46af3157314b8a01080d33>@@AEAV<lambda_8f455de75cd7d7f24b4096f044d8b9e6>@@$$QEAV<lambda_aa500f224e6afead328df44964fe2772>@@@Z 0000000140025440 f   libucrtd:per_thread_data.obj
 0001:00024480       ??$?RV<lambda_74a0ef281e44d15e1136f792f539efb3>@@AEAV<lambda_e157831efee4ea0afb0a2ace5dd5fd0d>@@V<lambda_04ddeca75b7c13fd67716e8dfcef87ee>@@@?$__crt_seh_guarded_call@X@@QEAAX$$QEAV<lambda_74a0ef281e44d15e1136f792f539efb3>@@AEAV<lambda_e157831efee4ea0afb0a2ace5dd5fd0d>@@$$QEAV<lambda_04ddeca75b7c13fd67716e8dfcef87ee>@@@Z 0000000140025480 f   libucrtd:per_thread_data.obj
 0001:000244c0       ??$?RV<lambda_aa87e3671a710a21b5dc78c0bdf72e11>@@AEAV<lambda_92619d2358a28f41a33ba319515a20b9>@@V<lambda_6992ecaafeb10aed2b74cb1fae11a551>@@@?$__crt_seh_guarded_call@X@@QEAAX$$QEAV<lambda_aa87e3671a710a21b5dc78c0bdf72e11>@@AEAV<lambda_92619d2358a28f41a33ba319515a20b9>@@$$QEAV<lambda_6992ecaafeb10aed2b74cb1fae11a551>@@@Z 00000001400254c0 f   libucrtd:per_thread_data.obj
 0001:00024500       ??$__acrt_lock_and_call@V<lambda_8d0ee55de4b1038c4002e0adecdf1839>@@@@YAXW4__acrt_lock_id@@$$QEAV<lambda_8d0ee55de4b1038c4002e0adecdf1839>@@@Z 0000000140025500 f   libucrtd:per_thread_data.obj
 0001:00024560       ??$__acrt_lock_and_call@V<lambda_8f455de75cd7d7f24b4096f044d8b9e6>@@@@YAXW4__acrt_lock_id@@$$QEAV<lambda_8f455de75cd7d7f24b4096f044d8b9e6>@@@Z 0000000140025560 f   libucrtd:per_thread_data.obj
 0001:000245c0       ??$__acrt_lock_and_call@V<lambda_92619d2358a28f41a33ba319515a20b9>@@@@YAXW4__acrt_lock_id@@$$QEAV<lambda_92619d2358a28f41a33ba319515a20b9>@@@Z 00000001400255c0 f   libucrtd:per_thread_data.obj
 0001:00024620       ??$__acrt_lock_and_call@V<lambda_e157831efee4ea0afb0a2ace5dd5fd0d>@@@@YAXW4__acrt_lock_id@@$$QEAV<lambda_e157831efee4ea0afb0a2ace5dd5fd0d>@@@Z 0000000140025620 f   libucrtd:per_thread_data.obj
 0001:00024680       ??R<lambda_8d0ee55de4b1038c4002e0adecdf1839>@@QEBAXXZ 0000000140025680 f   libucrtd:per_thread_data.obj
 0001:000246a0       ??R<lambda_8f455de75cd7d7f24b4096f044d8b9e6>@@QEBAXXZ 00000001400256a0 f   libucrtd:per_thread_data.obj
 0001:000246c0       ??R<lambda_92619d2358a28f41a33ba319515a20b9>@@QEBAXXZ 00000001400256c0 f   libucrtd:per_thread_data.obj
 0001:000246f0       ??R<lambda_e157831efee4ea0afb0a2ace5dd5fd0d>@@QEBAXXZ 00000001400256f0 f   libucrtd:per_thread_data.obj
 0001:00024760       ?construct_ptd@@YAXQEAU__acrt_ptd@@QEAPEAU__crt_locale_data@@@Z 0000000140025760 f   libucrtd:per_thread_data.obj
 0001:00024840       ?construct_ptd_array@@YAXQEAU__acrt_ptd@@@Z 0000000140025840 f   libucrtd:per_thread_data.obj
 0001:000248b0       ?destroy_fls@@YAXPEAX@Z    00000001400258b0 f   libucrtd:per_thread_data.obj
 0001:000248f0       ?destroy_ptd@@YAXQEAU__acrt_ptd@@@Z 00000001400258f0 f   libucrtd:per_thread_data.obj
 0001:00024a20       ?destroy_ptd_array@@YAXQEAU__acrt_ptd@@@Z 0000000140025a20 f   libucrtd:per_thread_data.obj
 0001:00024a70       ?internal_get_ptd_head@@YAPEAU__acrt_ptd@@XZ 0000000140025a70 f   libucrtd:per_thread_data.obj
 0001:00024bc0       ?internal_getptd_noexit@@YAPEAU__acrt_ptd@@AEBV__crt_scoped_get_last_error_reset@@_K@Z 0000000140025bc0 f   libucrtd:per_thread_data.obj
 0001:00024c00       ?internal_getptd_noexit@@YAPEAU__acrt_ptd@@XZ 0000000140025c00 f   libucrtd:per_thread_data.obj
 0001:00024c40       ?replace_current_thread_locale_nolock@@YAXQEAU__acrt_ptd@@QEAU__crt_locale_data@@@Z 0000000140025c40 f   libucrtd:per_thread_data.obj
 0001:00024d00       ?try_get_ptd_head@@YAPEAU__acrt_ptd@@XZ 0000000140025d00 f   libucrtd:per_thread_data.obj
 0001:00024e50       ?get_std_handle_id@@YAKH@Z 0000000140025e50 f   libucrtd:ioinit.obj
 0001:00024ea0       ?initialize_inherited_file_handles_nolock@@YAXXZ 0000000140025ea0 f   libucrtd:ioinit.obj
 0001:00025050       ?initialize_stdio_handles_nolock@@YAXXZ 0000000140026050 f   libucrtd:ioinit.obj
 0001:000253c0       ??$common_tcscat_s@_W@@YAHQEA_W_KQEB_W@Z 00000001400263c0 f   libucrtd:wcscat_s.obj
 0001:00025a80       ??$common_tcscpy_s@_W@@YAHQEA_W_KQEB_W@Z 0000000140026a80 f   libucrtd:wcscpy_s.obj
 0001:00025fb0       ??$common_tcsncpy_s@_W@@YAHQEA_W_KQEB_W1@Z 0000000140026fb0 f   libucrtd:wcsncpy_s.obj
 0001:000266a0       ??$common_show_message_box@_W@@YAHQEB_W0I@Z 00000001400276a0 f   libucrtd:crtmbox.obj
 0001:00026880       ?<lambda_invoker_cdecl>@<lambda_a1ce4c8ae42411fd470c77163914f50e>@@CAHPEBX0@Z 0000000140027880 f   libucrtd:argv_wildcards.obj
 0001:00026cb0       ??$common_expand_argv_wildcards@D@@YAHQEAPEADQEAPEAPEAD@Z 0000000140027cb0 f   libucrtd:argv_wildcards.obj
 0001:000270e0       ??$copy_and_add_argument_to_buffer@D@@YAHQEBD0_KAEAV?$argument_list@D@?A0x5f5c8891@@@Z 00000001400280e0 f   libucrtd:argv_wildcards.obj
 0001:00027290       ??$expand_argument_wildcards@D@@YAHQEAD0AEAV?$argument_list@D@?A0x5f5c8891@@@Z 0000000140028290 f   libucrtd:argv_wildcards.obj
 0001:00027780       ??0?$argument_list@D@?A0x5f5c8891@@QEAA@XZ 0000000140028780 f   libucrtd:argv_wildcards.obj
 0001:00027810       ??1?$argument_list@D@?A0x5f5c8891@@QEAA@XZ 0000000140028810 f   libucrtd:argv_wildcards.obj
 0001:00027880       ??B<lambda_a1ce4c8ae42411fd470c77163914f50e>@@QEBAP6AHPEBX0@ZXZ 0000000140028880 f   libucrtd:argv_wildcards.obj
 0001:000278e0       ??R<lambda_a1ce4c8ae42411fd470c77163914f50e>@@QEBAHPEBX0@Z 00000001400288e0 f   libucrtd:argv_wildcards.obj
 0001:00027920       ??R<lambda_cfae5a0e6efa98e0d1aa03c4cec8f74e>@@QEBA_ND@Z 0000000140028920 f   libucrtd:argv_wildcards.obj
 0001:00027c30       ?append@?$argument_list@D@?A0x5f5c8891@@QEAAHQEAD@Z 0000000140028c30 f   libucrtd:argv_wildcards.obj
 0001:00027d70       ?end@?$argument_list@D@?A0x5f5c8891@@QEBAPEAPEADXZ 0000000140028d70 f   libucrtd:argv_wildcards.obj
 0001:00027d80       ?expand_if_necessary@?$argument_list@D@?A0x5f5c8891@@AEAAHXZ 0000000140028d80 f   libucrtd:argv_wildcards.obj
 0001:00027f60       ?get_file_name@@YAPEADQEAV?$__crt_win32_buffer@DU__crt_win32_buffer_internal_dynamic_resizing@@@@QEA_W@Z 0000000140028f60 f   libucrtd:argv_wildcards.obj
 0001:00027fb0       ?get_wide@@YAPEA_WQEAV?$__crt_win32_buffer@_WU__crt_win32_buffer_internal_dynamic_resizing@@@@QEAD@Z 0000000140028fb0 f   libucrtd:argv_wildcards.obj
 0001:00028000       ?previous_character@@YAPEADQEAD0@Z 0000000140029000 f   libucrtd:argv_wildcards.obj
 0001:00028090       ?size@?$argument_list@D@?A0x5f5c8891@@QEBA_KXZ 0000000140029090 f   libucrtd:argv_wildcards.obj
 0001:000285f0       ??$?RV<lambda_efa02eb69bf647d2f7ff0dd6f1103f72>@@AEAV<lambda_bd5a608237428601b7e45fbdc72b1ae8>@@V<lambda_728235dc0fc2b1f82d1fa5b3e7102d8f>@@@?$__crt_seh_guarded_call@X@@QEAAX$$QEAV<lambda_efa02eb69bf647d2f7ff0dd6f1103f72>@@AEAV<lambda_bd5a608237428601b7e45fbdc72b1ae8>@@$$QEAV<lambda_728235dc0fc2b1f82d1fa5b3e7102d8f>@@@Z 00000001400295f0 f   libucrtd:mbctype.obj
 0001:00028630       ??$__acrt_lock_and_call@V<lambda_bd5a608237428601b7e45fbdc72b1ae8>@@@@YAXW4__acrt_lock_id@@$$QEAV<lambda_bd5a608237428601b7e45fbdc72b1ae8>@@@Z 0000000140029630 f   libucrtd:mbctype.obj
 0001:00028770       ??R<lambda_bd5a608237428601b7e45fbdc72b1ae8>@@QEBAXXZ 0000000140029770 f   libucrtd:mbctype.obj
 0001:000288a0       ?CPtoLocaleName@@YAPEB_WH@Z 00000001400298a0 f   libucrtd:mbctype.obj
 0001:00028940       ?getSystemCP@@YAHH@Z       0000000140029940 f   libucrtd:mbctype.obj
 0001:00028a20       ?setSBCS@@YAXPEAU__crt_multibyte_data@@@Z 0000000140029a20 f   libucrtd:mbctype.obj
 0001:00028b20       ?setSBUpLow@@YAXPEAU__crt_multibyte_data@@@Z 0000000140029b20 f   libucrtd:mbctype.obj
 0001:00028f10       ?setmbcp_internal@@YAHH_NQEAU__acrt_ptd@@QEAPEAU__crt_multibyte_data@@@Z 0000000140029f10 f   libucrtd:mbctype.obj
 0001:00029190       ?update_thread_multibyte_data_internal@@YAPEAU__crt_multibyte_data@@QEAU__acrt_ptd@@QEAPEAU1@@Z 000000014002a190 f   libucrtd:mbctype.obj
 0001:000298a0       memcpy_s                   000000014002a8a0 f   libucrtd:cfout.obj
 0001:000298a0       memcpy_s                   000000014002a8a0 f   libucrtd:mbctype.obj
 0001:000299e0       ?x_ismbbtype_l@@YAHPEAU__crt_locale_pointers@@IHH@Z 000000014002a9e0 f   libucrtd:ismbbyte.obj
 0001:00029b00       ?filter_mbtowcs_flags@@YAKIK@Z 000000014002ab00 f   libucrtd:multibytetowidechar.obj
 0001:00029c00       ?filter_wcstomb_flags@@YAKIK@Z 000000014002ac00 f   libucrtd:widechartomultibyte.obj
 0001:00029dd0       ??1?$__crt_unique_handle_t@Uenvironment_strings_traits@?A0x1bf47908@@@@QEAA@XZ 000000014002add0 f   libucrtd:get_environment_from_os.obj
 0001:00029df0       ?close@?$__crt_unique_handle_t@Uenvironment_strings_traits@?A0x1bf47908@@@@QEAAXXZ 000000014002adf0 f   libucrtd:get_environment_from_os.obj
 0001:00029e30       ?close@environment_strings_traits@?A0x1bf47908@@SA_NPEA_W@Z 000000014002ae30 f   libucrtd:get_environment_from_os.obj
 0001:00029e50       ?find_end_of_double_null_terminated_sequence@@YAPEB_WQEB_W@Z 000000014002ae50 f   libucrtd:get_environment_from_os.obj
 0001:00029ea0       ?is_valid@?$__crt_unique_handle_t@Uenvironment_strings_traits@?A0x1bf47908@@@@QEBA_NXZ 000000014002aea0 f   libucrtd:get_environment_from_os.obj
 0001:0002a240       ??$get_cached_win_policy@Udeveloper_information_policy_properties@?1??__acrt_get_developer_information_policy@@YA?AW4developer_information_policy@@XZ@@@YA?AW4developer_information_policy@@W4AppPolicyShowDeveloperDiagnostic@@@Z 000000014002b240 f   libucrtd:win_policies.obj
 0001:0002a310       ??$get_cached_win_policy@Uwindowing_model_policy_properties@?1??__acrt_get_windowing_model_policy@@YA?AW4windowing_model_policy@@XZ@@@YA?AW4windowing_model_policy@@W4AppPolicyWindowingModel@@@Z 000000014002b310 f   libucrtd:win_policies.obj
 0001:0002a3e0       ??$get_win_policy@Uprocess_end_policy_properties@?1??__acrt_get_process_end_policy@@YA?AW4process_end_policy@@XZ@@@YA?AW4process_end_policy@@W4AppPolicyProcessTerminationMethod@@@Z 000000014002b3e0 f   libucrtd:win_policies.obj
 0001:0002a430       ?appmodel_get_policy@developer_information_policy_properties@?1??__acrt_get_developer_information_policy@@YA?AW4developer_information_policy@@XZ@SAJPEAW4AppPolicyShowDeveloperDiagnostic@@@Z 000000014002b430 f   libucrtd:win_policies.obj
 0001:0002a450       ?appmodel_get_policy@process_end_policy_properties@?1??__acrt_get_process_end_policy@@YA?AW4process_end_policy@@XZ@SAJPEAW4AppPolicyProcessTerminationMethod@@@Z 000000014002b450 f   libucrtd:win_policies.obj
 0001:0002a470       ?appmodel_get_policy@windowing_model_policy_properties@?1??__acrt_get_windowing_model_policy@@YA?AW4windowing_model_policy@@XZ@SAJPEAW4AppPolicyWindowingModel@@@Z 000000014002b470 f   libucrtd:win_policies.obj
 0001:0002a490       ?appmodel_policy_to_policy_type@developer_information_policy_properties@?1??__acrt_get_developer_information_policy@@YA?AW4developer_information_policy@@XZ@SA?AW43@J@Z 000000014002b490 f   libucrtd:win_policies.obj
 0001:0002a4b0       ?appmodel_policy_to_policy_type@process_end_policy_properties@?1??__acrt_get_process_end_policy@@YA?AW4process_end_policy@@XZ@SA?AW43@W4AppPolicyProcessTerminationMethod@@@Z 000000014002b4b0 f   libucrtd:win_policies.obj
 0001:0002a4d0       ?appmodel_policy_to_policy_type@windowing_model_policy_properties@?1??__acrt_get_windowing_model_policy@@YA?AW4windowing_model_policy@@XZ@SA?AW43@J@Z 000000014002b4d0 f   libucrtd:win_policies.obj
 0001:0002b010       ??$free_crt_array@D$01@@YAXAEAY01PEAD@Z 000000014002c010 f   libucrtd:inittime.obj
 0001:0002b010       ??$free_crt_array@_W$01@@YAXAEAY01PEA_W@Z 000000014002c010 f   libucrtd:inittime.obj
 0001:0002b030       ??$free_crt_array@D$06@@YAXAEAY06PEAD@Z 000000014002c030 f   libucrtd:inittime.obj
 0001:0002b030       ??$free_crt_array@_W$06@@YAXAEAY06PEA_W@Z 000000014002c030 f   libucrtd:inittime.obj
 0001:0002b050       ??$free_crt_array@D$0M@@@YAXAEAY0M@PEAD@Z 000000014002c050 f   libucrtd:inittime.obj
 0001:0002b050       ??$free_crt_array@_W$0M@@@YAXAEAY0M@PEA_W@Z 000000014002c050 f   libucrtd:inittime.obj
 0001:0002b070       ?free_crt_array_internal@@YAXQEAPEBX_K@Z 000000014002c070 f   libucrtd:inittime.obj
 0001:0002c120       ?try_get_AppPolicyGetProcessTerminationMethod@@YAP6AJPEAXPEAW4AppPolicyProcessTerminationMethod@@@ZXZ 000000014002d120 f   libucrtd:winapi_thunks.obj
 0001:0002c150       ?try_get_AppPolicyGetShowDeveloperDiagnostic@@YAP6AJPEAXPEAW4AppPolicyShowDeveloperDiagnostic@@@ZXZ 000000014002d150 f   libucrtd:winapi_thunks.obj
 0001:0002c180       ?try_get_AppPolicyGetWindowingModel@@YAP6AJPEAXPEAW4AppPolicyWindowingModel@@@ZXZ 000000014002d180 f   libucrtd:winapi_thunks.obj
 0001:0002c1b0       ?try_get_AreFileApisANSI@@YAP6AHXZXZ 000000014002d1b0 f   libucrtd:winapi_thunks.obj
 0001:0002c1e0       ?try_get_GetActiveWindow@@YAP6APEAUHWND__@@XZXZ 000000014002d1e0 f   libucrtd:winapi_thunks.obj
 0001:0002c210       ?try_get_GetLastActivePopup@@YAP6APEAUHWND__@@PEAU1@@ZXZ 000000014002d210 f   libucrtd:winapi_thunks.obj
 0001:0002c240       ?try_get_GetProcessWindowStation@@YAP6APEAUHWINSTA__@@XZXZ 000000014002d240 f   libucrtd:winapi_thunks.obj
 0001:0002c270       ?try_get_GetUserObjectInformationW@@YAP6AHPEAXH0KPEAK@ZXZ 000000014002d270 f   libucrtd:winapi_thunks.obj
 0001:0002c2a0       ?try_get_InitializeCriticalSectionEx@@YAP6AHPEAU_RTL_CRITICAL_SECTION@@KK@ZXZ 000000014002d2a0 f   libucrtd:winapi_thunks.obj
 0001:0002c2d0       ?try_get_LCMapStringEx@@YAP6AHPEB_WK0HPEA_WHPEAU_nlsversioninfo@@PEAX_J@ZXZ 000000014002d2d0 f   libucrtd:winapi_thunks.obj
 0001:0002c300       ?try_get_LocaleNameToLCID@@YAP6AKPEB_WK@ZXZ 000000014002d300 f   libucrtd:winapi_thunks.obj
 0001:0002c330       ?try_get_MessageBoxA@@YAP6AHPEAUHWND__@@PEBD1I@ZXZ 000000014002d330 f   libucrtd:winapi_thunks.obj
 0001:0002c360       ?try_get_MessageBoxW@@YAP6AHPEAUHWND__@@PEB_W1I@ZXZ 000000014002d360 f   libucrtd:winapi_thunks.obj
 0001:0002c390       ?try_get_first_available_module@@YAPEAUHINSTANCE__@@QEBW4module_id@?A0x391cf84c@@0@Z 000000014002d390 f   libucrtd:winapi_thunks.obj
 0001:0002c3f0       ?try_get_function@@YAPEAXW4function_id@?A0x391cf84c@@QEBDQEBW4module_id@2@2@Z 000000014002d3f0 f   libucrtd:winapi_thunks.obj
 0001:0002c590       ?try_get_module@@YAPEAUHINSTANCE__@@W4module_id@?A0x391cf84c@@@Z 000000014002d590 f   libucrtd:winapi_thunks.obj
 0001:0002c6f0       ?try_get_proc_address_from_first_available_module@@YAPEAXQEBDQEBW4module_id@?A0x391cf84c@@1@Z 000000014002d6f0 f   libucrtd:winapi_thunks.obj
 0001:0002c740       ?try_load_library_from_system_directory@@YAPEAUHINSTANCE__@@QEB_W@Z 000000014002d740 f   libucrtd:winapi_thunks.obj
 0001:0002d210       ??$?RV<lambda_450d765d439847d4c735a33c368b5fc0>@@AEAV<lambda_44731a7d0e6d81c3e6aa82d741081786>@@V<lambda_601a2a7da3b7a96e9554ac7215c4b07c>@@@?$__crt_seh_guarded_call@P6AXH@Z@@QEAAP6AXH@Z$$QEAV<lambda_450d765d439847d4c735a33c368b5fc0>@@AEAV<lambda_44731a7d0e6d81c3e6aa82d741081786>@@$$QEAV<lambda_601a2a7da3b7a96e9554ac7215c4b07c>@@@Z 000000014002e210 f   libucrtd:signal.obj
 0001:0002d260       ??$__acrt_lock_and_call@V<lambda_44731a7d0e6d81c3e6aa82d741081786>@@@@YAP6AXH@ZW4__acrt_lock_id@@$$QEAV<lambda_44731a7d0e6d81c3e6aa82d741081786>@@@Z 000000014002e260 f   libucrtd:signal.obj
 0001:0002d2c0       ??R<lambda_44731a7d0e6d81c3e6aa82d741081786>@@QEBAP6AXH@ZXZ 000000014002e2c0 f   libucrtd:signal.obj
 0001:0002d2f0       ?get_global_action_nolock@@YAPEAP6AXH@ZH@Z 000000014002e2f0 f   libucrtd:signal.obj
 0001:0002d380       ?siglookup@@YAPEAU__crt_signal_action_t@@HQEAU1@@Z 000000014002e380 f   libucrtd:signal.obj
 0001:0002d954       $LN58                      000000014002e954     libucrtd:signal.obj
 0001:0002d960       $LN57                      000000014002e960     libucrtd:signal.obj
 0001:0002d980       ?select_heap@@YAPEAXQEAX@Z 000000014002e980 f   libucrtd:free_base.obj
 0001:0002daa0       ?is_contraction_possible@@YA_N_K@Z 000000014002eaa0 f   libucrtd:expand.obj
 0001:0002f450       ?check_trailing@@YA_NPEBDW4__acrt_has_trailing_digits@@@Z 0000000140030450 f   libucrtd:_fptostr.obj
 0001:0002f4a0       ?should_round_up@@YA_NQEBD0HW4__acrt_has_trailing_digits@@W4__acrt_rounding_mode@@@Z 00000001400304a0 f   libucrtd:_fptostr.obj
 0001:0002fb40       ??$convert_to_fos_high_precision@N@@YA?AW4__acrt_has_trailing_digits@@NIW4__acrt_precision_style@@QEAHQEAD_K@Z 0000000140030b40 f   libucrtd:cfout.obj
 0001:00030260       ??0scoped_fp_state_reset@?A0x71ca7cfb@@QEAA@XZ 0000000140031260 f   libucrtd:cfout.obj
 0001:000302b0       ??1scoped_fp_state_reset@?A0x71ca7cfb@@QEAA@XZ 00000001400312b0 f   libucrtd:cfout.obj
 0001:000320b0       ??R<lambda_599026849492e2a71b24cce8b46aab16>@@QEBA_KPEBD@Z 00000001400330b0 f   libucrtd:mbrtowc.obj
 0001:00032640       ??$?RV<lambda_842d9ff0dc9ef11c61343bbaebe7f885>@@AEAV<lambda_c5860995281e5c4ce005b3de8f5874ee>@@V<lambda_d90129c13df834fdcbf8d2b88dafcf2d>@@@?$__crt_seh_guarded_call@X@@QEAAX$$QEAV<lambda_842d9ff0dc9ef11c61343bbaebe7f885>@@AEAV<lambda_c5860995281e5c4ce005b3de8f5874ee>@@$$QEAV<lambda_d90129c13df834fdcbf8d2b88dafcf2d>@@@Z 0000000140033640 f   libucrtd:fflush.obj
 0001:00032680       ??$?RV<lambda_886d6c58226a84441f68b9f2b8217b83>@@AEAV<lambda_ab61a845afdef5b7c387490eaf3616ee>@@V<lambda_f7f22ab5edc0698d5f6905b0d3f44752>@@@?$__crt_seh_guarded_call@X@@QEAAX$$QEAV<lambda_886d6c58226a84441f68b9f2b8217b83>@@AEAV<lambda_ab61a845afdef5b7c387490eaf3616ee>@@$$QEAV<lambda_f7f22ab5edc0698d5f6905b0d3f44752>@@@Z 0000000140033680 f   libucrtd:fflush.obj
 0001:000326c0       ??$__acrt_lock_and_call@V<lambda_ab61a845afdef5b7c387490eaf3616ee>@@@@YAXW4__acrt_lock_id@@$$QEAV<lambda_ab61a845afdef5b7c387490eaf3616ee>@@@Z 00000001400336c0 f   libucrtd:fflush.obj
 0001:00032720       ??$__acrt_lock_stream_and_call@V<lambda_c5860995281e5c4ce005b3de8f5874ee>@@@@YAXQEAU_iobuf@@$$QEAV<lambda_c5860995281e5c4ce005b3de8f5874ee>@@@Z 0000000140033720 f   libucrtd:fflush.obj
 0001:00032780       ??0<lambda_842d9ff0dc9ef11c61343bbaebe7f885>@@QEAA@AEBQEAU_iobuf@@@Z 0000000140033780 f   libucrtd:fflush.obj
 0001:00032780       ??0<lambda_d90129c13df834fdcbf8d2b88dafcf2d>@@QEAA@AEBQEAU_iobuf@@@Z 0000000140033780 f   libucrtd:fflush.obj
 0001:000327a0       ??0<lambda_c5860995281e5c4ce005b3de8f5874ee>@@QEAA@AEBV__crt_stdio_stream@@AEAHAEB_N1@Z 00000001400337a0 f   libucrtd:fflush.obj
 0001:00032800       ??R<lambda_842d9ff0dc9ef11c61343bbaebe7f885>@@QEBAXXZ 0000000140033800 f   libucrtd:fflush.obj
 0001:00032820       ??R<lambda_ab61a845afdef5b7c387490eaf3616ee>@@QEBA@XZ 0000000140033820 f   libucrtd:fflush.obj
 0001:00032910       ??R<lambda_c5860995281e5c4ce005b3de8f5874ee>@@QEBAXXZ 0000000140033910 f   libucrtd:fflush.obj
 0001:000329c0       ??R<lambda_d90129c13df834fdcbf8d2b88dafcf2d>@@QEBAXXZ 00000001400339c0 f   libucrtd:fflush.obj
 0001:00032a30       ?_fflush_nolock_internal@@YAHQEAU_iobuf@@AEAV__crt_cached_ptd_host@@@Z 0000000140033a30 f   libucrtd:fflush.obj
 0001:00032ad0       ?common_flush_all@@YAH_N@Z 0000000140033ad0 f   libucrtd:fflush.obj
 0001:00032b40       ?common_flush_all_should_try_to_flush_stream@@YA_NV__crt_stdio_stream@@QEAH@Z 0000000140033b40 f   libucrtd:fflush.obj
 0001:00032bf0       ?is_stream_allocated@@YA_NJ@Z 0000000140033bf0 f   libucrtd:fflush.obj
 0001:00032c20       ?is_stream_flushable@@YA_NJ@Z 0000000140033c20 f   libucrtd:fflush.obj
 0001:00032c50       ?is_stream_flushable_or_commitable@@YA_NJ@Z 0000000140033c50 f   libucrtd:fflush.obj
 0001:000330d0       ?shortsort@@YAXPEAD0_KP6AHPEBX2@Z@Z 00000001400340d0 f   libucrtd:qsort.obj
 0001:000331d0       ?swap@@YAXPEAD0_K@Z        00000001400341d0 f   libucrtd:qsort.obj
 0001:00033a40       ??$common_tcsncpy_s@D@@YAHQEAD_KQEBD1@Z 0000000140034a40 f   libucrtd:strncpy_s.obj
 0001:00034110       fallbackMethod             0000000140035110 f   libucrtd:strpbrk.obj
 0001:00034a74       $LN85                      0000000140035a74     libucrtd:strpbrk.obj
 0001:00034ab0       $LN84                      0000000140035ab0     libucrtd:strpbrk.obj
 0001:00034af0       $LN83                      0000000140035af0     libucrtd:strpbrk.obj
 0001:00034df0       ?__acrt_LCMapStringA_stat@@YAHPEAU__crt_locale_pointers@@PEB_WKPEBDHPEADHHH@Z 0000000140035df0 f   libucrtd:lcmapstringa.obj
 0001:000354a0       ?initialize_multibyte@@YAHXZ 00000001400364a0 f   libucrtd:multibyte_initializer.obj
 0001:000354d0       ??$common_xtox@KD@@YAHKQEAD_KI_N@Z 00000001400364d0 f   libucrtd:xtoa.obj
 0001:00035710       ??$common_xtox@K_W@@YAHKQEA_W_KI_N@Z 0000000140036710 f   libucrtd:xtoa.obj
 0001:00035960       ??$common_xtox_s@KD@@YAHKQEAD_KI_N@Z 0000000140036960 f   libucrtd:xtoa.obj
 0001:00035d10       ??$common_xtox_s@K_W@@YAHKQEA_W_KI_N@Z 0000000140036d10 f   libucrtd:xtoa.obj
 0001:00036250       ?GetTableIndexFromLocaleName@@YAHPEB_W@Z 0000000140037250 f   libucrtd:lcidtoname_downlevel.obj
 0001:00036400       ?_mbstowcs_internal@@YAHPEA_KPEA_W_KPEBD2AEAV__crt_cached_ptd_host@@@Z 0000000140037400 f   libucrtd:mbstowcs.obj
 0001:000369e0       ?_mbstowcs_l_helper@@YA_KPEA_WPEBD_KAEAV__crt_cached_ptd_host@@@Z 00000001400379e0 f   libucrtd:mbstowcs.obj
 0001:00036f90       ?_wcstombs_internal@@YAHPEA_KPEAD_KPEB_W2AEAV__crt_cached_ptd_host@@@Z 0000000140037f90 f   libucrtd:wcstombs.obj
 0001:00037560       ?_wcstombs_l_helper@@YA_KPEADPEB_W_KAEAV__crt_cached_ptd_host@@@Z 0000000140038560 f   libucrtd:wcstombs.obj
 0001:00037cf0       ?wcsncnt@@YA_KPEB_W_K@Z    0000000140038cf0 f   libucrtd:wcstombs.obj
 0001:00037e00       ??$common_tcscat_s@D@@YAHQEAD_KQEBD@Z 0000000140038e00 f   libucrtd:strcat_s.obj
 0001:000384a0       $$000000                   00000001400394a0     libucrtd:log10.obj
 0001:00038fe0       ??$to_abstract_status@W4__acrt_fenv_machine_sse_status@@@@YA?AW4__acrt_fenv_abstract_status@@W4__acrt_fenv_machine_sse_status@@@Z 0000000140039fe0 f   libucrtd:_fenvutils.obj
 0001:00039000       ??$translate_control_exception_mask@W4__acrt_fenv_abstract_control@@W4__acrt_fenv_machine_sse_control@@@@YA?AW4__acrt_fenv_abstract_control@@W4__acrt_fenv_machine_sse_control@@@Z 000000014003a000 f   libucrtd:_fenvutils.obj
 0001:000390f0       ??$translate_control_exception_mask@W4__acrt_fenv_machine_sse_control@@W4__acrt_fenv_abstract_control@@@@YA?AW4__acrt_fenv_machine_sse_control@@W4__acrt_fenv_abstract_control@@@Z 000000014003a0f0 f   libucrtd:_fenvutils.obj
 0001:000391e0       ??$translate_control_rounding_control@W4__acrt_fenv_abstract_control@@W4__acrt_fenv_machine_sse_control@@@@YA?AW4__acrt_fenv_abstract_control@@W4__acrt_fenv_machine_sse_control@@@Z 000000014003a1e0 f   libucrtd:_fenvutils.obj
 0001:00039250       ??$translate_control_rounding_control@W4__acrt_fenv_machine_sse_control@@W4__acrt_fenv_abstract_control@@@@YA?AW4__acrt_fenv_machine_sse_control@@W4__acrt_fenv_abstract_control@@@Z 000000014003a250 f   libucrtd:_fenvutils.obj
 0001:000392c0       ??$translate_status@W4__acrt_fenv_abstract_status@@W4__acrt_fenv_machine_sse_status@@@@YA?AW4__acrt_fenv_abstract_status@@W4__acrt_fenv_machine_sse_status@@@Z 000000014003a2c0 f   libucrtd:_fenvutils.obj
 0001:000393b0       ??$translate_status@W4__acrt_fenv_machine_sse_status@@W4__acrt_fenv_abstract_status@@@@YA?AW4__acrt_fenv_machine_sse_status@@W4__acrt_fenv_abstract_status@@@Z 000000014003a3b0 f   libucrtd:_fenvutils.obj
 0001:00039680       ?get_machine_sse_control@@YA?AW4__acrt_fenv_machine_sse_control@@XZ 000000014003a680 f   libucrtd:_fenvutils.obj
 0001:000396a0       ?get_machine_sse_status@@YA?AW4__acrt_fenv_machine_sse_status@@XZ 000000014003a6a0 f   libucrtd:_fenvutils.obj
 0001:000396c0       ?set_machine_sse_control@@YAXW4__acrt_fenv_machine_sse_control@@@Z 000000014003a6c0 f   libucrtd:_fenvutils.obj
 0001:00039720       ?set_machine_sse_status@@YAXW4__acrt_fenv_machine_sse_status@@@Z 000000014003a720 f   libucrtd:_fenvutils.obj
 0001:00039770       ?to_abstract_control@@YA?AW4__acrt_fenv_abstract_control@@W4__acrt_fenv_machine_sse_control@@@Z 000000014003a770 f   libucrtd:_fenvutils.obj
 0001:000397d0       ?to_machine_sse_control@@YA?AW4__acrt_fenv_machine_sse_control@@W4__acrt_fenv_abstract_control@@@Z 000000014003a7d0 f   libucrtd:_fenvutils.obj
 0001:00039840       ?to_machine_sse_status@@YA?AW4__acrt_fenv_machine_sse_status@@W4__acrt_fenv_abstract_status@@@Z 000000014003a840 f   libucrtd:_fenvutils.obj
 0001:00039860       ?translate_control_denormal_control_from_sse@@YA?AW4__acrt_fenv_abstract_control@@W4__acrt_fenv_machine_sse_control@@@Z 000000014003a860 f   libucrtd:_fenvutils.obj
 0001:000398e0       ?translate_control_denormal_control_to_sse@@YA?AW4__acrt_fenv_machine_sse_control@@W4__acrt_fenv_abstract_control@@@Z 000000014003a8e0 f   libucrtd:_fenvutils.obj
 0001:00039ea0       ?_fclose_internal@@YAHQEAU_iobuf@@AEAV__crt_cached_ptd_host@@@Z 000000014003aea0 f   libucrtd:fclose.obj
 0001:0003a000       ?_fclose_nolock_internal@@YAHQEAU_iobuf@@AEAV__crt_cached_ptd_host@@@Z 000000014003b000 f   libucrtd:fclose.obj
 0001:0003a1f0       ??$?RV<lambda_7d29013d608e9f25a034de83c9b9e983>@@AEAV<lambda_3e4146214822e0ea86c47ff907aef2ff>@@V<lambda_b869e5a4e1069fcb5c3da79c0d999133>@@@?$__crt_seh_guarded_call@H@@QEAAH$$QEAV<lambda_7d29013d608e9f25a034de83c9b9e983>@@AEAV<lambda_3e4146214822e0ea86c47ff907aef2ff>@@$$QEAV<lambda_b869e5a4e1069fcb5c3da79c0d999133>@@@Z 000000014003b1f0 f   libucrtd:commit.obj
 0001:0003a240       ??$__acrt_lowio_lock_fh_and_call@V<lambda_3e4146214822e0ea86c47ff907aef2ff>@@@@YAHH$$QEAV<lambda_3e4146214822e0ea86c47ff907aef2ff>@@@Z 000000014003b240 f   libucrtd:commit.obj
 0001:0003a2a0       ??R<lambda_3e4146214822e0ea86c47ff907aef2ff>@@QEBAHXZ 000000014003b2a0 f   libucrtd:commit.obj
 0001:0003a370       ??R<lambda_19eaff14c5fe7be5b1b106a862eb1091>@@QEBAXXZ 000000014003b370 f   libucrtd:close.obj
 0001:0003a370       ??R<lambda_7d29013d608e9f25a034de83c9b9e983>@@QEBAXXZ 000000014003b370 f   libucrtd:commit.obj
 0001:0003a390       ??R<lambda_3ce37f5b621ab310299ea5f68cbdf3bb>@@QEBAXXZ 000000014003b390 f   libucrtd:close.obj
 0001:0003a390       ??R<lambda_b869e5a4e1069fcb5c3da79c0d999133>@@QEBAXXZ 000000014003b390 f   libucrtd:commit.obj
 0001:0003a590       ?write_binary_nolock@@YA?AUwrite_result@?A0x17268360@@HQEBDI@Z 000000014003b590 f   libucrtd:write.obj
 0001:0003a660       ?write_double_translated_ansi_nolock@@YA?AUwrite_result@?A0x17268360@@HQEBDIAEAV__crt_cached_ptd_host@@@Z 000000014003b660 f   libucrtd:write.obj
 0001:0003b3c0       ?write_double_translated_unicode_nolock@@YA?AUwrite_result@?A0x17268360@@QEBDI@Z 000000014003c3c0 f   libucrtd:write.obj
 0001:0003b520       ?write_requires_double_translation_nolock@@YA_NHAEAV__crt_cached_ptd_host@@@Z 000000014003c520 f   libucrtd:write.obj
 0001:0003b630       ?write_text_ansi_nolock@@YA?AUwrite_result@?A0x17268360@@HQEBDI@Z 000000014003c630 f   libucrtd:write.obj
 0001:0003b860       ?write_text_utf16le_nolock@@YA?AUwrite_result@?A0x17268360@@HQEBDI@Z 000000014003c860 f   libucrtd:write.obj
 0001:0003bab0       ?write_text_utf8_nolock@@YA?AUwrite_result@?A0x17268360@@HQEBDI@Z 000000014003cab0 f   libucrtd:write.obj
 0001:0003c840       ??$common_lseek_nolock@_J@@YA_JH_JHAEAV__crt_cached_ptd_host@@@Z 000000014003d840 f   libucrtd:lseek.obj
 0001:0003c970       ?common_lseek_do_seek_nolock@@YA_JQEAX_JHAEAV__crt_cached_ptd_host@@@Z 000000014003d970 f   libucrtd:lseek.obj
 0001:0003cdf0       _log_special_common        000000014003ddf0 f   libucrtd:log_special.obj
 0001:0003cf10       _call_matherr              000000014003df10 f   libucrtd:libm_error.obj
 0001:0003cfa0       _exception_enabled         000000014003dfa0 f   libucrtd:libm_error.obj
 0001:0003d2c0       _abstract_cw               000000014003e2c0 f   libucrtd:ieee.obj
 0001:0003d410       _abstract_sw               000000014003e410 f   libucrtd:ieee.obj
 0001:0003d4f0       _hw_cw                     000000014003e4f0 f   libucrtd:ieee.obj
 0001:0003d640       common_control87           000000014003e640 f   libucrtd:ieee.obj
 0001:0003d760       ??$?RV<lambda_19eaff14c5fe7be5b1b106a862eb1091>@@AEAV<lambda_af29824b49a67d335554598d6cad2be6>@@V<lambda_3ce37f5b621ab310299ea5f68cbdf3bb>@@@?$__crt_seh_guarded_call@H@@QEAAH$$QEAV<lambda_19eaff14c5fe7be5b1b106a862eb1091>@@AEAV<lambda_af29824b49a67d335554598d6cad2be6>@@$$QEAV<lambda_3ce37f5b621ab310299ea5f68cbdf3bb>@@@Z 000000014003e760 f   libucrtd:close.obj
 0001:0003d7b0       ??$__acrt_lowio_lock_fh_and_call@V<lambda_af29824b49a67d335554598d6cad2be6>@@@@YAHH$$QEAV<lambda_af29824b49a67d335554598d6cad2be6>@@@Z 000000014003e7b0 f   libucrtd:close.obj
 0001:0003d810       ??R<lambda_af29824b49a67d335554598d6cad2be6>@@QEBAHXZ 000000014003e810 f   libucrtd:close.obj
 0001:0003d8e0       ?close_os_handle_nolock@@YAKH@Z 000000014003e8e0 f   libucrtd:close.obj
 0001:0003df30       ?combine_second_surrogate@?A0xc60ee810@@YA_U_SPEAU_Mbstatet@@@Z 000000014003ef30 f   libucrtd:c16rtomb.obj
 0001:0003df50       ?has_surrogate@?A0xc60ee810@@YA_NPEAU_Mbstatet@@@Z 000000014003ef50 f   libucrtd:c16rtomb.obj
 0001:0003df80       ?is_first_surrogate@?A0xc60ee810@@YA_N_S@Z 000000014003ef80 f   libucrtd:c16rtomb.obj
 0001:0003dfc0       ?is_second_surrogate@?A0xc60ee810@@YA_N_S@Z 000000014003efc0 f   libucrtd:c16rtomb.obj
 0001:0003e000       ?store_first_surrogate@?A0xc60ee810@@YAX_SPEAU_Mbstatet@@@Z 000000014003f000 f   libucrtd:c16rtomb.obj
 0001:0003e8c0       $$000000                   000000014003f8c0     libucrtd:fpsr.obj
 0001:0003e920       ??$console_output_reopen_and_retry@V<lambda_61c1b8a38cedca4df5fdc542e6ccae6d>@@@@YAHAEBV<lambda_61c1b8a38cedca4df5fdc542e6ccae6d>@@@Z 000000014003f920 f   libucrtd:initcon.obj
 0001:0003e980       ??0<lambda_61c1b8a38cedca4df5fdc542e6ccae6d>@@QEAA@AEBQEBXAEBKAEBQEAK@Z 000000014003f980 f   libucrtd:initcon.obj
 0001:0003e9d0       ??R<lambda_61c1b8a38cedca4df5fdc542e6ccae6d>@@QEBAHXZ 000000014003f9d0 f   libucrtd:initcon.obj
 0001:0003ea10       ?__dcrt_lowio_initialize_console_output@@YAXXZ 000000014003fa10 f   libucrtd:initcon.obj
 0001:0003ee00       $$000000                   000000014003fe00     LIBCMTD:chkstk.obj
 0001:0003f3f0       $$000000                   00000001400403f0     LIBCMTD:guard_dispatch.obj
 0001:0003f410       $$000000                   0000000140040410     LIBCMTD:guard_xfg_dispatch.obj
 0001:0003f450       $$000000                   0000000140040450     libvcruntimed:memcpy.obj
 0001:0003f460       $$000000                   0000000140040460     libvcruntimed:memcpy.obj
 0001:0003f48e       MoveSmall0                 000000014004048e     libvcruntimed:memcpy.obj
 0001:0003f490       MoveSmall15                0000000140040490     libvcruntimed:memcpy.obj
 0001:0003f4b0       MoveSmall11                00000001400404b0     libvcruntimed:memcpy.obj
 0001:0003f4c8       MoveSmall2                 00000001400404c8     libvcruntimed:memcpy.obj
 0001:0003f4d0       MoveSmall7                 00000001400404d0     libvcruntimed:memcpy.obj
 0001:0003f4e8       MoveSmall14                00000001400404e8     libvcruntimed:memcpy.obj
 0001:0003f4ff       MoveSmall3                 00000001400404ff     libvcruntimed:memcpy.obj
 0001:0003f510       MoveSmall13                0000000140040510     libvcruntimed:memcpy.obj
 0001:0003f526       MoveSmall10                0000000140040526     libvcruntimed:memcpy.obj
 0001:0003f535       MoveSmall9                 0000000140040535     libvcruntimed:memcpy.obj
 0001:0003f543       MoveSmall12                0000000140040543     libvcruntimed:memcpy.obj
 0001:0003f550       MoveSmall6                 0000000140040550     libvcruntimed:memcpy.obj
 0001:0003f55f       MoveSmall5                 000000014004055f     libvcruntimed:memcpy.obj
 0001:0003f56d       MoveSmall8                 000000014004056d     libvcruntimed:memcpy.obj
 0001:0003f574       MoveSmall1                 0000000140040574     libvcruntimed:memcpy.obj
 0001:0003f57a       MoveSmall4                 000000014004057a     libvcruntimed:memcpy.obj
 0001:0003f580       MoveAbove15                0000000140040580     libvcruntimed:memcpy.obj
 0001:0003f59d       MoveAbove32                000000014004059d     libvcruntimed:memcpy.obj
 0001:0003f5dd       MoveWithYMM                00000001400405dd     libvcruntimed:memcpy.obj
 0001:0003f630       YmmLoop                    0000000140040630     libvcruntimed:memcpy.obj
 0001:0003f6b8       MovUpTo256WithYMM          00000001400406b8     libvcruntimed:memcpy.obj
 0001:0003f6d5       Mov8YmmBlocks              00000001400406d5     libvcruntimed:memcpy.obj
 0001:0003f6e9       Mov7YmmBlocks              00000001400406e9     libvcruntimed:memcpy.obj
 0001:0003f6fd       Mov6YmmBlocks              00000001400406fd     libvcruntimed:memcpy.obj
 0001:0003f711       Mov5YmmBlocks              0000000140040711     libvcruntimed:memcpy.obj
 0001:0003f725       Mov4YmmBlocks              0000000140040725     libvcruntimed:memcpy.obj
 0001:0003f733       Mov3YmmBlocks              0000000140040733     libvcruntimed:memcpy.obj
 0001:0003f741       Mov2YmmBlocks              0000000140040741     libvcruntimed:memcpy.obj
 0001:0003f74f       Mov1YmmBlocks              000000014004074f     libvcruntimed:memcpy.obj
 0001:0003f756       Mov0YmmBlocks              0000000140040756     libvcruntimed:memcpy.obj
 0001:0003f760       YmmLoopNT                  0000000140040760     libvcruntimed:memcpy.obj
 0001:0003f805       Mov8YmmBlocksNT            0000000140040805     libvcruntimed:memcpy.obj
 0001:0003f819       Mov7YmmBlocksNT            0000000140040819     libvcruntimed:memcpy.obj
 0001:0003f82d       Mov6YmmBlocksNT            000000014004082d     libvcruntimed:memcpy.obj
 0001:0003f841       Mov5YmmBlocksNT            0000000140040841     libvcruntimed:memcpy.obj
 0001:0003f855       Mov4YmmBlocksNT            0000000140040855     libvcruntimed:memcpy.obj
 0001:0003f863       Mov3YmmBlocksNT            0000000140040863     libvcruntimed:memcpy.obj
 0001:0003f871       Mov2YmmBlocksNT            0000000140040871     libvcruntimed:memcpy.obj
 0001:0003f87f       Mov1YmmBlocksNT            000000014004087f     libvcruntimed:memcpy.obj
 0001:0003f886       Mov0YmmBlocksNT            0000000140040886     libvcruntimed:memcpy.obj
 0001:0003f8a0       NoAVX                      00000001400408a0     libvcruntimed:memcpy.obj
 0001:0003f8b6       MoveWithXMM                00000001400408b6     libvcruntimed:memcpy.obj
 0001:0003f8f0       XmmLoop                    00000001400408f0     libvcruntimed:memcpy.obj
 0001:0003f95c       MovUpTo128WithXMM          000000014004095c     libvcruntimed:memcpy.obj
 0001:0003f979       Mov8XmmBlocks              0000000140040979     libvcruntimed:memcpy.obj
 0001:0003f987       Mov7XmmBlocks              0000000140040987     libvcruntimed:memcpy.obj
 0001:0003f995       Mov6XmmBlocks              0000000140040995     libvcruntimed:memcpy.obj
 0001:0003f9a3       Mov5XmmBlocks              00000001400409a3     libvcruntimed:memcpy.obj
 0001:0003f9b1       Mov4XmmBlocks              00000001400409b1     libvcruntimed:memcpy.obj
 0001:0003f9bf       Mov3XmmBlocks              00000001400409bf     libvcruntimed:memcpy.obj
 0001:0003f9cd       Mov2XmmBlocks              00000001400409cd     libvcruntimed:memcpy.obj
 0001:0003f9db       Mov1XmmBlocks              00000001400409db     libvcruntimed:memcpy.obj
 0001:0003f9e2       Mov0XmmBlocks              00000001400409e2     libvcruntimed:memcpy.obj
 0001:0003f9f0       CopyDown                   00000001400409f0     libvcruntimed:memcpy.obj
 0001:0003fa0b       XmmMovAlign                0000000140040a0b     libvcruntimed:memcpy.obj
 0001:0003fa23       XmmMovLargeTest            0000000140040a23     libvcruntimed:memcpy.obj
 0001:0003fa40       XmmMovLargeOuter           0000000140040a40     libvcruntimed:memcpy.obj
 0001:0003fa47       XmmMovLargeInner           0000000140040a47     libvcruntimed:memcpy.obj
 0001:0003fa9d       XmmMovSmallTest            0000000140040a9d     libvcruntimed:memcpy.obj
 0001:0003fab0       XmmMovSmallLoop            0000000140040ab0     libvcruntimed:memcpy.obj
 0001:0003fac0       XmmMovTrailing             0000000140040ac0     libvcruntimed:memcpy.obj
 0001:0003fac9       XmmMovReturn               0000000140040ac9     libvcruntimed:memcpy.obj
 0001:0003faf0       $$000000                   0000000140040af0     libvcruntimed:memset.obj
 0001:0003fb00       $$000000                   0000000140040b00     libvcruntimed:memset.obj
 0001:0003fb41       SetSmall15                 0000000140040b41     libvcruntimed:memset.obj
 0001:0003fb45       SetSmall7                  0000000140040b45     libvcruntimed:memset.obj
 0001:0003fb49       SetSmall3                  0000000140040b49     libvcruntimed:memset.obj
 0001:0003fb4e       SetSmall1                  0000000140040b4e     libvcruntimed:memset.obj
 0001:0003fb52       SetSmall0                  0000000140040b52     libvcruntimed:memset.obj
 0001:0003fb53       SetSmall14                 0000000140040b53     libvcruntimed:memset.obj
 0001:0003fb57       SetSmall6                  0000000140040b57     libvcruntimed:memset.obj
 0001:0003fb5b       SetSmall2                  0000000140040b5b     libvcruntimed:memset.obj
 0001:0003fb60       MoveSmall0                 0000000140040b60     libvcruntimed:memset.obj
 0001:0003fb70       SetSmall13                 0000000140040b70     libvcruntimed:memset.obj
 0001:0003fb74       SetSmall5                  0000000140040b74     libvcruntimed:memset.obj
 0001:0003fb80       SetSmall12                 0000000140040b80     libvcruntimed:memset.obj
 0001:0003fb84       SetSmall4                  0000000140040b84     libvcruntimed:memset.obj
 0001:0003fb89       SetSmall11                 0000000140040b89     libvcruntimed:memset.obj
 0001:0003fb97       SetSmall9                  0000000140040b97     libvcruntimed:memset.obj
 0001:0003fba0       SetSmall10                 0000000140040ba0     libvcruntimed:memset.obj
 0001:0003fbaa       SetSmall8                  0000000140040baa     libvcruntimed:memset.obj
 0001:0003fbb0       SetAbove15                 0000000140040bb0     libvcruntimed:memset.obj
 0001:0003fbc6       SetAbove32                 0000000140040bc6     libvcruntimed:memset.obj
 0001:0003fbf2       SetWithYMM                 0000000140040bf2     libvcruntimed:memset.obj
 0001:0003fc30       YmmLoop                    0000000140040c30     libvcruntimed:memset.obj
 0001:0003fc7a       SetUpTo256WithYMM          0000000140040c7a     libvcruntimed:memset.obj
 0001:0003fc97       Set8YmmBlocks              0000000140040c97     libvcruntimed:memset.obj
 0001:0003fca1       Set7YmmBlocks              0000000140040ca1     libvcruntimed:memset.obj
 0001:0003fcab       Set6YmmBlocks              0000000140040cab     libvcruntimed:memset.obj
 0001:0003fcb5       Set5YmmBlocks              0000000140040cb5     libvcruntimed:memset.obj
 0001:0003fcbf       Set4YmmBlocks              0000000140040cbf     libvcruntimed:memset.obj
 0001:0003fcc6       Set3YmmBlocks              0000000140040cc6     libvcruntimed:memset.obj
 0001:0003fccd       Set2YmmBlocks              0000000140040ccd     libvcruntimed:memset.obj
 0001:0003fcd4       Set1YmmBlocks              0000000140040cd4     libvcruntimed:memset.obj
 0001:0003fcdb       Set0YmmBlocks              0000000140040cdb     libvcruntimed:memset.obj
 0001:0003fce3       SetWithYMMNT               0000000140040ce3     libvcruntimed:memset.obj
 0001:0003fcf0       YmmLoopNT                  0000000140040cf0     libvcruntimed:memset.obj
 0001:0003fd57       Set8YmmBlocksNT            0000000140040d57     libvcruntimed:memset.obj
 0001:0003fd61       Set7YmmBlocksNT            0000000140040d61     libvcruntimed:memset.obj
 0001:0003fd6b       Set6YmmBlocksNT            0000000140040d6b     libvcruntimed:memset.obj
 0001:0003fd75       Set5YmmBlocksNT            0000000140040d75     libvcruntimed:memset.obj
 0001:0003fd7f       Set4YmmBlocksNT            0000000140040d7f     libvcruntimed:memset.obj
 0001:0003fd86       Set3YmmBlocksNT            0000000140040d86     libvcruntimed:memset.obj
 0001:0003fd8d       Set2YmmBlocksNT            0000000140040d8d     libvcruntimed:memset.obj
 0001:0003fd94       Set1YmmBlocksNT            0000000140040d94     libvcruntimed:memset.obj
 0001:0003fd9b       Set0YmmBlocksNT            0000000140040d9b     libvcruntimed:memset.obj
 0001:0003fdb0       NoAVX                      0000000140040db0     libvcruntimed:memset.obj
 0001:0003fdc6       SetWithXMM                 0000000140040dc6     libvcruntimed:memset.obj
 0001:0003fdf0       XmmLoop                    0000000140040df0     libvcruntimed:memset.obj
 0001:0003fe2e       SetUpTo128WithXMM          0000000140040e2e     libvcruntimed:memset.obj
 0001:0003fe4b       Set8XmmBlocks              0000000140040e4b     libvcruntimed:memset.obj
 0001:0003fe52       Set7XmmBlocks              0000000140040e52     libvcruntimed:memset.obj
 0001:0003fe59       Set6XmmBlocks              0000000140040e59     libvcruntimed:memset.obj
 0001:0003fe60       Set5XmmBlocks              0000000140040e60     libvcruntimed:memset.obj
 0001:0003fe67       Set4XmmBlocks              0000000140040e67     libvcruntimed:memset.obj
 0001:0003fe6e       Set3XmmBlocks              0000000140040e6e     libvcruntimed:memset.obj
 0001:0003fe75       Set2XmmBlocks              0000000140040e75     libvcruntimed:memset.obj
 0001:0003fe7c       Set1XmmBlocks              0000000140040e7c     libvcruntimed:memset.obj
 0001:0003fe83       Set0XmmBlocks              0000000140040e83     libvcruntimed:memset.obj
 0001:0003fea0       ?filt$0@?0??__scrt_common_main_seh@@YAHXZ@4HA 0000000140040ea0 f   LIBCMTD:exe_winmain.obj
 0001:0003fed0       __scrt_is_nonwritable_in_current_image$filt$0 0000000140040ed0 f   LIBCMTD:utility.obj
 0001:0003ff10       __DestructExceptionObject$filt$0 0000000140040f10 f   libvcruntimed:ehhelpers.obj
 0001:0003ff40       ?filt$0@?0???$_CallSETranslator@V__FrameHandler3@@@@YAHPEAUEHExceptionRecord@@PEA_KPEAU_CONTEXT@@PEAU_xDISPATCHER_CONTEXT@@PEBU_s_FuncInfo@@K1H@Z@4HA 0000000140040f40 f   libvcruntimed:risctrnsctrl.obj
 0001:0003ffb0       ?filt$0@?0??is_bad_read_pointer@@YA_NQEBX_K@Z@4HA 0000000140040fb0 f   libucrtd:debug_heap.obj
 0001:0003ffb0       terminate$filt$0           0000000140040fb0 f   libucrtd:terminate.obj
 0001:0003ffb0       ?filt$0@?0???$BuildCatchObjectHelperInternal@V__FrameHandler3@@@@YAHPEAUEHExceptionRecord@@PEAXPEBU_s_HandlerType@@PEBU_s_CatchableType@@@Z@4HA 0000000140040fb0 f   libvcruntimed:frame.obj
 0001:0003ffb0       ?filt$0@?0???$BuildCatchObjectInternal@V__FrameHandler3@@@@YAXPEAUEHExceptionRecord@@PEAXPEBU_s_HandlerType@@PEBU_s_CatchableType@@@Z@4HA 0000000140040fb0 f   libvcruntimed:frame.obj
 0001:0003ffd0       ?filt$0@?0??CxxCallCatchBlock@__FrameHandler3@@SAPEAXPEAU_EXCEPTION_RECORD@@@Z@4HA 0000000140040fd0 f   libvcruntimed:frame.obj
 0001:0003fff9       ?fin$1@?0??CxxCallCatchBlock@__FrameHandler3@@SAPEAXPEAU_EXCEPTION_RECORD@@@Z@4HA 0000000140040ff9 f   libvcruntimed:frame.obj
 0001:000400a0       ?filt$0@?0??FrameUnwindToState@__FrameHandler3@@SAXPEA_KPEAU_xDISPATCHER_CONTEXT@@PEBU_s_FuncInfo@@H@Z@4HA 00000001400410a0 f   libvcruntimed:frame.obj
 0001:000400c1       ?fin$1@?0??FrameUnwindToState@__FrameHandler3@@SAXPEA_KPEAU_xDISPATCHER_CONTEXT@@PEBU_s_FuncInfo@@H@Z@4HA 00000001400410c1 f   libvcruntimed:frame.obj
 0001:00040100       ?fin$0@?0???$?RV<lambda_0ae27a3a962d80f24befdcbee591983d>@@AEAV<lambda_8d0ee55de4b1038c4002e0adecdf1839>@@V<lambda_dc504788e8f1664fe9b84e20bfb512f2>@@@?$__crt_seh_guarded_call@X@@QEAAX$$QEAV<lambda_0ae27a3a962d80f24befdcbee591983d>@@AEAV<lambda_8d0ee55de4b1038c4002e0adecdf1839>@@$$QEAV<lambda_dc504788e8f1664fe9b84e20bfb512f2>@@@Z@4HA 0000000140041100 f   libucrtd:per_thread_data.obj
 0001:00040100       ?fin$0@?0???$?RV<lambda_2d41944a1d46af3157314b8a01080d33>@@AEAV<lambda_8f455de75cd7d7f24b4096f044d8b9e6>@@V<lambda_aa500f224e6afead328df44964fe2772>@@@?$__crt_seh_guarded_call@X@@QEAAX$$QEAV<lambda_2d41944a1d46af3157314b8a01080d33>@@AEAV<lambda_8f455de75cd7d7f24b4096f044d8b9e6>@@$$QEAV<lambda_aa500f224e6afead328df44964fe2772>@@@Z@4HA 0000000140041100 f   libucrtd:per_thread_data.obj
 0001:00040100       ?fin$0@?0???$?RV<lambda_74a0ef281e44d15e1136f792f539efb3>@@AEAV<lambda_e157831efee4ea0afb0a2ace5dd5fd0d>@@V<lambda_04ddeca75b7c13fd67716e8dfcef87ee>@@@?$__crt_seh_guarded_call@X@@QEAAX$$QEAV<lambda_74a0ef281e44d15e1136f792f539efb3>@@AEAV<lambda_e157831efee4ea0afb0a2ace5dd5fd0d>@@$$QEAV<lambda_04ddeca75b7c13fd67716e8dfcef87ee>@@@Z@4HA 0000000140041100 f   libucrtd:per_thread_data.obj
 0001:00040100       ?fin$0@?0???$?RV<lambda_aa87e3671a710a21b5dc78c0bdf72e11>@@AEAV<lambda_92619d2358a28f41a33ba319515a20b9>@@V<lambda_6992ecaafeb10aed2b74cb1fae11a551>@@@?$__crt_seh_guarded_call@X@@QEAAX$$QEAV<lambda_aa87e3671a710a21b5dc78c0bdf72e11>@@AEAV<lambda_92619d2358a28f41a33ba319515a20b9>@@$$QEAV<lambda_6992ecaafeb10aed2b74cb1fae11a551>@@@Z@4HA 0000000140041100 f   libucrtd:per_thread_data.obj
 0001:00040100       ?fin$0@?0???$?RV<lambda_410d79af7f07d98d83a3f525b3859a53>@@AEAV<lambda_3e16ef9562a7dcce91392c22ab16ea36>@@V<lambda_38119f0e861e05405d8a144b9b982f0a>@@@?$__crt_seh_guarded_call@X@@QEAAX$$QEAV<lambda_410d79af7f07d98d83a3f525b3859a53>@@AEAV<lambda_3e16ef9562a7dcce91392c22ab16ea36>@@$$QEAV<lambda_38119f0e861e05405d8a144b9b982f0a>@@@Z@4HA 0000000140041100 f   libucrtd:wsetlocale.obj
 0001:00040100       ?fin$0@?0???$?RV<lambda_efa02eb69bf647d2f7ff0dd6f1103f72>@@AEAV<lambda_bd5a608237428601b7e45fbdc72b1ae8>@@V<lambda_728235dc0fc2b1f82d1fa5b3e7102d8f>@@@?$__crt_seh_guarded_call@X@@QEAAX$$QEAV<lambda_efa02eb69bf647d2f7ff0dd6f1103f72>@@AEAV<lambda_bd5a608237428601b7e45fbdc72b1ae8>@@$$QEAV<lambda_728235dc0fc2b1f82d1fa5b3e7102d8f>@@@Z@4HA 0000000140041100 f   libucrtd:mbctype.obj
 0001:00040100       ?fin$0@?0???$?RV<lambda_d80eeec6fff315bfe5c115232f3240e3>@@AEAV<lambda_6e4b09c48022b2350581041d5f6b0c4c>@@V<lambda_2358e3775559c9db80273638284d5e45>@@@?$__crt_seh_guarded_call@X@@QEAAX$$QEAV<lambda_d80eeec6fff315bfe5c115232f3240e3>@@AEAV<lambda_6e4b09c48022b2350581041d5f6b0c4c>@@$$QEAV<lambda_2358e3775559c9db80273638284d5e45>@@@Z@4HA 0000000140041100 f   libucrtd:exit.obj
 0001:00040100       ?fin$0@?0???$?RV<lambda_886d6c58226a84441f68b9f2b8217b83>@@AEAV<lambda_ab61a845afdef5b7c387490eaf3616ee>@@V<lambda_f7f22ab5edc0698d5f6905b0d3f44752>@@@?$__crt_seh_guarded_call@X@@QEAAX$$QEAV<lambda_886d6c58226a84441f68b9f2b8217b83>@@AEAV<lambda_ab61a845afdef5b7c387490eaf3616ee>@@$$QEAV<lambda_f7f22ab5edc0698d5f6905b0d3f44752>@@@Z@4HA 0000000140041100 f   libucrtd:fflush.obj
 0001:00040120       ?filt$0@?0???R<lambda_6e4b09c48022b2350581041d5f6b0c4c>@@QEBA@XZ@4HA 0000000140041120 f   libucrtd:exit.obj
 0001:00040150       ?fin$0@?0???$?RV<lambda_450d765d439847d4c735a33c368b5fc0>@@AEAV<lambda_44731a7d0e6d81c3e6aa82d741081786>@@V<lambda_601a2a7da3b7a96e9554ac7215c4b07c>@@@?$__crt_seh_guarded_call@P6AXH@Z@@QEAAP6AXH@Z$$QEAV<lambda_450d765d439847d4c735a33c368b5fc0>@@AEAV<lambda_44731a7d0e6d81c3e6aa82d741081786>@@$$QEAV<lambda_601a2a7da3b7a96e9554ac7215c4b07c>@@@Z@4HA 0000000140041150 f   libucrtd:signal.obj
 0001:00040150       ?fin$0@?0???$?RV<lambda_6a47f4c8fd0152770a780fc1d70204eb>@@AEAV<lambda_d121dba8a4adeaf3a9819e48611155df>@@V<lambda_6aaa2265f5b6a89667e7d7630012e97a>@@@?$__crt_seh_guarded_call@H@@QEAAH$$QEAV<lambda_6a47f4c8fd0152770a780fc1d70204eb>@@AEAV<lambda_d121dba8a4adeaf3a9819e48611155df>@@$$QEAV<lambda_6aaa2265f5b6a89667e7d7630012e97a>@@@Z@4HA 0000000140041150 f   libucrtd:onexit.obj
 0001:00040150       ?fin$0@?0???$?RV<lambda_80060f20ac3990516b753a27f211934c>@@AEAV<lambda_208ce30acdd7200aa596f2796f4d5154>@@V<lambda_fd91b99c0687e8936f1d70d7d9b78e69>@@@?$__crt_seh_guarded_call@H@@QEAAH$$QEAV<lambda_80060f20ac3990516b753a27f211934c>@@AEAV<lambda_208ce30acdd7200aa596f2796f4d5154>@@$$QEAV<lambda_fd91b99c0687e8936f1d70d7d9b78e69>@@@Z@4HA 0000000140041150 f   libucrtd:onexit.obj
 0001:00040170       ?dtor$0@?0???R<lambda_d121dba8a4adeaf3a9819e48611155df>@@QEBAHXZ@4HA 0000000140041170 f   libucrtd:onexit.obj
 0001:00040190       ?fin$0@?0??heap_alloc_dbg_internal@@YAPEAX_KHQEBDH@Z@4HA 0000000140041190 f   libucrtd:debug_heap.obj
 0001:00040190       _CrtMemCheckpoint$fin$0    0000000140041190 f   libucrtd:debug_heap.obj
 0001:000401b0       ?fin$0@?0??validate_heap_if_required_nolock@@YAXXZ@4HA 00000001400411b0 f   libucrtd:debug_heap.obj
 0001:000401d0       _CrtCheckMemory$fin$0      00000001400411d0 f   libucrtd:debug_heap.obj
 0001:000401d0       _CrtMemDumpAllObjectsSince$fin$0 00000001400411d0 f   libucrtd:debug_heap.obj
 0001:000401d0       _CrtSetDbgFlag$fin$0       00000001400411d0 f   libucrtd:debug_heap.obj
 0001:000401d0       _msize_dbg$fin$0           00000001400411d0 f   libucrtd:debug_heap.obj
 0001:000401d0       _realloc_dbg$fin$0         00000001400411d0 f   libucrtd:debug_heap.obj
 0001:000401f0       _free_dbg$fin$0            00000001400411f0 f   libucrtd:debug_heap.obj
 0001:000401f0       _query_new_handler$fin$0   00000001400411f0 f   libucrtd:new_handler.obj
 0001:00040210       __acrt_initialize_lowio$fin$0 0000000140041210 f   libucrtd:ioinit.obj
 0001:00040230       ?fin$0@?0??update_thread_multibyte_data_internal@@YAPEAU__crt_multibyte_data@@QEAU__acrt_ptd@@QEAPEAU1@@Z@4HA 0000000140041230 f   libucrtd:mbctype.obj
 0001:00040250       __acrt_lowio_ensure_fh_exists$fin$0 0000000140041250 f   libucrtd:osfinfo.obj
 0001:00040270       __acrt_update_thread_locale_data$fin$0 0000000140041270 f   libucrtd:locale_refcounting.obj
 0001:00040290       raise$fin$0                0000000140041290 f   libucrtd:signal.obj
 0001:000402c0       _VCrtDbgReportA$fin$0      00000001400412c0 f   libucrtd:dbgrptt.obj
 0001:000402db       _VCrtDbgReportA$fin$1      00000001400412db f   libucrtd:dbgrptt.obj
 0001:00040300       _VCrtDbgReportW$fin$0      0000000140041300 f   libucrtd:dbgrptt.obj
 0001:0004031b       _VCrtDbgReportW$fin$1      000000014004131b f   libucrtd:dbgrptt.obj
 0001:00040340       _fcloseall$fin$0           0000000140041340 f   libucrtd:closeall.obj
 0001:00040360       ?fin$0@?0???$?RV<lambda_842d9ff0dc9ef11c61343bbaebe7f885>@@AEAV<lambda_c5860995281e5c4ce005b3de8f5874ee>@@V<lambda_d90129c13df834fdcbf8d2b88dafcf2d>@@@?$__crt_seh_guarded_call@X@@QEAAX$$QEAV<lambda_842d9ff0dc9ef11c61343bbaebe7f885>@@AEAV<lambda_c5860995281e5c4ce005b3de8f5874ee>@@$$QEAV<lambda_d90129c13df834fdcbf8d2b88dafcf2d>@@@Z@4HA 0000000140041360 f   libucrtd:fflush.obj
 0001:00040380       ?dtor$0@?0??shortsort@@YAXPEAD0_KP6AHPEBX2@Z@Z@4HA 0000000140041380 f   libucrtd:qsort.obj
 0001:000403a0       ?fin$0@?0??_fclose_internal@@YAHQEAU_iobuf@@AEAV__crt_cached_ptd_host@@@Z@4HA 00000001400413a0 f   libucrtd:fclose.obj
 0001:000403d0       ?fin$0@?0???$?RV<lambda_19eaff14c5fe7be5b1b106a862eb1091>@@AEAV<lambda_af29824b49a67d335554598d6cad2be6>@@V<lambda_3ce37f5b621ab310299ea5f68cbdf3bb>@@@?$__crt_seh_guarded_call@H@@QEAAH$$QEAV<lambda_19eaff14c5fe7be5b1b106a862eb1091>@@AEAV<lambda_af29824b49a67d335554598d6cad2be6>@@$$QEAV<lambda_3ce37f5b621ab310299ea5f68cbdf3bb>@@@Z@4HA 00000001400413d0 f   libucrtd:close.obj
 0001:000403d0       ?fin$0@?0???$?RV<lambda_7d29013d608e9f25a034de83c9b9e983>@@AEAV<lambda_3e4146214822e0ea86c47ff907aef2ff>@@V<lambda_b869e5a4e1069fcb5c3da79c0d999133>@@@?$__crt_seh_guarded_call@H@@QEAAH$$QEAV<lambda_7d29013d608e9f25a034de83c9b9e983>@@AEAV<lambda_3e4146214822e0ea86c47ff907aef2ff>@@$$QEAV<lambda_b869e5a4e1069fcb5c3da79c0d999133>@@@Z@4HA 00000001400413d0 f   libucrtd:commit.obj
 0001:000403f0       _write_internal$fin$0      00000001400413f0 f   libucrtd:write.obj
 0001:00040410       common_control87$filt$0    0000000140041410 f   libucrtd:ieee.obj
 0001:00040460       _ctrlfp$filt$0             0000000140041460 f   libucrtd:fpctrl.obj
 0001:000404b0       _IsNonwritableInCurrentImage$filt$0 00000001400414b0 f   LIBCMTD:pesect.obj
 0002:00000410       ?pre_cpp_initializer@@3P6AXXZEA 0000000140042410     LIBCMTD:exe_winmain.obj
 0002:00000428       ?pre_c_initializer@@3P6AHXZEA 0000000140042428     LIBCMTD:exe_winmain.obj
 0002:00000430       ?post_pgo_initializer@@3P6AHXZEA 0000000140042430     LIBCMTD:exe_winmain.obj
 0002:000004a0       $SG122357                  00000001400424a0     platform.obj
 0002:000004c8       $SG122358                  00000001400424c8     platform.obj
 0002:000004f0       $SG122359                  00000001400424f0     platform.obj
 0002:00000518       $SG122362                  0000000140042518     platform.obj
 0002:00000530       $SG122363                  0000000140042530     platform.obj
 0002:00000550       $SG122364                  0000000140042550     platform.obj
 0002:00000568       $SG122586                  0000000140042568     platform.obj
 0002:00000578       $SG122691                  0000000140042578     platform.obj
 0002:000005a0       $SG122692                  00000001400425a0     platform.obj
 0002:000005b8       $SG122693                  00000001400425b8     platform.obj
 0002:000005c8       $SG122694                  00000001400425c8     platform.obj
 0002:000005f0       $SG122706                  00000001400425f0     platform.obj
 0002:00000628       GS_ExceptionPointers       0000000140042628     LIBCMTD:gs_report.obj
 0002:00000690       ?tokenTable@@3QBUStringLiteral@@B 0000000140042690     libvcruntimed:undname.obj
 0002:000007a0       ?nameTable@@3QBUStringLiteral@@B 00000001400427a0     libvcruntimed:undname.obj
 0002:00000cd0       ?rttiTable@@3QBUStringLiteral@@B 0000000140042cd0     libvcruntimed:undname.obj
 0002:00000d20       ?IndirectionName@@3QBUStringLiteral@@B 0000000140042d20     libvcruntimed:undname.obj
 0002:00000d80       ?PrefixName@@3QBUStringLiteral@@B 0000000140042d80     libvcruntimed:undname.obj
 0002:00001470       ?module_names@?A0x14174aea@@3QBQEB_WB 0000000140043470     libvcruntimed:winapi_downlevel.obj
 0002:000016e0       ?candidate_modules@?1??try_get_FlsAlloc@@YAP6AKP6AXPEAX@Z@ZXZ@4QBW4module_id@?A0x14174aea@@B 00000001400436e0     libvcruntimed:winapi_downlevel.obj
 0002:000016f8       ?candidate_modules@?1??try_get_FlsFree@@YAP6AHK@ZXZ@4QBW4module_id@?A0x14174aea@@B 00000001400436f8     libvcruntimed:winapi_downlevel.obj
 0002:00001708       ?candidate_modules@?1??try_get_FlsGetValue@@YAP6APEAXK@ZXZ@4QBW4module_id@?A0x14174aea@@B 0000000140043708     libvcruntimed:winapi_downlevel.obj
 0002:00001720       ?candidate_modules@?1??try_get_FlsSetValue@@YAP6AHKPEAX@ZXZ@4QBW4module_id@?A0x14174aea@@B 0000000140043720     libvcruntimed:winapi_downlevel.obj
 0002:00001738       ?candidate_modules@?1??try_get_InitializeCriticalSectionEx@@YAP6AHPEAU_RTL_CRITICAL_SECTION@@KK@ZXZ@4QBW4module_id@?A0x14174aea@@B 0000000140043738     libvcruntimed:winapi_downlevel.obj
 0002:00001760       ?ExceptionTemplate@?1??UnwindNestedFrames@__FrameHandler3@@SAXPEA_KPEAUEHExceptionRecord@@PEAU_CONTEXT@@0PEAXPEBU_s_FuncInfo@@HHPEBU_s_HandlerType@@PEAU_xDISPATCHER_CONTEXT@@E@Z@4U_EXCEPTION_RECORD@@B 0000000140043760     libvcruntimed:risctrnsctrl.obj
 0002:00001b40       $cppxdata$??0?$output_adapter_data@DV?$string_output_adapter@D@__crt_stdio_output@@@__crt_stdio_output@@IEAA@AEBV?$string_output_adapter@D@1@_KQEBDAEAV__crt_cached_ptd_host@@QEAD@Z 0000000140043b40     libucrtd:output.obj
 0002:00001b68       $cppxdata$?find_next_state@?$output_processor@DV?$string_output_adapter@D@__crt_stdio_output@@V?$standard_base@DV?$string_output_adapter@D@__crt_stdio_output@@@2@@__crt_stdio_output@@AEBA?AW4state@2@DW432@@Z 0000000140043b68     libucrtd:output.obj
 0002:00001b90       $cppxdata$??0?$output_adapter_data@_WV?$string_output_adapter@_W@__crt_stdio_output@@@__crt_stdio_output@@IEAA@AEBV?$string_output_adapter@_W@1@_KQEB_WAEAV__crt_cached_ptd_host@@QEAD@Z 0000000140043b90     libucrtd:output.obj
 0002:00001bb8       $cppxdata$?find_next_state@?$output_processor@DV?$string_output_adapter@D@__crt_stdio_output@@V?$format_validation_base@DV?$string_output_adapter@D@__crt_stdio_output@@@2@@__crt_stdio_output@@AEBA?AW4state@2@DW432@@Z 0000000140043bb8     libucrtd:output.obj
 0002:00001be0       $cppxdata$?find_next_state@?$output_processor@_WV?$string_output_adapter@_W@__crt_stdio_output@@V?$format_validation_base@_WV?$string_output_adapter@_W@__crt_stdio_output@@@2@@__crt_stdio_output@@AEBA?AW4state@2@_WW432@@Z 0000000140043be0     libucrtd:output.obj
 0002:00004bc0       $cppxdata$??$common_configure_argv@D@@YAHW4_crt_argv_mode@@@Z 0000000140046bc0     libucrtd:argv_parsing.obj
 0002:00004d60       $cppxdata$??$uninitialize@A6AXAEAPEAPEAD@_E@?$dual_state_global@PEAPEAD@__crt_state_management@@QEAAXA6AXAEAPEAPEAD@_E@Z 0000000140046d60     libucrtd:environment_initialization.obj
 0002:00004d88       $cppxdata$??$uninitialize@A6AXAEAPEAPEA_W@_E@?$dual_state_global@PEAPEA_W@__crt_state_management@@QEAAXA6AXAEAPEAPEA_W@_E@Z 0000000140046d88     libucrtd:environment_initialization.obj
 0002:00004f38       $cppxdata$?try_cor_exit_process@@YAXI@Z 0000000140046f38     libucrtd:exit.obj
 0002:00004f60       $cppxdata$?common_exit@@YAXHW4_crt_exit_cleanup_mode@@W4_crt_exit_return_mode@@@Z 0000000140046f60     libucrtd:exit.obj
 0002:00004f88       $cppxdata$??$__acrt_lock_and_call@V<lambda_6e4b09c48022b2350581041d5f6b0c4c>@@@@YAXW4__acrt_lock_id@@$$QEAV<lambda_6e4b09c48022b2350581041d5f6b0c4c>@@@Z 0000000140046f88     libucrtd:exit.obj
 0002:00005210       $cppxdata$??$uninitialize@V<lambda_363eea9039da1e8169e2d060c7fe5cbc>@@@?$dual_state_global@PEAU__crt_locale_data@@@__crt_state_management@@QEAAX$$QEAV<lambda_363eea9039da1e8169e2d060c7fe5cbc>@@@Z 0000000140047210     libucrtd:wsetlocale.obj
 0002:00005238       $cppxdata$??$__acrt_lock_and_call@V<lambda_3e16ef9562a7dcce91392c22ab16ea36>@@@@YAXW4__acrt_lock_id@@$$QEAV<lambda_3e16ef9562a7dcce91392c22ab16ea36>@@@Z 0000000140047238     libucrtd:wsetlocale.obj
 0002:00005418       $cppxdata$??$__acrt_lock_and_call@V<lambda_208ce30acdd7200aa596f2796f4d5154>@@@@YAHW4__acrt_lock_id@@$$QEAV<lambda_208ce30acdd7200aa596f2796f4d5154>@@@Z 0000000140047418     libucrtd:onexit.obj
 0002:00005440       $cppxdata$??R<lambda_d121dba8a4adeaf3a9819e48611155df>@@QEBAHXZ 0000000140047440     libucrtd:onexit.obj
 0002:00005468       $cppxdata$??$__acrt_lock_and_call@V<lambda_d121dba8a4adeaf3a9819e48611155df>@@@@YAHW4__acrt_lock_id@@$$QEAV<lambda_d121dba8a4adeaf3a9819e48611155df>@@@Z 0000000140047468     libucrtd:onexit.obj
 0002:000054d0       __acrt_initializers        00000001400474d0     libucrtd:initialization.obj
 0002:000055d0       $cppxdata$??$uninitialize@V<lambda_af27fe6ede5d83bbdbd622796c194e9c>@@@?$dual_state_global@PEAU__crt_multibyte_data@@@__crt_state_management@@QEAAX$$QEAV<lambda_af27fe6ede5d83bbdbd622796c194e9c>@@@Z 00000001400475d0     libucrtd:initialization.obj
 0002:000055f8       ?block_use_names@@3QBQEBDB 00000001400475f8     libucrtd:debug_heap.obj
 0002:00005648       $cppxdata$?realloc_dbg_nolock@@YAPEAXQEAXQEA_KHQEBDH_N@Z 0000000140047648     libucrtd:debug_heap.obj
 0002:00005670       $cppxdata$?free_dbg_nolock@@YAXQEAXH@Z 0000000140047670     libucrtd:debug_heap.obj
 0002:00005698       $cppxdata$?dump_all_object_since_nolock@@YAXQEBU_CrtMemState@@@Z 0000000140047698     libucrtd:debug_heap.obj
 0002:000067e0       ?report_type_messages@@3QBQEB_WB 00000001400487e0     libucrtd:dbgrpt.obj
 0002:00006840       ?more_info_string@@3QEB_WEB 0000000140048840     libucrtd:dbgrpt.obj
 0002:00006b4e       ?empty_string@?1???$common_message_window@D@@YAHHQEAXQEBD111@Z@4QBDB 0000000140048b4e     libucrtd:dbgrpt.obj
 0002:00006dc8       ?empty_string@?1???$common_message_window@_W@@YAHHQEAXQEB_W111@Z@4QB_WB 0000000140048dc8     libucrtd:dbgrpt.obj
 0002:00006dd0       ?errtable@@3QBUerrentry@?A0x31fdb9ec@@B 0000000140048dd0     libucrtd:errno.obj
 0002:00006f60       ?strings@?1??fp_format_nan_or_infinity@@YAHW4__acrt_fp_class@@_NPEAD_K1@Z@4QAY03QEBDA 0000000140048f60     libucrtd:cvt.obj
 0002:00007a78       $cppxdata$?construct_ptd@@YAXQEAU__acrt_ptd@@QEAPEAU__crt_locale_data@@@Z 0000000140049a78     libucrtd:per_thread_data.obj
 0002:00007aa0       $cppxdata$??$__acrt_lock_and_call@V<lambda_8d0ee55de4b1038c4002e0adecdf1839>@@@@YAXW4__acrt_lock_id@@$$QEAV<lambda_8d0ee55de4b1038c4002e0adecdf1839>@@@Z 0000000140049aa0     libucrtd:per_thread_data.obj
 0002:00007ac8       $cppxdata$??$__acrt_lock_and_call@V<lambda_92619d2358a28f41a33ba319515a20b9>@@@@YAXW4__acrt_lock_id@@$$QEAV<lambda_92619d2358a28f41a33ba319515a20b9>@@@Z 0000000140049ac8     libucrtd:per_thread_data.obj
 0002:00007af0       $cppxdata$?destroy_ptd@@YAXQEAU__acrt_ptd@@@Z 0000000140049af0     libucrtd:per_thread_data.obj
 0002:00007b18       $cppxdata$??$__acrt_lock_and_call@V<lambda_e157831efee4ea0afb0a2ace5dd5fd0d>@@@@YAXW4__acrt_lock_id@@$$QEAV<lambda_e157831efee4ea0afb0a2ace5dd5fd0d>@@@Z 0000000140049b18     libucrtd:per_thread_data.obj
 0002:00007b40       $cppxdata$??$__acrt_lock_and_call@V<lambda_8f455de75cd7d7f24b4096f044d8b9e6>@@@@YAXW4__acrt_lock_id@@$$QEAV<lambda_8f455de75cd7d7f24b4096f044d8b9e6>@@@Z 0000000140049b40     libucrtd:per_thread_data.obj
 0002:000083d8       $cppxdata$??1?$__crt_win32_buffer@DU__crt_win32_buffer_internal_dynamic_resizing@@@@QEAA@XZ 000000014004a3d8     libucrtd:argv_wildcards.obj
 0002:000083d8       $cppxdata$??1?$__crt_win32_buffer@_WU__crt_win32_buffer_internal_dynamic_resizing@@@@QEAA@XZ 000000014004a3d8     libucrtd:argv_wildcards.obj
 0002:00008400       $cppxdata$??$tcspbrk@AEAPEADAEAY02$$CBD@?$__crt_char_traits@D@@SAPEADAEAPEADAEAY02$$CBD@Z 000000014004a400     libucrtd:argv_wildcards.obj
 0002:00008428       $cppxdata$??$expand_argument_wildcards@D@@YAHQEAD0AEAV?$argument_list@D@?A0x5f5c8891@@@Z 000000014004a428     libucrtd:argv_wildcards.obj
 0002:00008848       $cppxdata$??1?$__crt_win32_buffer@DU__crt_win32_buffer_no_resizing@@@@QEAA@XZ 000000014004a848     libucrtd:getmodulefilenamea.obj
 0002:00008870       ?_mb_locale_names@@3QBQEB_WB 000000014004a870     libucrtd:mbctype.obj
 0002:000088d0       $cppxdata$?setmbcp_internal@@YAHH_NQEAU__acrt_ptd@@QEAPEAU__crt_multibyte_data@@@Z 000000014004a8d0     libucrtd:mbctype.obj
 0002:000088f8       $cppxdata$??$__acrt_lock_and_call@V<lambda_bd5a608237428601b7e45fbdc72b1ae8>@@@@YAXW4__acrt_lock_id@@$$QEAV<lambda_bd5a608237428601b7e45fbdc72b1ae8>@@@Z 000000014004a8f8     libucrtd:mbctype.obj
 0002:00009640       ?module_names@?A0x391cf84c@@3QBQEB_WB 000000014004b640     libucrtd:winapi_thunks.obj
 0002:00009bc4       ?candidate_modules@?1??try_get_AreFileApisANSI@@YAP6AHXZXZ@4QBW4module_id@?A0x391cf84c@@B 000000014004bbc4     libucrtd:winapi_thunks.obj
 0002:00009bd8       ?candidate_modules@?1??try_get_GetActiveWindow@@YAP6APEAUHWND__@@XZXZ@4QBW4module_id@?A0x391cf84c@@B 000000014004bbd8     libucrtd:winapi_thunks.obj
 0002:00009bf0       ?candidate_modules@?1??try_get_GetLastActivePopup@@YAP6APEAUHWND__@@PEAU2@@ZXZ@4QBW4module_id@?A0x391cf84c@@B 000000014004bbf0     libucrtd:winapi_thunks.obj
 0002:00009c10       ?candidate_modules@?1??try_get_GetProcessWindowStation@@YAP6APEAUHWINSTA__@@XZXZ@4QBW4module_id@?A0x391cf84c@@B 000000014004bc10     libucrtd:winapi_thunks.obj
 0002:00009c30       ?candidate_modules@?1??try_get_GetUserObjectInformationW@@YAP6AHPEAXH0KPEAK@ZXZ@4QBW4module_id@?A0x391cf84c@@B 000000014004bc30     libucrtd:winapi_thunks.obj
 0002:00009c58       ?candidate_modules@?1??try_get_InitializeCriticalSectionEx@@YAP6AHPEAU_RTL_CRITICAL_SECTION@@KK@ZXZ@4QBW4module_id@?A0x391cf84c@@B 000000014004bc58     libucrtd:winapi_thunks.obj
 0002:00009c60       ?candidate_modules@?1??try_get_LCMapStringEx@@YAP6AHPEB_WK0HPEA_WHPEAU_nlsversioninfo@@PEAX_J@ZXZ@4QBW4module_id@?A0x391cf84c@@B 000000014004bc60     libucrtd:winapi_thunks.obj
 0002:00009c78       ?candidate_modules@?1??try_get_LocaleNameToLCID@@YAP6AKPEB_WK@ZXZ@4QBW4module_id@?A0x391cf84c@@B 000000014004bc78     libucrtd:winapi_thunks.obj
 0002:00009c98       ?candidate_modules@?1??try_get_MessageBoxA@@YAP6AHPEAUHWND__@@PEBD1I@ZXZ@4QBW4module_id@?A0x391cf84c@@B 000000014004bc98     libucrtd:winapi_thunks.obj
 0002:00009cb0       ?candidate_modules@?1??try_get_MessageBoxW@@YAP6AHPEAUHWND__@@PEB_W1I@ZXZ@4QBW4module_id@?A0x391cf84c@@B 000000014004bcb0     libucrtd:winapi_thunks.obj
 0002:00009cc4       ?candidate_modules@?1??try_get_AppPolicyGetProcessTerminationMethod@@YAP6AJPEAXPEAW4AppPolicyProcessTerminationMethod@@@ZXZ@4QBW4module_id@?A0x391cf84c@@B 000000014004bcc4     libucrtd:winapi_thunks.obj
 0002:00009cf0       ?candidate_modules@?1??try_get_AppPolicyGetShowDeveloperDiagnostic@@YAP6AJPEAXPEAW4AppPolicyShowDeveloperDiagnostic@@@ZXZ@4QBW4module_id@?A0x391cf84c@@B 000000014004bcf0     libucrtd:winapi_thunks.obj
 0002:00009d1c       ?candidate_modules@?1??try_get_AppPolicyGetWindowingModel@@YAP6AJPEAXPEAW4AppPolicyWindowingModel@@@ZXZ@4QBW4module_id@?A0x391cf84c@@B 000000014004bd1c     libucrtd:winapi_thunks.obj
 0002:00009d40       $cppxdata$??$__acrt_lock_and_call@V<lambda_44731a7d0e6d81c3e6aa82d741081786>@@@@YAP6AXH@ZW4__acrt_lock_id@@$$QEAV<lambda_44731a7d0e6d81c3e6aa82d741081786>@@@Z 000000014004bd40     libucrtd:signal.obj
 0002:0000bdb0       $cppxdata$?common_flush_all@@YAH_N@Z 000000014004ddb0     libucrtd:fflush.obj
 0002:0000bdd8       $cppxdata$??$__acrt_lock_stream_and_call@V<lambda_c5860995281e5c4ce005b3de8f5874ee>@@@@YAXQEAU_iobuf@@$$QEAV<lambda_c5860995281e5c4ce005b3de8f5874ee>@@@Z 000000014004ddd8     libucrtd:fflush.obj
 0002:0000be00       $cppxdata$??$__acrt_lock_and_call@V<lambda_ab61a845afdef5b7c387490eaf3616ee>@@@@YAXW4__acrt_lock_id@@$$QEAV<lambda_ab61a845afdef5b7c387490eaf3616ee>@@@Z 000000014004de00     libucrtd:fflush.obj
 0002:0000bf10       $cppxdata$?shortsort@@YAXPEAD0_KP6AHPEBX2@Z@Z 000000014004df10     libucrtd:qsort.obj
 0002:0000c2a0       ?LcidToLocaleNameTable@?A0x881e4c05@@3QBULcidToLocaleName@1@B 000000014004e2a0     libucrtd:lcidtoname_downlevel.obj
 0002:0000dcf0       ?LocaleNameToIndexTable@?A0x881e4c05@@3QBULocaleNameIndex@1@B 000000014004fcf0     libucrtd:lcidtoname_downlevel.obj
 0002:0000f588       $cppxdata$?_mbstowcs_l_helper@@YA_KPEA_WPEBD_KAEAV__crt_cached_ptd_host@@@Z 0000000140051588     libucrtd:mbstowcs.obj
 0002:0000f930       __real_ninf                0000000140051930     libucrtd:log10.obj
 0002:0000f940       __real_inf                 0000000140051940     libucrtd:log10.obj
 0002:0000f950       __real_neg_qnan            0000000140051950     libucrtd:log10.obj
 0002:0000f960       __real_qnanbit             0000000140051960     libucrtd:log10.obj
 0002:0000f970       __int_1023                 0000000140051970     libucrtd:log10.obj
 0002:0000f980       __mask_001                 0000000140051980     libucrtd:log10.obj
 0002:0000f990       __mask_mant                0000000140051990     libucrtd:log10.obj
 0002:0000f9a0       __mask_mant_top8           00000001400519a0     libucrtd:log10.obj
 0002:0000f9b0       __mask_mant9               00000001400519b0     libucrtd:log10.obj
 0002:0000f9c0       __real_log10_e             00000001400519c0     libucrtd:log10.obj
 0002:0000f9d0       __real_log10_e_lead        00000001400519d0     libucrtd:log10.obj
 0002:0000f9e0       __real_log10_e_tail        00000001400519e0     libucrtd:log10.obj
 0002:0000f9f0       __real_log10_2_lead        00000001400519f0     libucrtd:log10.obj
 0002:0000fa00       __real_log10_2_tail        0000000140051a00     libucrtd:log10.obj
 0002:0000fa10       __real_two                 0000000140051a10     libucrtd:log10.obj
 0002:0000fa20       __real_one                 0000000140051a20     libucrtd:log10.obj
 0002:0000fa30       __real_half                0000000140051a30     libucrtd:log10.obj
 0002:0000fa40       __mask_100                 0000000140051a40     libucrtd:log10.obj
 0002:0000fa50       __real_1_over_512          0000000140051a50     libucrtd:log10.obj
 0002:0000fa60       __real_1_over_2            0000000140051a60     libucrtd:log10.obj
 0002:0000fa70       __real_1_over_3            0000000140051a70     libucrtd:log10.obj
 0002:0000fa80       __real_1_over_4            0000000140051a80     libucrtd:log10.obj
 0002:0000fa90       __real_1_over_5            0000000140051a90     libucrtd:log10.obj
 0002:0000faa0       __real_1_over_6            0000000140051aa0     libucrtd:log10.obj
 0002:0000fab0       __real_neg_1023            0000000140051ab0     libucrtd:log10.obj
 0002:0000fac0       __mask_2045                0000000140051ac0     libucrtd:log10.obj
 0002:0000fad0       __real_threshold           0000000140051ad0     libucrtd:log10.obj
 0002:0000fae0       __real_near_one_lt         0000000140051ae0     libucrtd:log10.obj
 0002:0000faf0       __real_near_one_gt         0000000140051af0     libucrtd:log10.obj
 0002:0000fb00       __real_min_norm            0000000140051b00     libucrtd:log10.obj
 0002:0000fb10       __real_notsign             0000000140051b10     libucrtd:log10.obj
 0002:0000fb20       __real_ca1                 0000000140051b20     libucrtd:log10.obj
 0002:0000fb30       __real_ca2                 0000000140051b30     libucrtd:log10.obj
 0002:0000fb40       __real_ca3                 0000000140051b40     libucrtd:log10.obj
 0002:0000fb50       __real_ca4                 0000000140051b50     libucrtd:log10.obj
 0002:0000fb60       __mask_lower               0000000140051b60     libucrtd:log10.obj
 0002:0000fb70       __flag_x_zero              0000000140051b70     libucrtd:log10.obj
 0002:0000fb74       __flag_x_neg               0000000140051b74     libucrtd:log10.obj
 0002:0000fb78       __flag_x_nan               0000000140051b78     libucrtd:log10.obj
 0002:0000fcf8       $cppxdata$??$__acrt_lowio_lock_fh_and_call@V<lambda_3e4146214822e0ea86c47ff907aef2ff>@@@@YAHH$$QEAV<lambda_3e4146214822e0ea86c47ff907aef2ff>@@@Z 0000000140051cf8     libucrtd:commit.obj
 0002:0000fd90       $cppxdata$?write_double_translated_ansi_nolock@@YA?AUwrite_result@?A0x17268360@@HQEBDIAEAV__crt_cached_ptd_host@@@Z 0000000140051d90     libucrtd:write.obj
 0002:000119d8       $cppxdata$??$__acrt_lowio_lock_fh_and_call@V<lambda_af29824b49a67d335554598d6cad2be6>@@@@YAHH$$QEAV<lambda_af29824b49a67d335554598d6cad2be6>@@@Z 00000001400539d8     libucrtd:close.obj
 0002:00011a80       __real@433fffffffffffff    0000000140053a80     libucrtd:fpsr.obj
 0002:00011a88       __real@c33fffffffffffff    0000000140053a88     libucrtd:fpsr.obj
 0002:00011a90       $cppxdata$??$console_output_reopen_and_retry@V<lambda_61c1b8a38cedca4df5fdc542e6ccae6d>@@@@YAHAEBV<lambda_61c1b8a38cedca4df5fdc542e6ccae6d>@@@Z 0000000140053a90     libucrtd:initcon.obj
 0002:00011c90       MoveSmall                  0000000140053c90     libvcruntimed:memcpy.obj
 0002:00011cd0       MoveSmallYmm               0000000140053cd0     libvcruntimed:memcpy.obj
 0002:00011cf4       MoveSmallYmmNT             0000000140053cf4     libvcruntimed:memcpy.obj
 0002:00011d18       MoveSmallXmm               0000000140053d18     libvcruntimed:memcpy.obj
 0002:00011d40       SetSmall                   0000000140053d40     libvcruntimed:memset.obj
 0002:00011d80       SetSmallYmm                0000000140053d80     libvcruntimed:memset.obj
 0002:00011da4       SetSmallYmmNT              0000000140053da4     libvcruntimed:memset.obj
 0002:00011dc8       SetSmallXmm                0000000140053dc8     libvcruntimed:memset.obj
 0002:000123e8       $unwind$_vsnprintf_l       00000001400543e8     platform.obj
 0002:000123e8       $unwind$?should_round_up@@YA_NQEBD0HW4__acrt_has_trailing_digits@@W4__acrt_rounding_mode@@@Z 00000001400543e8     libucrtd:_fptostr.obj
 0002:000123e8       $unwind$memcpy_s           00000001400543e8     libucrtd:cfout.obj
 0002:000123e8       $unwind$?__mbrtowc_utf8@__crt_mbstring@@YA_KPEA_WPEBD_KPEAU_Mbstatet@@AEAV__crt_cached_ptd_host@@@Z 00000001400543e8     libucrtd:mbrtowc.obj
 0002:000123e8       $unwind$memcpy_s           00000001400543e8     libucrtd:mbctype.obj
 0002:000123e8       $unwind$_snwprintf_s       00000001400543e8     libucrtd:dbgrpt.obj
 0002:000123e8       $unwind$_snprintf_s        00000001400543e8     libucrtd:dbgrptt.obj
 0002:000123e8       $unwind$??$_tcstol_internal@DPEAPEAD$0A@@@YAJAEAV__crt_cached_ptd_host@@QEBDQEAPEADH@Z 00000001400543e8     libucrtd:output.obj
 0002:000123e8       $unwind$??$_tcstol_internal@_WPEAPEA_W$0A@@@YAJAEAV__crt_cached_ptd_host@@QEB_WQEAPEA_WH@Z 00000001400543e8     libucrtd:output.obj
 0002:000123e8       $unwind$?write_string@?$string_output_adapter@D@__crt_stdio_output@@QEBAXQEBDHQEAHAEAV__crt_cached_ptd_host@@@Z 00000001400543e8     libucrtd:output.obj
 0002:000123e8       $unwind$?write_string@?$string_output_adapter@_W@__crt_stdio_output@@QEBAXQEB_WHQEAHAEAV__crt_cached_ptd_host@@@Z 00000001400543e8     libucrtd:output.obj
 0002:000123e8       $unwind$_raise_exc         00000001400543e8     libucrtd:fpexcept.obj
 0002:000123e8       $unwind$__GSHandlerCheck_EH 00000001400543e8     LIBCMTD:gshandlereh.obj
 0002:000123e8       $unwind$__GSHandlerCheck_SEH 00000001400543e8     LIBCMTD:gshandlerseh.obj
 0002:000123e8       $unwind$??$__InternalCxxFrameHandlerWrapper@V__FrameHandler3@@@@YA?AW4_EXCEPTION_DISPOSITION@@PEAUEHExceptionRecord@@PEA_KPEAU_CONTEXT@@PEAU_xDISPATCHER_CONTEXT@@PEBU_s_FuncInfo@@H1E@Z 00000001400543e8     libvcruntimed:frame.obj
 0002:000123e8       $unwind$_vsprintf_s_l      00000001400543e8     libvcruntimed:undname.obj
 0002:000123e8       $unwind$sprintf_s          00000001400543e8     libvcruntimed:undname.obj
 0002:000123f0       $unwind$_vsprintf_l        00000001400543f0     platform.obj
 0002:000123f0       $unwind$sprintf            00000001400543f0     platform.obj
 0002:000123f0       $unwind$_calloc_dbg        00000001400543f0     libucrtd:debug_heap.obj
 0002:000123f0       $unwind$?common_lseek_do_seek_nolock@@YA_JQEAX_JHAEAV__crt_cached_ptd_host@@@Z 00000001400543f0     libucrtd:lseek.obj
 0002:000123f0       $unwind$_vsnprintf_s       00000001400543f0     libucrtd:dbgrptt.obj
 0002:000123f0       $unwind$??$?0AEBV?$string_output_adapter@D@__crt_stdio_output@@AEB_KAEBQEBDAEAV__crt_cached_ptd_host@@AEBQEAD@?$format_validation_base@DV?$string_output_adapter@D@__crt_stdio_output@@@__crt_stdio_output@@IEAA@AEBV?$string_output_adapter@D@1@AEB_KAEBQEBDAEAV__crt_cached_ptd_host@@AEBQEAD@Z 00000001400543f0     libucrtd:output.obj
 0002:000123f0       $unwind$??$?0AEBV?$string_output_adapter@D@__crt_stdio_output@@AEB_KAEBQEBDAEAV__crt_cached_ptd_host@@AEBQEAD@?$standard_base@DV?$string_output_adapter@D@__crt_stdio_output@@@__crt_stdio_output@@IEAA@AEBV?$string_output_adapter@D@1@AEB_KAEBQEBDAEAV__crt_cached_ptd_host@@AEBQEAD@Z 00000001400543f0     libucrtd:output.obj
 0002:000123f0       $unwind$??$?0AEBV?$string_output_adapter@_W@__crt_stdio_output@@AEB_KAEBQEB_WAEAV__crt_cached_ptd_host@@AEBQEAD@?$format_validation_base@_WV?$string_output_adapter@_W@__crt_stdio_output@@@__crt_stdio_output@@IEAA@AEBV?$string_output_adapter@_W@1@AEB_KAEBQEB_WAEAV__crt_cached_ptd_host@@AEBQEAD@Z 00000001400543f0     libucrtd:output.obj
 0002:000123f0       $unwind$??$?0AEBV?$string_output_adapter@_W@__crt_stdio_output@@AEB_KAEBQEB_WAEAV__crt_cached_ptd_host@@AEBQEAD@?$standard_base@_WV?$string_output_adapter@_W@__crt_stdio_output@@@__crt_stdio_output@@IEAA@AEBV?$string_output_adapter@_W@1@AEB_KAEBQEB_WAEAV__crt_cached_ptd_host@@AEBQEAD@Z 00000001400543f0     libucrtd:output.obj
 0002:000123f0       $unwind$??0?$output_processor@DV?$string_output_adapter@D@__crt_stdio_output@@V?$format_validation_base@DV?$string_output_adapter@D@__crt_stdio_output@@@2@@__crt_stdio_output@@QEAA@AEBV?$string_output_adapter@D@1@_KQEBDAEAV__crt_cached_ptd_host@@QEAD@Z 00000001400543f0     libucrtd:output.obj
 0002:000123f0       $unwind$??0?$output_processor@DV?$string_output_adapter@D@__crt_stdio_output@@V?$standard_base@DV?$string_output_adapter@D@__crt_stdio_output@@@2@@__crt_stdio_output@@QEAA@AEBV?$string_output_adapter@D@1@_KQEBDAEAV__crt_cached_ptd_host@@QEAD@Z 00000001400543f0     libucrtd:output.obj
 0002:000123f0       $unwind$??0?$output_processor@_WV?$string_output_adapter@_W@__crt_stdio_output@@V?$format_validation_base@_WV?$string_output_adapter@_W@__crt_stdio_output@@@2@@__crt_stdio_output@@QEAA@AEBV?$string_output_adapter@_W@1@_KQEB_WAEAV__crt_cached_ptd_host@@QEAD@Z 00000001400543f0     libucrtd:output.obj
 0002:000123f0       $unwind$??$__acrt_fenv_translate_bit@W4__acrt_fenv_abstract_control@@W4__acrt_fenv_machine_sse_control@@@@YA?AW4__acrt_fenv_abstract_control@@W4__acrt_fenv_machine_sse_control@@0W40@1@Z 00000001400543f0     libucrtd:_fenvutils.obj
 0002:000123f0       $unwind$??$__acrt_fenv_translate_bit@W4__acrt_fenv_machine_sse_control@@W4__acrt_fenv_abstract_control@@@@YA?AW4__acrt_fenv_machine_sse_control@@W4__acrt_fenv_abstract_control@@0W40@1@Z 00000001400543f0     libucrtd:_fenvutils.obj
 0002:000123f0       $unwind$__C_specific_handler_noexcept 00000001400543f0     libvcruntimed:chandler_noexcept.obj
 0002:000123f0       $unwind$?SetUnwindTryBlock@__FrameHandler3@@SAXPEA_KPEAU_xDISPATCHER_CONTEXT@@PEBU_s_FuncInfo@@H@Z 00000001400543f0     libvcruntimed:ehstate.obj
 0002:000123f0       $unwind$?_CallMemberFunction2@@YAXQEAX00H@Z 00000001400543f0     libvcruntimed:frame.obj
 0002:000123f8       $unwind$?dword_mask_for_bit@@YA_KI@Z 00000001400543f8     platform.obj
 0002:000123f8       $unwind$?bit_scan_reverse@__crt_strtox@@YAII@Z 00000001400543f8     libucrtd:cfout.obj
 0002:000123f8       $unwind$?count_sequential_high_zeroes@__crt_strtox@@YAII@Z 00000001400543f8     libucrtd:cfout.obj
 0002:000123f8       $unwind$?is_block_type_valid@@YA_NH@Z 00000001400543f8     libucrtd:debug_heap.obj
 0002:000123f8       $unwind$?appmodel_policy_to_policy_type@windowing_model_policy_properties@?1??__acrt_get_windowing_model_policy@@YA?AW4windowing_model_policy@@XZ@SA?AW43@J@Z 00000001400543f8     libucrtd:win_policies.obj
 0002:000123f8       $unwind$?get_std_handle_id@@YAKH@Z 00000001400543f8     libucrtd:ioinit.obj
 0002:000123f8       $unwind$?CPtoLocaleName@@YAPEB_WH@Z 00000001400543f8     libucrtd:mbctype.obj
 0002:000123f8       $unwind$__acrt_errno_from_os_error 00000001400543f8     libucrtd:errno.obj
 0002:000123f8       $unwind$?is_stream_allocated@@YA_NJ@Z 00000001400543f8     libucrtd:fflush.obj
 0002:000123f8       $unwind$?to_integer_size@__crt_stdio_output@@YA_KW4length_modifier@1@@Z 00000001400543f8     libucrtd:output.obj
 0002:000123f8       $unwind$__ascii_iswalpha   00000001400543f8     libucrtd:output.obj
 0002:000123f8       $unwind$_abstract_cw       00000001400543f8     libucrtd:ieee.obj
 0002:000123f8       $unwind$_abstract_sw       00000001400543f8     libucrtd:ieee.obj
 0002:000123f8       $unwind$_hw_cw             00000001400543f8     libucrtd:ieee.obj
 0002:00012400       $unwind$?bit_array_set@@YAXUBit_array@@I@Z 0000000140054400     platform.obj
 0002:00012400       $unwind$?bit_array_unset@@YAXUBit_array@@I@Z 0000000140054400     platform.obj
 0002:00012400       $unwind$__acrt_LocaleNameToLCID 0000000140054400     libucrtd:winapi_thunks.obj
 0002:00012400       $unwind$__acrt_errno_map_os_error_ptd 0000000140054400     libucrtd:errno.obj
 0002:00012400       $unwind$?unget@?$c_string_character_source@D@__crt_strtox@@QEAAXD@Z 0000000140054400     libucrtd:output.obj
 0002:00012400       $unwind$__vcrt_FlsSetValue 0000000140054400     libvcruntimed:winapi_downlevel.obj
 0002:00012408       $unwind$?bit_array_get@@YAHUBit_array@@I@Z 0000000140054408     platform.obj
 0002:00012408       $unwind$_close_nolock_internal 0000000140054408     libucrtd:close.obj
 0002:00012408       $unwind$?write_requires_double_translation_nolock@@YA_NHAEAV__crt_cached_ptd_host@@@Z 0000000140054408     libucrtd:write.obj
 0002:00012408       $unwind$?has_any_of@__crt_stdio_stream@@QEBA_NJ@Z 0000000140054408     libucrtd:_sftbuf.obj
 0002:00012408       $unwind$?has_all_of@__crt_stdio_stream@@QEBA_NJ@Z 0000000140054408     libucrtd:fflush.obj
 0002:00012408       $unwind$_exception_enabled 0000000140054408     libucrtd:libm_error.obj
 0002:00012408       $unwind$?_FilterSetCurrentException@@YAKPEAU_EXCEPTION_POINTERS@@E@Z 0000000140054408     libvcruntimed:ehhelpers.obj
 0002:00012408       $unwind$?CatchTryBlock@__FrameHandler3@@SAPEBU_s_TryBlockMapEntry@@PEBU_s_FuncInfo@@H@Z 0000000140054408     libvcruntimed:risctrnsctrl.obj
 0002:00012410       $unwind$WinMain            0000000140054410     platform.obj
 0002:00012424       $unwind$?load_dll@@YAPEAUHINSTANCE__@@XZ 0000000140054424     platform.obj
 0002:0001242c       $unwind$?unload_dll@@YAXPEAUHINSTANCE__@@@Z 000000014005442c     platform.obj
 0002:00012434       $unwind$?window_procedure@@YA_JPEAUHWND__@@I_K_J@Z 0000000140054434     platform.obj
 0002:00012448       $unwind$?create_or_open_file_for_writing@@YAXPEBEPEAPEAX@Z 0000000140054448     platform.obj
 0002:00012448       $unwind$?open_existing_file_for_reading@@YAHPEBEPEAPEAX@Z 0000000140054448     platform.obj
 0002:00012448       $unwind$?_fclose_nolock_internal@@YAHQEAU_iobuf@@AEAV__crt_cached_ptd_host@@@Z 0000000140054448     libucrtd:fclose.obj
 0002:00012448       $unwind$__acrt_stdio_flush_nolock 0000000140054448     libucrtd:fflush.obj
 0002:00012448       $unwind$?type_case_c_tchar@?$output_processor@_WV?$string_output_adapter@_W@__crt_stdio_output@@V?$format_validation_base@_WV?$string_output_adapter@_W@__crt_stdio_output@@@2@@__crt_stdio_output@@AEAA_N_W@Z 0000000140054448     libucrtd:output.obj
 0002:00012448       $unwind$?IsInExceptionSpec@@YAEPEAUEHExceptionRecord@@PEBU_s_ESTypeList@@@Z 0000000140054448     libvcruntimed:frame.obj
 0002:00012448       $unwind$__std_exception_copy 0000000140054448     libvcruntimed:std_exception.obj
 0002:00012450       $unwind$?copy_and_maybe_overwrite_file@@YAHPEBE0@Z 0000000140054450     platform.obj
 0002:00012450       $unwind$?copy_file@@YAHPEBE0@Z 0000000140054450     platform.obj
 0002:00012450       $unwind$?get_file_size@@YAHPEBEPEAI@Z 0000000140054450     platform.obj
 0002:00012450       $unwind$?move_and_maybe_overwrite_file@@YAHPEBE0@Z 0000000140054450     platform.obj
 0002:00012450       $unwind$?move_file@@YAHPEBE0@Z 0000000140054450     platform.obj
 0002:00012450       $unwind$??0big_integer@__crt_strtox@@QEAA@AEBU01@@Z 0000000140054450     libucrtd:cfout.obj
 0002:00012450       $unwind$??4big_integer@__crt_strtox@@QEAAAEAU01@AEBU01@@Z 0000000140054450     libucrtd:cfout.obj
 0002:00012450       $unwind$??9__crt_strtox@@YA_NAEBUbig_integer@0@0@Z 0000000140054450     libucrtd:cfout.obj
 0002:00012450       $unwind$_realloc_base      0000000140054450     libucrtd:realloc_base.obj
 0002:00012450       $unwind$?allocate@?$__crt_win32_buffer@DU__crt_win32_buffer_no_resizing@@@@QEAAH_K@Z 0000000140054450     libucrtd:getmodulefilenamea.obj
 0002:00012450       $unwind$?internal_getptd_noexit@@YAPEAU__acrt_ptd@@AEBV__crt_scoped_get_last_error_reset@@_K@Z 0000000140054450     libucrtd:per_thread_data.obj
 0002:00012450       $unwind$?try_get_first_available_module@@YAPEAUHINSTANCE__@@QEBW4module_id@?A0x391cf84c@@0@Z 0000000140054450     libucrtd:winapi_thunks.obj
 0002:00012450       $unwind$?free_crt_array_internal@@YAXQEAPEBX_K@Z 0000000140054450     libucrtd:inittime.obj
 0002:00012450       $unwind$_updatetlocinfoEx_nolock 0000000140054450     libucrtd:locale_refcounting.obj
 0002:00012450       $unwind$??$initialize_from_array@$$BY10BAA@E@?$dual_state_global@PEAE@__crt_state_management@@QEAAXAEAY10BAA@E@Z 0000000140054450     libucrtd:mbctype.obj
 0002:00012450       $unwind$??$initialize_from_array@$$BY10BAB@E@?$dual_state_global@PEAE@__crt_state_management@@QEAAXAEAY10BAB@E@Z 0000000140054450     libucrtd:mbctype.obj
 0002:00012450       $unwind$??$initialize_from_array@$$BY00Q6AXPEB_W00I_K@Z@?$dual_state_global@P6AXPEB_W00I_K@Z@__crt_state_management@@QEAAXAEAY00Q6AXPEB_W00I_K@Z@Z 0000000140054450     libucrtd:invalid_parameter.obj
 0002:00012450       $unwind$?allocate@?$__crt_win32_buffer@DU__crt_win32_buffer_internal_dynamic_resizing@@@@QEAAH_K@Z 0000000140054450     libucrtd:argv_wildcards.obj
 0002:00012450       $unwind$?allocate@?$__crt_win32_buffer@_WU__crt_win32_buffer_internal_dynamic_resizing@@@@QEAAH_K@Z 0000000140054450     libucrtd:argv_wildcards.obj
 0002:00012450       $unwind$?append@?$argument_list@D@?A0x5f5c8891@@QEAAHQEAD@Z 0000000140054450     libucrtd:argv_wildcards.obj
 0002:00012450       $unwind$?get_file_name@@YAPEADQEAV?$__crt_win32_buffer@DU__crt_win32_buffer_internal_dynamic_resizing@@@@QEA_W@Z 0000000140054450     libucrtd:argv_wildcards.obj
 0002:00012450       $unwind$?get_wide@@YAPEA_WQEAV?$__crt_win32_buffer@_WU__crt_win32_buffer_internal_dynamic_resizing@@@@QEAD@Z 0000000140054450     libucrtd:argv_wildcards.obj
 0002:00012450       $unwind$_initterm          0000000140054450     libucrtd:initterm.obj
 0002:00012450       $unwind$?_fflush_nolock_internal@@YAHQEAU_iobuf@@AEAV__crt_cached_ptd_host@@@Z 0000000140054450     libucrtd:fflush.obj
 0002:00012450       $unwind$?common_flush_all_should_try_to_flush_stream@@YA_NV__crt_stdio_stream@@QEAH@Z 0000000140054450     libucrtd:fflush.obj
 0002:00012450       $unwind$??$extract_argument_from_va_list@U_CRT_DOUBLE@@U1@@?$standard_base@DV?$string_output_adapter@D@__crt_stdio_output@@@__crt_stdio_output@@IEAA_NAEAU_CRT_DOUBLE@@@Z 0000000140054450     libucrtd:output.obj
 0002:00012450       $unwind$??$extract_argument_from_va_list@U_CRT_DOUBLE@@U1@@?$standard_base@_WV?$string_output_adapter@_W@__crt_stdio_output@@@__crt_stdio_output@@IEAA_NAEAU_CRT_DOUBLE@@@Z 0000000140054450     libucrtd:output.obj
 0002:00012450       $unwind$?force_decimal_point@__crt_stdio_output@@YAXPEADQEAU__crt_locale_pointers@@@Z 0000000140054450     libucrtd:output.obj
 0002:00012450       $unwind$??$common_strnlen_c@$00G@@YA_KQEBG_K@Z 0000000140054450     libucrtd:strnlen.obj
 0002:00012450       $unwind$??$common_strnlen_c@$0A@E@@YA_KQEBE_K@Z 0000000140054450     libucrtd:strnlen.obj
 0002:00012450       $unwind$??$common_strnlen_c@$0A@G@@YA_KQEBG_K@Z 0000000140054450     libucrtd:strnlen.obj
 0002:00012450       $unwind$?find_pe_section@@YAPEAU_IMAGE_SECTION_HEADER@@QEAE_K@Z 0000000140054450     LIBCMTD:utility.obj
 0002:00012450       $unwind$?_CallMemberFunction0@@YAXQEAX0@Z 0000000140054450     libvcruntimed:ehhelpers.obj
 0002:00012450       $unwind$?StateFromControlPc@__FrameHandler3@@SAHPEBU_s_FuncInfo@@PEAU_xDISPATCHER_CONTEXT@@@Z 0000000140054450     libvcruntimed:ehstate.obj
 0002:00012450       $unwind$??8type_info@@QEBA_NAEBV0@@Z 0000000140054450     libvcruntimed:frame.obj
 0002:00012450       $unwind$??9iterator@HandlerMap@__FrameHandler3@@QEBA_NAEBV012@@Z 0000000140054450     libvcruntimed:frame.obj
 0002:00012450       $unwind$?ExecutionInCatch@__FrameHandler3@@SA_NPEAU_xDISPATCHER_CONTEXT@@PEBU_s_FuncInfo@@@Z 0000000140054450     libvcruntimed:risctrnsctrl.obj
 0002:00012450       $unwind$_CreateFrameInfo   0000000140054450     libvcruntimed:risctrnsctrl.obj
 0002:00012450       $unwind$?try_get_first_available_module@@YAPEAUHINSTANCE__@@QEBW4module_id@?A0x14174aea@@0@Z 0000000140054450     libvcruntimed:winapi_downlevel.obj
 0002:00012458       $unwind$?read_entire_file@@YAHPEBEPEAXI@Z 0000000140054458     platform.obj
 0002:00012458       $unwind$?write_entire_file@@YAXPEBEPEAXI@Z 0000000140054458     platform.obj
 0002:00012458       $unwind$??$common_show_message_box@_W@@YAHQEB_W0I@Z 0000000140054458     libucrtd:crtmbox.obj
 0002:00012458       $unwind$??$type_case_integer_parse_into_buffer@_K$07@?$output_processor@DV?$string_output_adapter@D@__crt_stdio_output@@V?$format_validation_base@DV?$string_output_adapter@D@__crt_stdio_output@@@2@@__crt_stdio_output@@AEAAX_K_N@Z 0000000140054458     libucrtd:output.obj
 0002:00012458       $unwind$??$type_case_integer_parse_into_buffer@_K$07@?$output_processor@DV?$string_output_adapter@D@__crt_stdio_output@@V?$standard_base@DV?$string_output_adapter@D@__crt_stdio_output@@@2@@__crt_stdio_output@@AEAAX_K_N@Z 0000000140054458     libucrtd:output.obj
 0002:00012458       $unwind$??$type_case_integer_parse_into_buffer@_K$07@?$output_processor@_WV?$string_output_adapter@_W@__crt_stdio_output@@V?$format_validation_base@_WV?$string_output_adapter@_W@__crt_stdio_output@@@2@@__crt_stdio_output@@AEAAX_K_N@Z 0000000140054458     libucrtd:output.obj
 0002:00012458       $unwind$??$type_case_integer_parse_into_buffer@_K$09@?$output_processor@DV?$string_output_adapter@D@__crt_stdio_output@@V?$format_validation_base@DV?$string_output_adapter@D@__crt_stdio_output@@@2@@__crt_stdio_output@@AEAAX_K_N@Z 0000000140054458     libucrtd:output.obj
 0002:00012458       $unwind$??$type_case_integer_parse_into_buffer@_K$09@?$output_processor@DV?$string_output_adapter@D@__crt_stdio_output@@V?$standard_base@DV?$string_output_adapter@D@__crt_stdio_output@@@2@@__crt_stdio_output@@AEAAX_K_N@Z 0000000140054458     libucrtd:output.obj
 0002:00012458       $unwind$??$type_case_integer_parse_into_buffer@_K$09@?$output_processor@_WV?$string_output_adapter@_W@__crt_stdio_output@@V?$format_validation_base@_WV?$string_output_adapter@_W@__crt_stdio_output@@@2@@__crt_stdio_output@@AEAAX_K_N@Z 0000000140054458     libucrtd:output.obj
 0002:00012458       $unwind$??$type_case_integer_parse_into_buffer@_K$0BA@@?$output_processor@DV?$string_output_adapter@D@__crt_stdio_output@@V?$format_validation_base@DV?$string_output_adapter@D@__crt_stdio_output@@@2@@__crt_stdio_output@@AEAAX_K_N@Z 0000000140054458     libucrtd:output.obj
 0002:00012458       $unwind$??$type_case_integer_parse_into_buffer@_K$0BA@@?$output_processor@DV?$string_output_adapter@D@__crt_stdio_output@@V?$standard_base@DV?$string_output_adapter@D@__crt_stdio_output@@@2@@__crt_stdio_output@@AEAAX_K_N@Z 0000000140054458     libucrtd:output.obj
 0002:00012458       $unwind$??$type_case_integer_parse_into_buffer@_K$0BA@@?$output_processor@_WV?$string_output_adapter@_W@__crt_stdio_output@@V?$format_validation_base@_WV?$string_output_adapter@_W@__crt_stdio_output@@@2@@__crt_stdio_output@@AEAAX_K_N@Z 0000000140054458     libucrtd:output.obj
 0002:00012458       $unwind$?type_case_s_compute_narrow_string_length@?$output_processor@_WV?$string_output_adapter@_W@__crt_stdio_output@@V?$format_validation_base@_WV?$string_output_adapter@_W@__crt_stdio_output@@@2@@__crt_stdio_output@@AEAAHH_W@Z 0000000140054458     libucrtd:output.obj
 0002:00012458       $unwind$?FrameUnwindToEmptyState@__FrameHandler3@@SAXPEA_KPEAU_xDISPATCHER_CONTEXT@@PEBU_s_FuncInfo@@@Z 0000000140054458     libvcruntimed:risctrnsctrl.obj
 0002:00012460       $unwind$?create_directory@@YAHPEBE@Z 0000000140054460     platform.obj
 0002:00012460       $unwind$?delete_directory@@YAHPEBE@Z 0000000140054460     platform.obj
 0002:00012460       $unwind$?delete_file@@YAHPEBE@Z 0000000140054460     platform.obj
 0002:00012460       $unwind$?directory_exists@@YAHPEBE@Z 0000000140054460     platform.obj
 0002:00012460       $unwind$??R<lambda_61c1b8a38cedca4df5fdc542e6ccae6d>@@QEBAHXZ 0000000140054460     libucrtd:initcon.obj
 0002:00012460       $unwind$_putwch_nolock     0000000140054460     libucrtd:putwch.obj
 0002:00012460       $unwind$??$free_environment@D@@YAXQEAPEAD@Z 0000000140054460     libucrtd:environment_initialization.obj
 0002:00012460       $unwind$??$free_environment@_W@@YAXQEAPEA_W@Z 0000000140054460     libucrtd:environment_initialization.obj
 0002:00012460       $unwind$?find_end_of_double_null_terminated_sequence@@YAPEB_WQEB_W@Z 0000000140054460     libucrtd:get_environment_from_os.obj
 0002:00012460       $unwind$?is_valid@?$__crt_unique_handle_t@Uenvironment_strings_traits@?A0x1bf47908@@@@QEBA_NXZ 0000000140054460     libucrtd:get_environment_from_os.obj
 0002:00012460       $unwind$?is_block_an_aligned_allocation@@YA_NQEBX@Z 0000000140054460     libucrtd:debug_heap.obj
 0002:00012460       $unwind$_CrtIsValidHeapPointer 0000000140054460     libucrtd:debug_heap.obj
 0002:00012460       $unwind$free               0000000140054460     libucrtd:free.obj
 0002:00012460       $unwind$_free_base         0000000140054460     libucrtd:free_base.obj
 0002:00012460       $unwind$?_deallocate@?$__crt_win32_buffer@DU__crt_win32_buffer_no_resizing@@@@AEAAXXZ 0000000140054460     libucrtd:getmodulefilenamea.obj
 0002:00012460       $unwind$??R<lambda_e157831efee4ea0afb0a2ace5dd5fd0d>@@QEBAXXZ 0000000140054460     libucrtd:per_thread_data.obj
 0002:00012460       $unwind$?construct_ptd_array@@YAXQEAU__acrt_ptd@@@Z 0000000140054460     libucrtd:per_thread_data.obj
 0002:00012460       $unwind$?destroy_ptd_array@@YAXQEAU__acrt_ptd@@@Z 0000000140054460     libucrtd:per_thread_data.obj
 0002:00012460       $unwind$?release@?$__crt_unique_heap_ptr@U__acrt_ptd@@U__crt_internal_free_policy@@@@QEAAXXZ 0000000140054460     libucrtd:per_thread_data.obj
 0002:00012460       $unwind$?try_load_library_from_system_directory@@YAPEAUHINSTANCE__@@QEB_W@Z 0000000140054460     libucrtd:winapi_thunks.obj
 0002:00012460       $unwind$__acrt_DownlevelLocaleNameToLCID 0000000140054460     libucrtd:lcidtoname_downlevel.obj
 0002:00012460       $unwind$__acrt_add_locale_ref 0000000140054460     libucrtd:locale_refcounting.obj
 0002:00012460       $unwind$__acrt_release_locale_ref 0000000140054460     libucrtd:locale_refcounting.obj
 0002:00012460       $unwind$?release@?$__crt_unique_heap_ptr@U__crt_multibyte_data@@U__crt_internal_free_policy@@@@QEAAXXZ 0000000140054460     libucrtd:wsetlocale.obj
 0002:00012460       $unwind$?release@?$__crt_unique_heap_ptr@U__crt_lowio_handle_data@@U__crt_internal_free_policy@@@@QEAAXXZ 0000000140054460     libucrtd:osfinfo.obj
 0002:00012460       $unwind$?check_synchronize_global_state_index@__crt_cached_ptd_host@@AEAA_KXZ 0000000140054460     libucrtd:invalid_parameter.obj
 0002:00012460       $unwind$__acrt_initialize_invalid_parameter_handler 0000000140054460     libucrtd:invalid_parameter.obj
 0002:00012460       $unwind$??R<lambda_df1553121bfa390f1154bd84936f2730>@@QEBAHXZ 0000000140054460     libucrtd:argv_parsing.obj
 0002:00012460       $unwind$?release@?$__crt_unique_heap_ptr@EU__crt_internal_free_policy@@@@QEAAXXZ 0000000140054460     libucrtd:argv_parsing.obj
 0002:00012460       $unwind$?release@?$__crt_unique_heap_ptr@PEADU__crt_internal_free_policy@@@@QEAAXXZ 0000000140054460     libucrtd:argv_parsing.obj
 0002:00012460       $unwind$??1?$argument_list@D@?A0x5f5c8891@@QEAA@XZ 0000000140054460     libucrtd:argv_wildcards.obj
 0002:00012460       $unwind$?_deallocate@?$__crt_win32_buffer@DU__crt_win32_buffer_internal_dynamic_resizing@@@@AEAAXXZ 0000000140054460     libucrtd:argv_wildcards.obj
 0002:00012460       $unwind$?_deallocate@?$__crt_win32_buffer@_WU__crt_win32_buffer_internal_dynamic_resizing@@@@AEAAXXZ 0000000140054460     libucrtd:argv_wildcards.obj
 0002:00012460       $unwind$?close@__crt_findfile_traits@@SA_NPEAX@Z 0000000140054460     libucrtd:argv_wildcards.obj
 0002:00012460       $unwind$?close@__crt_hmodule_traits@@SA_NPEAUHINSTANCE__@@@Z 0000000140054460     libucrtd:exit.obj
 0002:00012460       $unwind$_register_thread_local_exe_atexit_callback 0000000140054460     libucrtd:exit.obj
 0002:00012460       $unwind$?release@?$__crt_unique_heap_ptr@P6AXXZU__crt_internal_free_policy@@@@QEAAXXZ 0000000140054460     libucrtd:onexit.obj
 0002:00012460       $unwind$_initialize_onexit_table 0000000140054460     libucrtd:onexit.obj
 0002:00012460       $unwind$?release@?$__crt_unique_heap_ptr@PEAU__crt_stdio_stream_data@@U__crt_internal_free_policy@@@@QEAAXXZ 0000000140054460     libucrtd:_file.obj
 0002:00012460       $unwind$_lock_file         0000000140054460     libucrtd:_file.obj
 0002:00012460       $unwind$_unlock_file       0000000140054460     libucrtd:_file.obj
 0002:00012460       $unwind$?is_in_use@__crt_stdio_stream@@QEBA_NXZ 0000000140054460     libucrtd:closeall.obj
 0002:00012460       $unwind$??R<lambda_c5860995281e5c4ce005b3de8f5874ee>@@QEBAXXZ 0000000140054460     libucrtd:fflush.obj
 0002:00012460       $unwind$?__acrt_stdio_reset_buffer@@YAXV__crt_stdio_stream@@@Z 0000000140054460     libucrtd:fflush.obj
 0002:00012460       $unwind$??$scratch_data@D@formatting_buffer@__crt_stdio_output@@QEAAPEADXZ 0000000140054460     libucrtd:output.obj
 0002:00012460       $unwind$??0formatting_buffer@__crt_stdio_output@@QEAA@XZ 0000000140054460     libucrtd:output.obj
 0002:00012460       $unwind$??1__crt_cached_ptd_host@@QEAA@XZ 0000000140054460     libucrtd:output.obj
 0002:00012460       $unwind$?is_string_backed@__crt_stdio_stream@@QEBA_NXZ 0000000140054460     libucrtd:output.obj
 0002:00012460       $unwind$?parse_digit@__crt_strtox@@YAI_W@Z 0000000140054460     libucrtd:output.obj
 0002:00012460       $unwind$?state_case_flag@?$output_processor@DV?$string_output_adapter@D@__crt_stdio_output@@V?$format_validation_base@DV?$string_output_adapter@D@__crt_stdio_output@@@2@@__crt_stdio_output@@AEAA_NXZ 0000000140054460     libucrtd:output.obj
 0002:00012460       $unwind$?state_case_flag@?$output_processor@DV?$string_output_adapter@D@__crt_stdio_output@@V?$standard_base@DV?$string_output_adapter@D@__crt_stdio_output@@@2@@__crt_stdio_output@@AEAA_NXZ 0000000140054460     libucrtd:output.obj
 0002:00012460       $unwind$?state_case_flag@?$output_processor@_WV?$string_output_adapter@_W@__crt_stdio_output@@V?$format_validation_base@_WV?$string_output_adapter@_W@__crt_stdio_output@@@2@@__crt_stdio_output@@AEAA_NXZ 0000000140054460     libucrtd:output.obj
 0002:00012460       $unwind$?state_case_normal_common@?$output_processor@DV?$string_output_adapter@D@__crt_stdio_output@@V?$format_validation_base@DV?$string_output_adapter@D@__crt_stdio_output@@@2@@__crt_stdio_output@@AEAA_NXZ 0000000140054460     libucrtd:output.obj
 0002:00012460       $unwind$?state_case_normal_common@?$output_processor@DV?$string_output_adapter@D@__crt_stdio_output@@V?$standard_base@DV?$string_output_adapter@D@__crt_stdio_output@@@2@@__crt_stdio_output@@AEAA_NXZ 0000000140054460     libucrtd:output.obj
 0002:00012460       $unwind$?state_case_normal_common@?$output_processor@_WV?$string_output_adapter@_W@__crt_stdio_output@@V?$format_validation_base@_WV?$string_output_adapter@_W@__crt_stdio_output@@@2@@__crt_stdio_output@@AEAA_NXZ 0000000140054460     libucrtd:output.obj
 0002:00012460       $unwind$?type_case_Z@?$output_processor@DV?$string_output_adapter@D@__crt_stdio_output@@V?$format_validation_base@DV?$string_output_adapter@D@__crt_stdio_output@@@2@@__crt_stdio_output@@AEAA_NXZ 0000000140054460     libucrtd:output.obj
 0002:00012460       $unwind$?type_case_Z@?$output_processor@DV?$string_output_adapter@D@__crt_stdio_output@@V?$standard_base@DV?$string_output_adapter@D@__crt_stdio_output@@@2@@__crt_stdio_output@@AEAA_NXZ 0000000140054460     libucrtd:output.obj
 0002:00012460       $unwind$?type_case_Z@?$output_processor@_WV?$string_output_adapter@_W@__crt_stdio_output@@V?$format_validation_base@_WV?$string_output_adapter@_W@__crt_stdio_output@@@2@@__crt_stdio_output@@AEAA_NXZ 0000000140054460     libucrtd:output.obj
 0002:00012460       $unwind$?type_case_s@?$output_processor@DV?$string_output_adapter@D@__crt_stdio_output@@V?$format_validation_base@DV?$string_output_adapter@D@__crt_stdio_output@@@2@@__crt_stdio_output@@AEAA_NXZ 0000000140054460     libucrtd:output.obj
 0002:00012460       $unwind$?type_case_s@?$output_processor@DV?$string_output_adapter@D@__crt_stdio_output@@V?$standard_base@DV?$string_output_adapter@D@__crt_stdio_output@@@2@@__crt_stdio_output@@AEAA_NXZ 0000000140054460     libucrtd:output.obj
 0002:00012460       $unwind$?type_case_s@?$output_processor@_WV?$string_output_adapter@_W@__crt_stdio_output@@V?$format_validation_base@_WV?$string_output_adapter@_W@__crt_stdio_output@@@2@@__crt_stdio_output@@AEAA_NXZ 0000000140054460     libucrtd:output.obj
 0002:00012460       $unwind$?update_locale_slow@__crt_cached_ptd_host@@AEAAXXZ 0000000140054460     libucrtd:output.obj
 0002:00012460       $unwind$_set_statfp        0000000140054460     libucrtd:fpctrl.obj
 0002:00012460       $unwind$??$translate_control_exception_mask@W4__acrt_fenv_abstract_control@@W4__acrt_fenv_machine_sse_control@@@@YA?AW4__acrt_fenv_abstract_control@@W4__acrt_fenv_machine_sse_control@@@Z 0000000140054460     libucrtd:_fenvutils.obj
 0002:00012460       $unwind$??$translate_control_rounding_control@W4__acrt_fenv_abstract_control@@W4__acrt_fenv_machine_sse_control@@@@YA?AW4__acrt_fenv_abstract_control@@W4__acrt_fenv_machine_sse_control@@@Z 0000000140054460     libucrtd:_fenvutils.obj
 0002:00012460       $unwind$?set_machine_sse_control@@YAXW4__acrt_fenv_machine_sse_control@@@Z 0000000140054460     libucrtd:_fenvutils.obj
 0002:00012460       $unwind$?to_abstract_control@@YA?AW4__acrt_fenv_abstract_control@@W4__acrt_fenv_machine_sse_control@@@Z 0000000140054460     libucrtd:_fenvutils.obj
 0002:00012460       $unwind$?translate_control_denormal_control_from_sse@@YA?AW4__acrt_fenv_abstract_control@@W4__acrt_fenv_machine_sse_control@@@Z 0000000140054460     libucrtd:_fenvutils.obj
 0002:00012460       $unwind$feholdexcept       0000000140054460     libucrtd:feholdexcept.obj
 0002:00012460       $unwind$__setusermatherr   0000000140054460     libucrtd:matherr.obj
 0002:00012460       $unwind$__report_gsfailure 0000000140054460     LIBCMTD:gs_report.obj
 0002:00012460       $unwind$atexit             0000000140054460     LIBCMTD:utility.obj
 0002:00012460       $unwind$__scrt_unhandled_exception_filter 0000000140054460     LIBCMTD:utility_desktop.obj
 0002:00012460       $unwind$_IsExceptionObjectToBeDestroyed 0000000140054460     libvcruntimed:ehhelpers.obj
 0002:00012460       $unwind$?getESTypes@__FrameHandler3@@SAPEBU_s_ESTypeList@@PEBU_s_FuncInfo@@@Z 0000000140054460     libvcruntimed:frame.obj
 0002:00012460       $unwind$__except_validate_context_record 0000000140054460     libvcruntimed:jbcxrval.obj
 0002:00012460       $unwind$?release@?$__crt_unique_heap_ptr@U__vcrt_ptd@@U__crt_internal_free_policy@@@@QEAAXXZ 0000000140054460     libvcruntimed:per_thread_data.obj
 0002:00012460       $unwind$_FindAndUnlinkFrame 0000000140054460     libvcruntimed:risctrnsctrl.obj
 0002:00012460       $unwind$?release@?$__crt_unique_heap_ptr@DU__crt_public_free_policy@@@@QEAAXXZ 0000000140054460     libvcruntimed:std_exception.obj
 0002:00012460       $unwind$?release@?$__crt_unique_heap_ptr@DU__crt_internal_free_policy@@@@QEAAXXZ 0000000140054460     libvcruntimed:std_type_info.obj
 0002:00012460       $unwind$?try_load_library_from_system_directory@@YAPEAUHINSTANCE__@@QEB_W@Z 0000000140054460     libvcruntimed:winapi_downlevel.obj
 0002:00012468       $unwind$?read_time_counter@@YANXZ 0000000140054468     platform.obj
 0002:00012468       $unwind$?initialize_multibyte@@YAHXZ 0000000140054468     libucrtd:multibyte_initializer.obj
 0002:00012468       $unwind$initialize_pointers 0000000140054468     libucrtd:initialization.obj
 0002:00012468       $unwind$__acrt_initialize_locks 0000000140054468     libucrtd:locks.obj
 0002:00012468       $unwind$?internal_getptd_noexit@@YAPEAU__acrt_ptd@@XZ 0000000140054468     libucrtd:per_thread_data.obj
 0002:00012468       $unwind$?try_get_ptd_head@@YAPEAU__acrt_ptd@@XZ 0000000140054468     libucrtd:per_thread_data.obj
 0002:00012468       $unwind$__acrt_getptd      0000000140054468     libucrtd:per_thread_data.obj
 0002:00012468       $unwind$__acrt_getptd_head 0000000140054468     libucrtd:per_thread_data.obj
 0002:00012468       $unwind$?should_write_error_to_console@@YA_NXZ 0000000140054468     libucrtd:report_runtime_error.obj
 0002:00012468       $unwind$__acrt_AreFileApisANSI 0000000140054468     libucrtd:winapi_thunks.obj
 0002:00012468       $unwind$__acrt_can_show_message_box 0000000140054468     libucrtd:winapi_thunks.obj
 0002:00012468       $unwind$__acrt_initialize_multibyte 0000000140054468     libucrtd:mbctype.obj
 0002:00012468       $unwind$__acrt_update_thread_multibyte_data 0000000140054468     libucrtd:mbctype.obj
 0002:00012468       $unwind$__doserrno         0000000140054468     libucrtd:errno.obj
 0002:00012468       $unwind$_errno             0000000140054468     libucrtd:errno.obj
 0002:00012468       $unwind$_invalid_parameter_noinfo 0000000140054468     libucrtd:invalid_parameter.obj
 0002:00012468       $unwind$abort              0000000140054468     libucrtd:abort.obj
 0002:00012468       $unwind$?is_managed_app@@YA_NXZ 0000000140054468     libucrtd:exit.obj
 0002:00012468       $unwind$?should_call_terminate_process@@YA_NXZ 0000000140054468     libucrtd:exit.obj
 0002:00012468       $unwind$__acrt_uninitialize_stdio 0000000140054468     libucrtd:_file.obj
 0002:00012468       $unwind$_clrfp             0000000140054468     libucrtd:fpctrl.obj
 0002:00012468       $unwind$_statfp            0000000140054468     libucrtd:fpctrl.obj
 0002:00012468       $unwind$_clearfp           0000000140054468     libucrtd:ieee.obj
 0002:00012468       $unwind$?get_machine_sse_control@@YA?AW4__acrt_fenv_machine_sse_control@@XZ 0000000140054468     libucrtd:_fenvutils.obj
 0002:00012468       $unwind$?get_machine_sse_status@@YA?AW4__acrt_fenv_machine_sse_status@@XZ 0000000140054468     libucrtd:_fenvutils.obj
 0002:00012468       $unwind$__acrt_fenv_get_control 0000000140054468     libucrtd:_fenvutils.obj
 0002:00012468       $unwind$__acrt_fenv_get_status 0000000140054468     libucrtd:_fenvutils.obj
 0002:00012468       $unwind$__acrt_has_user_matherr 0000000140054468     libucrtd:matherr.obj
 0002:00012468       $unwind$__scrt_initialize_default_local_stdio_options 0000000140054468     LIBCMTD:default_local_stdio_options.obj
 0002:00012468       $unwind$?invoke_main@@YAHXZ 0000000140054468     LIBCMTD:exe_winmain.obj
 0002:00012468       $unwind$?set_commode@__scrt_file_policy@@SAXXZ 0000000140054468     LIBCMTD:exe_winmain.obj
 0002:00012468       $unwind$__security_init_cookie 0000000140054468     LIBCMTD:gs_support.obj
 0002:00012468       $unwind$_guard_icall_checks_enforced 0000000140054468     LIBCMTD:guard_support.obj
 0002:00012468       $unwind$__scrt_is_managed_app 0000000140054468     LIBCMTD:utility_desktop.obj
 0002:00012468       $unwind$__vcrt_initialize_locks 0000000140054468     libvcruntimed:locks.obj
 0002:00012468       $unwind$__vcrt_uninitialize_locks 0000000140054468     libvcruntimed:locks.obj
 0002:00012468       $unwind$__vcrt_getptd      0000000140054468     libvcruntimed:per_thread_data.obj
 0002:00012470       $unwind$??$Max@K@@YAKKK@Z  0000000140054470     platform.obj
 0002:00012470       $unwind$?filter_mbtowcs_flags@@YAKIK@Z 0000000140054470     libucrtd:multibytetowidechar.obj
 0002:00012470       $unwind$?filter_wcstomb_flags@@YAKIK@Z 0000000140054470     libucrtd:widechartomultibyte.obj
 0002:00012470       $unwind$?adjust_hexit@?$output_processor@DV?$string_output_adapter@D@__crt_stdio_output@@V?$format_validation_base@DV?$string_output_adapter@D@__crt_stdio_output@@@2@@__crt_stdio_output@@CADH_N@Z 0000000140054470     libucrtd:output.obj
 0002:00012470       $unwind$?adjust_hexit@?$output_processor@DV?$string_output_adapter@D@__crt_stdio_output@@V?$standard_base@DV?$string_output_adapter@D@__crt_stdio_output@@@2@@__crt_stdio_output@@CADH_N@Z 0000000140054470     libucrtd:output.obj
 0002:00012470       $unwind$?adjust_hexit@?$output_processor@_WV?$string_output_adapter@_W@__crt_stdio_output@@V?$format_validation_base@_WV?$string_output_adapter@_W@__crt_stdio_output@@@2@@__crt_stdio_output@@CADH_N@Z 0000000140054470     libucrtd:output.obj
 0002:00012478       $unwind$??$align_up@_K@@YA_K_K0@Z 0000000140054478     platform.obj
 0002:00012478       $unwind$_mbsdec            0000000140054478     libucrtd:mbsdec.obj
 0002:00012478       $unwind$??R<lambda_af27fe6ede5d83bbdbd622796c194e9c>@@QEBAXAEAPEAU__crt_multibyte_data@@@Z 0000000140054478     libucrtd:initialization.obj
 0002:00012478       $unwind$??$?RU__acrt_ptd@@@__crt_internal_free_policy@@QEBAXQEBU__acrt_ptd@@@Z 0000000140054478     libucrtd:per_thread_data.obj
 0002:00012478       $unwind$?replace_current_thread_locale_nolock@@YAXQEAU__acrt_ptd@@QEAU__crt_locale_data@@@Z 0000000140054478     libucrtd:per_thread_data.obj
 0002:00012478       $unwind$__acrt_getptd_noexit_explicit 0000000140054478     libucrtd:per_thread_data.obj
 0002:00012478       $unwind$__acrt_update_locale_info 0000000140054478     libucrtd:locale_update.obj
 0002:00012478       $unwind$__acrt_update_multibyte_info 0000000140054478     libucrtd:locale_update.obj
 0002:00012478       $unwind$??$?RU__crt_multibyte_data@@@__crt_internal_free_policy@@QEBAXQEBU__crt_multibyte_data@@@Z 0000000140054478     libucrtd:wsetlocale.obj
 0002:00012478       $unwind$??R<lambda_363eea9039da1e8169e2d060c7fe5cbc>@@QEBAXAEAPEAU__crt_locale_data@@@Z 0000000140054478     libucrtd:wsetlocale.obj
 0002:00012478       $unwind$??$?RU__crt_lowio_handle_data@@@__crt_internal_free_policy@@QEBAXQEBU__crt_lowio_handle_data@@@Z 0000000140054478     libucrtd:osfinfo.obj
 0002:00012478       $unwind$?value@?$dual_state_global@P6AXPEB_W00I_K@Z@__crt_state_management@@QEAAAEAP6AXPEB_W00I_K@ZAEAV__crt_cached_ptd_host@@@Z 0000000140054478     libucrtd:invalid_parameter.obj
 0002:00012478       $unwind$??$?RE@__crt_internal_free_policy@@QEBAXQEBE@Z 0000000140054478     libucrtd:argv_parsing.obj
 0002:00012478       $unwind$??$?RPEAD@__crt_internal_free_policy@@QEBAXQEBQEAD@Z 0000000140054478     libucrtd:argv_parsing.obj
 0002:00012478       $unwind$?expand_argv_wildcards@@YAHQEAPEADQEAPEAPEAD@Z 0000000140054478     libucrtd:argv_parsing.obj
 0002:00012478       $unwind$?<lambda_invoker_cdecl>@<lambda_a1ce4c8ae42411fd470c77163914f50e>@@CAHPEBX0@Z 0000000140054478     libucrtd:argv_wildcards.obj
 0002:00012478       $unwind$?deallocate@__crt_win32_buffer_internal_dynamic_resizing@@SAXQEAXAEBV__crt_win32_buffer_empty_debug_info@@@Z 0000000140054478     libucrtd:argv_wildcards.obj
 0002:00012478       $unwind$?previous_character@@YAPEADQEAD0@Z 0000000140054478     libucrtd:argv_wildcards.obj
 0002:00012478       $unwind$?strpbrk@@YAPEADQEADQEBD@Z 0000000140054478     libucrtd:argv_wildcards.obj
 0002:00012478       $unwind$__acrt_expand_narrow_argv_wildcards 0000000140054478     libucrtd:argv_wildcards.obj
 0002:00012478       $unwind$??$__crt_get_proc_address@P6AXI@Z@@YAP6AXI@ZQEAUHINSTANCE__@@QEBD@Z 0000000140054478     libucrtd:exit.obj
 0002:00012478       $unwind$??$?RP6AXXZ@__crt_internal_free_policy@@QEBAXQEBQ6AXXZ@Z 0000000140054478     libucrtd:onexit.obj
 0002:00012478       $unwind$??$?RPEAU__crt_stdio_stream_data@@@__crt_internal_free_policy@@QEBAXQEBQEAU__crt_stdio_stream_data@@@Z 0000000140054478     libucrtd:_file.obj
 0002:00012478       $unwind$??$extract_argument_from_va_list@C_J@?$standard_base@DV?$string_output_adapter@D@__crt_stdio_output@@@__crt_stdio_output@@IEAA_NAEA_J@Z 0000000140054478     libucrtd:output.obj
 0002:00012478       $unwind$??$extract_argument_from_va_list@C_J@?$standard_base@_WV?$string_output_adapter@_W@__crt_stdio_output@@@__crt_stdio_output@@IEAA_NAEA_J@Z 0000000140054478     libucrtd:output.obj
 0002:00012478       $unwind$??$extract_argument_from_va_list@E_J@?$standard_base@DV?$string_output_adapter@D@__crt_stdio_output@@@__crt_stdio_output@@IEAA_NAEA_J@Z 0000000140054478     libucrtd:output.obj
 0002:00012478       $unwind$??$extract_argument_from_va_list@E_J@?$standard_base@_WV?$string_output_adapter@_W@__crt_stdio_output@@@__crt_stdio_output@@IEAA_NAEA_J@Z 0000000140054478     libucrtd:output.obj
 0002:00012478       $unwind$??$extract_argument_from_va_list@F_J@?$standard_base@DV?$string_output_adapter@D@__crt_stdio_output@@@__crt_stdio_output@@IEAA_NAEA_J@Z 0000000140054478     libucrtd:output.obj
 0002:00012478       $unwind$??$extract_argument_from_va_list@F_J@?$standard_base@_WV?$string_output_adapter@_W@__crt_stdio_output@@@__crt_stdio_output@@IEAA_NAEA_J@Z 0000000140054478     libucrtd:output.obj
 0002:00012478       $unwind$??$extract_argument_from_va_list@GD@?$standard_base@DV?$string_output_adapter@D@__crt_stdio_output@@@__crt_stdio_output@@IEAA_NAEAD@Z 0000000140054478     libucrtd:output.obj
 0002:00012478       $unwind$??$extract_argument_from_va_list@G_J@?$standard_base@DV?$string_output_adapter@D@__crt_stdio_output@@@__crt_stdio_output@@IEAA_NAEA_J@Z 0000000140054478     libucrtd:output.obj
 0002:00012478       $unwind$??$extract_argument_from_va_list@G_J@?$standard_base@_WV?$string_output_adapter@_W@__crt_stdio_output@@@__crt_stdio_output@@IEAA_NAEA_J@Z 0000000140054478     libucrtd:output.obj
 0002:00012478       $unwind$??$extract_argument_from_va_list@H_J@?$standard_base@DV?$string_output_adapter@D@__crt_stdio_output@@@__crt_stdio_output@@IEAA_NAEA_J@Z 0000000140054478     libucrtd:output.obj
 0002:00012478       $unwind$??$extract_argument_from_va_list@H_J@?$standard_base@_WV?$string_output_adapter@_W@__crt_stdio_output@@@__crt_stdio_output@@IEAA_NAEA_J@Z 0000000140054478     libucrtd:output.obj
 0002:00012478       $unwind$??$extract_argument_from_va_list@I_J@?$standard_base@DV?$string_output_adapter@D@__crt_stdio_output@@@__crt_stdio_output@@IEAA_NAEA_J@Z 0000000140054478     libucrtd:output.obj
 0002:00012478       $unwind$??$extract_argument_from_va_list@I_J@?$standard_base@_WV?$string_output_adapter@_W@__crt_stdio_output@@@__crt_stdio_output@@IEAA_NAEA_J@Z 0000000140054478     libucrtd:output.obj
 0002:00012478       $unwind$??$extract_argument_from_va_list@PEADPEAD@?$standard_base@DV?$string_output_adapter@D@__crt_stdio_output@@@__crt_stdio_output@@IEAA_NAEAPEAD@Z 0000000140054478     libucrtd:output.obj
 0002:00012478       $unwind$??$extract_argument_from_va_list@PEADPEAD@?$standard_base@_WV?$string_output_adapter@_W@__crt_stdio_output@@@__crt_stdio_output@@IEAA_NAEAPEAD@Z 0000000140054478     libucrtd:output.obj
 0002:00012478       $unwind$??$extract_argument_from_va_list@PEAUansi_string@?1??type_case_Z@?$output_processor@DV?$string_output_adapter@D@__crt_stdio_output@@V?$format_validation_base@DV?$string_output_adapter@D@__crt_stdio_output@@@2@@__crt_stdio_output@@AEAA_NXZ@PEAU1?1??234@AEAA_NXZ@@?$standard_base@DV?$string_output_adapter@D@__crt_stdio_output@@@__crt_stdio_output@@IEAA_NAEAPEAUansi_string@?1??type_case_Z@?$output_processor@DV?$string_output_adapter@D@__crt_stdio_output@@V?$format_validation_base@DV?$string_output_adapter@D@__crt_stdio_output@@@2@@1@AEAA_NXZ@@Z 0000000140054478     libucrtd:output.obj
 0002:00012478       $unwind$??$extract_argument_from_va_list@PEAUansi_string@?1??type_case_Z@?$output_processor@DV?$string_output_adapter@D@__crt_stdio_output@@V?$standard_base@DV?$string_output_adapter@D@__crt_stdio_output@@@2@@__crt_stdio_output@@AEAA_NXZ@PEAU1?1??234@AEAA_NXZ@@?$standard_base@DV?$string_output_adapter@D@__crt_stdio_output@@@__crt_stdio_output@@IEAA_NAEAPEAUansi_string@?1??type_case_Z@?$output_processor@DV?$string_output_adapter@D@__crt_stdio_output@@V?$standard_base@DV?$string_output_adapter@D@__crt_stdio_output@@@2@@1@AEAA_NXZ@@Z 0000000140054478     libucrtd:output.obj
 0002:00012478       $unwind$??$extract_argument_from_va_list@PEAUansi_string@?1??type_case_Z@?$output_processor@_WV?$string_output_adapter@_W@__crt_stdio_output@@V?$format_validation_base@_WV?$string_output_adapter@_W@__crt_stdio_output@@@2@@__crt_stdio_output@@AEAA_NXZ@PEAU1?1??234@AEAA_NXZ@@?$standard_base@_WV?$string_output_adapter@_W@__crt_stdio_output@@@__crt_stdio_output@@IEAA_NAEAPEAUansi_string@?1??type_case_Z@?$output_processor@_WV?$string_output_adapter@_W@__crt_stdio_output@@V?$format_validation_base@_WV?$string_output_adapter@_W@__crt_stdio_output@@@2@@1@AEAA_NXZ@@Z 0000000140054478     libucrtd:output.obj
 0002:00012478       $unwind$??$extract_argument_from_va_list@PEAXPEAX@?$standard_base@DV?$string_output_adapter@D@__crt_stdio_output@@@__crt_stdio_output@@IEAA_NAEAPEAX@Z 0000000140054478     libucrtd:output.obj
 0002:00012478       $unwind$??$extract_argument_from_va_list@PEAXPEAX@?$standard_base@_WV?$string_output_adapter@_W@__crt_stdio_output@@@__crt_stdio_output@@IEAA_NAEAPEAX@Z 0000000140054478     libucrtd:output.obj
 0002:00012478       $unwind$??$extract_argument_from_va_list@_J_J@?$standard_base@DV?$string_output_adapter@D@__crt_stdio_output@@@__crt_stdio_output@@IEAA_NAEA_J@Z 0000000140054478     libucrtd:output.obj
 0002:00012478       $unwind$??$extract_argument_from_va_list@_J_J@?$standard_base@_WV?$string_output_adapter@_W@__crt_stdio_output@@@__crt_stdio_output@@IEAA_NAEA_J@Z 0000000140054478     libucrtd:output.obj
 0002:00012478       $unwind$??$extract_argument_from_va_list@_K_J@?$standard_base@DV?$string_output_adapter@D@__crt_stdio_output@@@__crt_stdio_output@@IEAA_NAEA_J@Z 0000000140054478     libucrtd:output.obj
 0002:00012478       $unwind$??$extract_argument_from_va_list@_K_J@?$standard_base@_WV?$string_output_adapter@_W@__crt_stdio_output@@@__crt_stdio_output@@IEAA_NAEA_J@Z 0000000140054478     libucrtd:output.obj
 0002:00012478       $unwind$??$extract_argument_from_va_list@_W_W@?$standard_base@DV?$string_output_adapter@D@__crt_stdio_output@@@__crt_stdio_output@@IEAA_NAEA_W@Z 0000000140054478     libucrtd:output.obj
 0002:00012478       $unwind$??$extract_argument_from_va_list@_W_W@?$standard_base@_WV?$string_output_adapter@_W@__crt_stdio_output@@@__crt_stdio_output@@IEAA_NAEA_W@Z 0000000140054478     libucrtd:output.obj
 0002:00012478       $unwind$??0?$common_data@D@__crt_stdio_output@@IEAA@AEAV__crt_cached_ptd_host@@@Z 0000000140054478     libucrtd:output.obj
 0002:00012478       $unwind$??0?$common_data@_W@__crt_stdio_output@@IEAA@AEAV__crt_cached_ptd_host@@@Z 0000000140054478     libucrtd:output.obj
 0002:00012478       $unwind$??4?$__crt_unique_heap_ptr@DU__crt_internal_free_policy@@@@QEAAAEAV0@$$QEAV0@@Z 0000000140054478     libucrtd:output.obj
 0002:00012478       $unwind$?check_synchronize_global_state_index@__crt_cached_ptd_host@@AEAA_KAEBV__crt_scoped_get_last_error_reset@@@Z 0000000140054478     libucrtd:output.obj
 0002:00012478       $unwind$?create_guard@?$cached@H@__crt_cached_ptd_host@@QEAA?AVguard@12@XZ 0000000140054478     libucrtd:output.obj
 0002:00012478       $unwind$?crop_zeroes@__crt_stdio_output@@YAXPEADQEAU__crt_locale_pointers@@@Z 0000000140054478     libucrtd:output.obj
 0002:00012478       $unwind$?force_synchronize_global_state_index@__crt_cached_ptd_host@@AEAA_KAEBV__crt_scoped_get_last_error_reset@@@Z 0000000140054478     libucrtd:output.obj
 0002:00012478       $unwind$??$common_strnlen@$00G@@YA_KQEBG_K@Z 0000000140054478     libucrtd:strnlen.obj
 0002:00012478       $unwind$??$common_strnlen@$0A@E@@YA_KQEBE_K@Z 0000000140054478     libucrtd:strnlen.obj
 0002:00012478       $unwind$??$common_strnlen@$0A@G@@YA_KQEBG_K@Z 0000000140054478     libucrtd:strnlen.obj
 0002:00012478       $unwind$strnlen            0000000140054478     libucrtd:strnlen.obj
 0002:00012478       $unwind$wcsnlen            0000000140054478     libucrtd:strnlen.obj
 0002:00012478       $unwind$??3@YAXPEAX_K@Z    0000000140054478     LIBCMTD:delete_scalar_size.obj
 0002:00012478       $unwind$_FindPESection     0000000140054478     LIBCMTD:pesect.obj
 0002:00012478       $unwind$??0bad_exception@std@@QEAA@AEBV01@@Z 0000000140054478     libvcruntimed:frame.obj
 0002:00012478       $unwind$?begin@HandlerMap@__FrameHandler3@@QEAA?AViterator@12@XZ 0000000140054478     libvcruntimed:frame.obj
 0002:00012478       $unwind$?end@HandlerMap@__FrameHandler3@@QEAA?AViterator@12@XZ 0000000140054478     libvcruntimed:frame.obj
 0002:00012478       $unwind$??$?RU__vcrt_ptd@@@__crt_internal_free_policy@@QEBAXQEBU__vcrt_ptd@@@Z 0000000140054478     libvcruntimed:per_thread_data.obj
 0002:00012478       $unwind$??$?RD@__crt_public_free_policy@@QEBAXQEBD@Z 0000000140054478     libvcruntimed:std_exception.obj
 0002:00012478       $unwind$??$?RD@__crt_internal_free_policy@@QEBAXQEBD@Z 0000000140054478     libvcruntimed:std_type_info.obj
 0002:00012478       $unwind$__std_type_info_compare 0000000140054478     libvcruntimed:std_type_info.obj
 0002:00012480       $unwind$??$ensure_buffer_is_big_enough@D@formatting_buffer@__crt_stdio_output@@QEAA_N_KAEAV__crt_cached_ptd_host@@@Z 0000000140054480     libucrtd:output.obj
 0002:00012480       $unwind$??$ensure_buffer_is_big_enough@_W@formatting_buffer@__crt_stdio_output@@QEAA_N_KAEAV__crt_cached_ptd_host@@@Z 0000000140054480     libucrtd:output.obj
 0002:00012480       $unwind$__ascii_wcsnicmp   0000000140054480     libucrtd:wcsnicmp.obj
 0002:00012480       $unwind$__GSHandlerCheckCommon 0000000140054480     LIBCMTD:gshandler.obj
 0002:00012488       $unwind$?shift_bytes@@YAXQEAD_K0H@Z 0000000140054488     libucrtd:cvt.obj
 0002:00012488       $unwind$??$message_box@$$TAEBQEB_WAEBQEB_WK@?$__crt_char_traits@_W@@SAH$$QEA$$TAEBQEB_W1$$QEAK@Z 0000000140054488     libucrtd:crtmbox.obj
 0002:00012488       $unwind$??$message_box@PEAUHWND__@@AEBQEB_WAEBQEB_WAEBI@?$__crt_char_traits@_W@@SAH$$QEAPEAUHWND__@@AEBQEB_W1AEBI@Z 0000000140054488     libucrtd:crtmbox.obj
 0002:00012488       $unwind$_invoke_watson     0000000140054488     libucrtd:invalid_parameter.obj
 0002:00012488       $unwind$??$tcsncpy_s@AEAPEAD_KAEAPEADAEB_K@?$__crt_char_traits@D@@SAHAEAPEAD$$QEA_K0AEB_K@Z 0000000140054488     libucrtd:argv_wildcards.obj
 0002:00012488       $unwind$??$tcsncpy_s@PEADAEB_KAEBQEBDAEB_K@?$__crt_char_traits@D@@SAH$$QEAPEADAEB_KAEBQEBD1@Z 0000000140054488     libucrtd:argv_wildcards.obj
 0002:00012488       $unwind$??$tcsncpy_s@PEAD_KAEBQEBDAEB_K@?$__crt_char_traits@D@@SAH$$QEAPEAD$$QEA_KAEBQEBDAEB_K@Z 0000000140054488     libucrtd:argv_wildcards.obj
 0002:00012488       $unwind$strncpy_s          0000000140054488     libucrtd:strncpy_s.obj
 0002:00012488       $unwind$wcsncpy_s          0000000140054488     libucrtd:wcsncpy_s.obj
 0002:00012488       $unwind$__GSHandlerCheck   0000000140054488     LIBCMTD:gshandler.obj
 0002:00012488       $unwind$?BuildCatchObject@__FrameHandler3@@SAXPEAUEHExceptionRecord@@PEAXPEBU_s_HandlerType@@PEBU_s_CatchableType@@@Z 0000000140054488     libvcruntimed:frame.obj
 0002:00012490       $xdatasym                  0000000140054490     LIBCMTD:amdsecgs.obj
 0002:00012498       $unwind$__dcrt_lowio_ensure_console_output_initialized 0000000140054498     libucrtd:initcon.obj
 0002:00012498       $unwind$__dcrt_terminate_console_output 0000000140054498     libucrtd:initcon.obj
 0002:00012498       $unwind$??$get_environment_from_os@$$V@?$__crt_char_traits@D@@SAPEADXZ 0000000140054498     libucrtd:environment_initialization.obj
 0002:00012498       $unwind$__dcrt_uninitialize_environments_nolock 0000000140054498     libucrtd:environment_initialization.obj
 0002:00012498       $unwind$_initialize_narrow_environment 0000000140054498     libucrtd:environment_initialization.obj
 0002:00012498       $unwind$__acrt_initialize_heap 0000000140054498     libucrtd:heap_handle.obj
 0002:00012498       $unwind$_query_new_mode    0000000140054498     libucrtd:new_mode.obj
 0002:00012498       $unwind$__acrt_initialize  0000000140054498     libucrtd:initialization.obj
 0002:00012498       $unwind$initialize_c       0000000140054498     libucrtd:initialization.obj
 0002:00012498       $unwind$initialize_global_variables 0000000140054498     libucrtd:initialization.obj
 0002:00012498       $unwind$__acrt_getptd_noexit 0000000140054498     libucrtd:per_thread_data.obj
 0002:00012498       $unwind$__acrt_initialize_ptd 0000000140054498     libucrtd:per_thread_data.obj
 0002:00012498       $unwind$__acrt_get_developer_information_policy 0000000140054498     libucrtd:win_policies.obj
 0002:00012498       $unwind$__acrt_get_process_end_policy 0000000140054498     libucrtd:win_policies.obj
 0002:00012498       $unwind$__acrt_get_windowing_model_policy 0000000140054498     libucrtd:win_policies.obj
 0002:00012498       $unwind$?try_get_AppPolicyGetProcessTerminationMethod@@YAP6AJPEAXPEAW4AppPolicyProcessTerminationMethod@@@ZXZ 0000000140054498     libucrtd:winapi_thunks.obj
 0002:00012498       $unwind$?try_get_AppPolicyGetShowDeveloperDiagnostic@@YAP6AJPEAXPEAW4AppPolicyShowDeveloperDiagnostic@@@ZXZ 0000000140054498     libucrtd:winapi_thunks.obj
 0002:00012498       $unwind$?try_get_AppPolicyGetWindowingModel@@YAP6AJPEAXPEAW4AppPolicyWindowingModel@@@ZXZ 0000000140054498     libucrtd:winapi_thunks.obj
 0002:00012498       $unwind$?try_get_AreFileApisANSI@@YAP6AHXZXZ 0000000140054498     libucrtd:winapi_thunks.obj
 0002:00012498       $unwind$?try_get_GetActiveWindow@@YAP6APEAUHWND__@@XZXZ 0000000140054498     libucrtd:winapi_thunks.obj
 0002:00012498       $unwind$?try_get_GetLastActivePopup@@YAP6APEAUHWND__@@PEAU1@@ZXZ 0000000140054498     libucrtd:winapi_thunks.obj
 0002:00012498       $unwind$?try_get_GetProcessWindowStation@@YAP6APEAUHWINSTA__@@XZXZ 0000000140054498     libucrtd:winapi_thunks.obj
 0002:00012498       $unwind$?try_get_GetUserObjectInformationW@@YAP6AHPEAXH0KPEAK@ZXZ 0000000140054498     libucrtd:winapi_thunks.obj
 0002:00012498       $unwind$?try_get_InitializeCriticalSectionEx@@YAP6AHPEAU_RTL_CRITICAL_SECTION@@KK@ZXZ 0000000140054498     libucrtd:winapi_thunks.obj
 0002:00012498       $unwind$?try_get_LCMapStringEx@@YAP6AHPEB_WK0HPEA_WHPEAU_nlsversioninfo@@PEAX_J@ZXZ 0000000140054498     libucrtd:winapi_thunks.obj
 0002:00012498       $unwind$?try_get_LocaleNameToLCID@@YAP6AKPEB_WK@ZXZ 0000000140054498     libucrtd:winapi_thunks.obj
 0002:00012498       $unwind$?try_get_MessageBoxA@@YAP6AHPEAUHWND__@@PEBD1I@ZXZ 0000000140054498     libucrtd:winapi_thunks.obj
 0002:00012498       $unwind$?try_get_MessageBoxW@@YAP6AHPEAUHWND__@@PEB_W1I@ZXZ 0000000140054498     libucrtd:winapi_thunks.obj
 0002:00012498       $unwind$__fpecode          0000000140054498     libucrtd:signal.obj
 0002:00012498       $unwind$__acrt_initialize_command_line 0000000140054498     libucrtd:argv_data.obj
 0002:00012498       $unwind$_get_narrow_winmain_command_line 0000000140054498     libucrtd:argv_winmain.obj
 0002:00012498       $unwind$_c_exit            0000000140054498     libucrtd:exit.obj
 0002:00012498       $unwind$_cexit             0000000140054498     libucrtd:exit.obj
 0002:00012498       $unwind$_flushall          0000000140054498     libucrtd:fflush.obj
 0002:00012498       $unwind$fegetround         0000000140054498     libucrtd:fegetround.obj
 0002:00012498       $unwind$?__scrt_common_main@@YAHXZ 0000000140054498     LIBCMTD:exe_winmain.obj
 0002:00012498       $unwind$?configure_argv@__scrt_narrow_argv_policy@@SAHXZ 0000000140054498     LIBCMTD:exe_winmain.obj
 0002:00012498       $unwind$?initialize_environment@__scrt_narrow_environment_policy@@SAHXZ 0000000140054498     LIBCMTD:exe_winmain.obj
 0002:00012498       $unwind$?post_pgo_initialization@@YAHXZ 0000000140054498     LIBCMTD:exe_winmain.obj
 0002:00012498       $unwind$?pre_c_initialization@@YAHXZ 0000000140054498     LIBCMTD:exe_winmain.obj
 0002:00012498       $unwind$?pre_cpp_initialization@@YAXXZ 0000000140054498     LIBCMTD:exe_winmain.obj
 0002:00012498       $unwind$?set_app_type@__scrt_winmain_policy@@SAXXZ 0000000140054498     LIBCMTD:exe_winmain.obj
 0002:00012498       $unwind$?set_fmode@__scrt_file_policy@@SAXXZ 0000000140054498     LIBCMTD:exe_winmain.obj
 0002:00012498       $unwind$__report_rangecheckfailure 0000000140054498     LIBCMTD:gs_report.obj
 0002:00012498       $unwind$?__scrt_initialize_type_info@@YAXXZ 0000000140054498     LIBCMTD:tncleanup.obj
 0002:00012498       $unwind$__scrt_initialize_mta 0000000140054498     LIBCMTD:utility_desktop.obj
 0002:00012498       $unwind$__scrt_set_unhandled_exception_filter 0000000140054498     LIBCMTD:utility_desktop.obj
 0002:00012498       $unwind$__current_exception 0000000140054498     libvcruntimed:ehhelpers.obj
 0002:00012498       $unwind$__current_exception_context 0000000140054498     libvcruntimed:ehhelpers.obj
 0002:00012498       $xdatasym$_CallSettingFrame 0000000140054498     libvcruntimed:handlers.obj
 0002:00012498       $unwind$__vcrt_initialize  0000000140054498     libvcruntimed:initialization.obj
 0002:00012498       $unwind$__vcrt_initialize_ptd 0000000140054498     libvcruntimed:per_thread_data.obj
 0002:00012498       $unwind$__vcrt_uninitialize_ptd 0000000140054498     libvcruntimed:per_thread_data.obj
 0002:00012498       $unwind$_GetImageBase      0000000140054498     libvcruntimed:risctrnsctrl.obj
 0002:00012498       $unwind$_GetThrowImageBase 0000000140054498     libvcruntimed:risctrnsctrl.obj
 0002:00012498       $unwind$?try_get_FlsAlloc@@YAP6AKP6AXPEAX@Z@ZXZ 0000000140054498     libvcruntimed:winapi_downlevel.obj
 0002:00012498       $unwind$?try_get_FlsFree@@YAP6AHK@ZXZ 0000000140054498     libvcruntimed:winapi_downlevel.obj
 0002:00012498       $unwind$?try_get_FlsGetValue@@YAP6APEAXK@ZXZ 0000000140054498     libvcruntimed:winapi_downlevel.obj
 0002:00012498       $unwind$?try_get_FlsSetValue@@YAP6AHKPEAX@ZXZ 0000000140054498     libvcruntimed:winapi_downlevel.obj
 0002:00012498       $unwind$?try_get_InitializeCriticalSectionEx@@YAP6AHPEAU_RTL_CRITICAL_SECTION@@KK@ZXZ 0000000140054498     libvcruntimed:winapi_downlevel.obj
 0002:000124a0       $unwind$?__scrt_common_main_seh@@YAHXZ 00000001400544a0     LIBCMTD:exe_winmain.obj
 0002:000124c0       $unwind$?filt$0@?0??is_bad_read_pointer@@YA_NQEBX_K@Z@4HA 00000001400544c0     libucrtd:debug_heap.obj
 0002:000124c0       $unwind$_free_dbg$fin$0    00000001400544c0     libucrtd:debug_heap.obj
 0002:000124c0       $unwind$_query_new_handler$fin$0 00000001400544c0     libucrtd:new_handler.obj
 0002:000124c0       $unwind$?fin$0@?0???$?RV<lambda_0ae27a3a962d80f24befdcbee591983d>@@AEAV<lambda_8d0ee55de4b1038c4002e0adecdf1839>@@V<lambda_dc504788e8f1664fe9b84e20bfb512f2>@@@?$__crt_seh_guarded_call@X@@QEAAX$$QEAV<lambda_0ae27a3a962d80f24befdcbee591983d>@@AEAV<lambda_8d0ee55de4b1038c4002e0adecdf1839>@@$$QEAV<lambda_dc504788e8f1664fe9b84e20bfb512f2>@@@Z@4HA 00000001400544c0     libucrtd:per_thread_data.obj
 0002:000124c0       $unwind$?fin$0@?0???$?RV<lambda_2d41944a1d46af3157314b8a01080d33>@@AEAV<lambda_8f455de75cd7d7f24b4096f044d8b9e6>@@V<lambda_aa500f224e6afead328df44964fe2772>@@@?$__crt_seh_guarded_call@X@@QEAAX$$QEAV<lambda_2d41944a1d46af3157314b8a01080d33>@@AEAV<lambda_8f455de75cd7d7f24b4096f044d8b9e6>@@$$QEAV<lambda_aa500f224e6afead328df44964fe2772>@@@Z@4HA 00000001400544c0     libucrtd:per_thread_data.obj
 0002:000124c0       $unwind$?fin$0@?0???$?RV<lambda_74a0ef281e44d15e1136f792f539efb3>@@AEAV<lambda_e157831efee4ea0afb0a2ace5dd5fd0d>@@V<lambda_04ddeca75b7c13fd67716e8dfcef87ee>@@@?$__crt_seh_guarded_call@X@@QEAAX$$QEAV<lambda_74a0ef281e44d15e1136f792f539efb3>@@AEAV<lambda_e157831efee4ea0afb0a2ace5dd5fd0d>@@$$QEAV<lambda_04ddeca75b7c13fd67716e8dfcef87ee>@@@Z@4HA 00000001400544c0     libucrtd:per_thread_data.obj
 0002:000124c0       $unwind$?fin$0@?0???$?RV<lambda_aa87e3671a710a21b5dc78c0bdf72e11>@@AEAV<lambda_92619d2358a28f41a33ba319515a20b9>@@V<lambda_6992ecaafeb10aed2b74cb1fae11a551>@@@?$__crt_seh_guarded_call@X@@QEAAX$$QEAV<lambda_aa87e3671a710a21b5dc78c0bdf72e11>@@AEAV<lambda_92619d2358a28f41a33ba319515a20b9>@@$$QEAV<lambda_6992ecaafeb10aed2b74cb1fae11a551>@@@Z@4HA 00000001400544c0     libucrtd:per_thread_data.obj
 0002:000124c0       $unwind$__acrt_update_thread_locale_data$fin$0 00000001400544c0     libucrtd:locale_refcounting.obj
 0002:000124c0       $unwind$?fin$0@?0???$?RV<lambda_410d79af7f07d98d83a3f525b3859a53>@@AEAV<lambda_3e16ef9562a7dcce91392c22ab16ea36>@@V<lambda_38119f0e861e05405d8a144b9b982f0a>@@@?$__crt_seh_guarded_call@X@@QEAAX$$QEAV<lambda_410d79af7f07d98d83a3f525b3859a53>@@AEAV<lambda_3e16ef9562a7dcce91392c22ab16ea36>@@$$QEAV<lambda_38119f0e861e05405d8a144b9b982f0a>@@@Z@4HA 00000001400544c0     libucrtd:wsetlocale.obj
 0002:000124c0       $unwind$?fin$0@?0???$?RV<lambda_19eaff14c5fe7be5b1b106a862eb1091>@@AEAV<lambda_af29824b49a67d335554598d6cad2be6>@@V<lambda_3ce37f5b621ab310299ea5f68cbdf3bb>@@@?$__crt_seh_guarded_call@H@@QEAAH$$QEAV<lambda_19eaff14c5fe7be5b1b106a862eb1091>@@AEAV<lambda_af29824b49a67d335554598d6cad2be6>@@$$QEAV<lambda_3ce37f5b621ab310299ea5f68cbdf3bb>@@@Z@4HA 00000001400544c0     libucrtd:close.obj
 0002:000124c0       $unwind$?fin$0@?0???$?RV<lambda_7d29013d608e9f25a034de83c9b9e983>@@AEAV<lambda_3e4146214822e0ea86c47ff907aef2ff>@@V<lambda_b869e5a4e1069fcb5c3da79c0d999133>@@@?$__crt_seh_guarded_call@H@@QEAAH$$QEAV<lambda_7d29013d608e9f25a034de83c9b9e983>@@AEAV<lambda_3e4146214822e0ea86c47ff907aef2ff>@@$$QEAV<lambda_b869e5a4e1069fcb5c3da79c0d999133>@@@Z@4HA 00000001400544c0     libucrtd:commit.obj
 0002:000124c0       $unwind$__acrt_initialize_lowio$fin$0 00000001400544c0     libucrtd:ioinit.obj
 0002:000124c0       $unwind$?fin$0@?0???$?RV<lambda_efa02eb69bf647d2f7ff0dd6f1103f72>@@AEAV<lambda_bd5a608237428601b7e45fbdc72b1ae8>@@V<lambda_728235dc0fc2b1f82d1fa5b3e7102d8f>@@@?$__crt_seh_guarded_call@X@@QEAAX$$QEAV<lambda_efa02eb69bf647d2f7ff0dd6f1103f72>@@AEAV<lambda_bd5a608237428601b7e45fbdc72b1ae8>@@$$QEAV<lambda_728235dc0fc2b1f82d1fa5b3e7102d8f>@@@Z@4HA 00000001400544c0     libucrtd:mbctype.obj
 0002:000124c0       $unwind$?fin$0@?0??update_thread_multibyte_data_internal@@YAPEAU__crt_multibyte_data@@QEAU__acrt_ptd@@QEAPEAU1@@Z@4HA 00000001400544c0     libucrtd:mbctype.obj
 0002:000124c0       $unwind$?fin$0@?0???$?RV<lambda_450d765d439847d4c735a33c368b5fc0>@@AEAV<lambda_44731a7d0e6d81c3e6aa82d741081786>@@V<lambda_601a2a7da3b7a96e9554ac7215c4b07c>@@@?$__crt_seh_guarded_call@P6AXH@Z@@QEAAP6AXH@Z$$QEAV<lambda_450d765d439847d4c735a33c368b5fc0>@@AEAV<lambda_44731a7d0e6d81c3e6aa82d741081786>@@$$QEAV<lambda_601a2a7da3b7a96e9554ac7215c4b07c>@@@Z@4HA 00000001400544c0     libucrtd:signal.obj
 0002:000124c0       $unwind$terminate$filt$0   00000001400544c0     libucrtd:terminate.obj
 0002:000124c0       $unwind$?filt$0@?0???R<lambda_6e4b09c48022b2350581041d5f6b0c4c>@@QEBA@XZ@4HA 00000001400544c0     libucrtd:exit.obj
 0002:000124c0       $unwind$?fin$0@?0???$?RV<lambda_d80eeec6fff315bfe5c115232f3240e3>@@AEAV<lambda_6e4b09c48022b2350581041d5f6b0c4c>@@V<lambda_2358e3775559c9db80273638284d5e45>@@@?$__crt_seh_guarded_call@X@@QEAAX$$QEAV<lambda_d80eeec6fff315bfe5c115232f3240e3>@@AEAV<lambda_6e4b09c48022b2350581041d5f6b0c4c>@@$$QEAV<lambda_2358e3775559c9db80273638284d5e45>@@@Z@4HA 00000001400544c0     libucrtd:exit.obj
 0002:000124c0       $unwind$?dtor$0@?0???R<lambda_d121dba8a4adeaf3a9819e48611155df>@@QEBAHXZ@4HA 00000001400544c0     libucrtd:onexit.obj
 0002:000124c0       $unwind$?fin$0@?0???$?RV<lambda_6a47f4c8fd0152770a780fc1d70204eb>@@AEAV<lambda_d121dba8a4adeaf3a9819e48611155df>@@V<lambda_6aaa2265f5b6a89667e7d7630012e97a>@@@?$__crt_seh_guarded_call@H@@QEAAH$$QEAV<lambda_6a47f4c8fd0152770a780fc1d70204eb>@@AEAV<lambda_d121dba8a4adeaf3a9819e48611155df>@@$$QEAV<lambda_6aaa2265f5b6a89667e7d7630012e97a>@@@Z@4HA 00000001400544c0     libucrtd:onexit.obj
 0002:000124c0       $unwind$?fin$0@?0???$?RV<lambda_80060f20ac3990516b753a27f211934c>@@AEAV<lambda_208ce30acdd7200aa596f2796f4d5154>@@V<lambda_fd91b99c0687e8936f1d70d7d9b78e69>@@@?$__crt_seh_guarded_call@H@@QEAAH$$QEAV<lambda_80060f20ac3990516b753a27f211934c>@@AEAV<lambda_208ce30acdd7200aa596f2796f4d5154>@@$$QEAV<lambda_fd91b99c0687e8936f1d70d7d9b78e69>@@@Z@4HA 00000001400544c0     libucrtd:onexit.obj
 0002:000124c0       $unwind$_fcloseall$fin$0   00000001400544c0     libucrtd:closeall.obj
 0002:000124c0       $unwind$?fin$0@?0???$?RV<lambda_842d9ff0dc9ef11c61343bbaebe7f885>@@AEAV<lambda_c5860995281e5c4ce005b3de8f5874ee>@@V<lambda_d90129c13df834fdcbf8d2b88dafcf2d>@@@?$__crt_seh_guarded_call@X@@QEAAX$$QEAV<lambda_842d9ff0dc9ef11c61343bbaebe7f885>@@AEAV<lambda_c5860995281e5c4ce005b3de8f5874ee>@@$$QEAV<lambda_d90129c13df834fdcbf8d2b88dafcf2d>@@@Z@4HA 00000001400544c0     libucrtd:fflush.obj
 0002:000124c0       $unwind$?fin$0@?0???$?RV<lambda_886d6c58226a84441f68b9f2b8217b83>@@AEAV<lambda_ab61a845afdef5b7c387490eaf3616ee>@@V<lambda_f7f22ab5edc0698d5f6905b0d3f44752>@@@?$__crt_seh_guarded_call@X@@QEAAX$$QEAV<lambda_886d6c58226a84441f68b9f2b8217b83>@@AEAV<lambda_ab61a845afdef5b7c387490eaf3616ee>@@$$QEAV<lambda_f7f22ab5edc0698d5f6905b0d3f44752>@@@Z@4HA 00000001400544c0     libucrtd:fflush.obj
 0002:000124c0       $unwind$?dtor$0@?0??shortsort@@YAXPEAD0_KP6AHPEBX2@Z@Z@4HA 00000001400544c0     libucrtd:qsort.obj
 0002:000124c0       $unwind$_ctrlfp$filt$0     00000001400544c0     libucrtd:fpctrl.obj
 0002:000124c0       $unwind$?filt$0@?0??__scrt_common_main_seh@@YAHXZ@4HA 00000001400544c0     LIBCMTD:exe_winmain.obj
 0002:000124c0       $unwind$_IsNonwritableInCurrentImage$filt$0 00000001400544c0     LIBCMTD:pesect.obj
 0002:000124c0       $unwind$__scrt_is_nonwritable_in_current_image$filt$0 00000001400544c0     LIBCMTD:utility.obj
 0002:000124c0       $unwind$__DestructExceptionObject$filt$0 00000001400544c0     libvcruntimed:ehhelpers.obj
 0002:000124c0       $unwind$?filt$0@?0???$BuildCatchObjectHelperInternal@V__FrameHandler3@@@@YAHPEAUEHExceptionRecord@@PEAXPEBU_s_HandlerType@@PEBU_s_CatchableType@@@Z@4HA 00000001400544c0     libvcruntimed:frame.obj
 0002:000124c0       $unwind$?filt$0@?0???$BuildCatchObjectInternal@V__FrameHandler3@@@@YAXPEAUEHExceptionRecord@@PEAXPEBU_s_HandlerType@@PEBU_s_CatchableType@@@Z@4HA 00000001400544c0     libvcruntimed:frame.obj
 0002:000124c0       $unwind$?filt$0@?0??CxxCallCatchBlock@__FrameHandler3@@SAPEAXPEAU_EXCEPTION_RECORD@@@Z@4HA 00000001400544c0     libvcruntimed:frame.obj
 0002:000124c0       $unwind$?filt$0@?0??FrameUnwindToState@__FrameHandler3@@SAXPEA_KPEAU_xDISPATCHER_CONTEXT@@PEBU_s_FuncInfo@@H@Z@4HA 00000001400544c0     libvcruntimed:frame.obj
 0002:000124c0       $unwind$?fin$1@?0??CxxCallCatchBlock@__FrameHandler3@@SAPEAXPEAU_EXCEPTION_RECORD@@@Z@4HA 00000001400544c0     libvcruntimed:frame.obj
